ARM GAS  C:\Users\Grzybek\AppData\Local\Temp\ccnX3gZj.s 			page 1


   1              		.syntax unified
   2              		.cpu cortex-m3
   3              		.fpu softvfp
   4              		.eabi_attribute 20, 1	@ Tag_ABI_FP_denormal
   5              		.eabi_attribute 21, 1	@ Tag_ABI_FP_exceptions
   6              		.eabi_attribute 23, 3	@ Tag_ABI_FP_number_model
   7              		.eabi_attribute 24, 1	@ Tag_ABI_align8_needed
   8              		.eabi_attribute 25, 1	@ Tag_ABI_align8_preserved
   9              		.eabi_attribute 26, 1	@ Tag_ABI_enum_size
  10              		.eabi_attribute 30, 6	@ Tag_ABI_optimization_goals
  11              		.eabi_attribute 34, 1	@ Tag_CPU_unaligned_access
  12              		.eabi_attribute 18, 4	@ Tag_ABI_PCS_wchar_t
  13              		.file	"blocktim.c"
  14              	@ GNU C (Sourcery CodeBench Lite 2012.09-63) version 4.7.2 (arm-none-eabi)
  15              	@	compiled by GNU C version 4.3.2, GMP version 5.0.5, MPFR version 3.1.1-p2, MPC version 1.0.1
  16              	@ GGC heuristics: --param ggc-min-expand=100 --param ggc-min-heapsize=131072
  17              	@ options passed:  -I . -I ./STCode -I ./Source/include
  18              	@ -I ./Source/portable/GCC/ARM_CM3 -I ./Common/include
  19              	@ -I ./Common/drivers/ST/STM32F10xFWLib/v3_2_0/Libraries/STM32F10x_StdPeriph_Driver/inc
  20              	@ -I ./Common/drivers/ST/STM32F10xFWLib/v3_2_0/Libraries/CMSIS/CM3/CoreSupport
  21              	@ -I ./Common/drivers/ST/STM32F10xFWLib/v3_2_0/Libraries/CMSIS/CM3/DeviceSupport/ST/STM32F10x
  22              	@ -imultilib thumb2
  23              	@ -iprefix c:\codesourcery\sourcery_codebench_lite_for_arm_eabi\bin\../lib/gcc/arm-none-eabi/4.7.2/
  24              	@ -isysroot c:\codesourcery\sourcery_codebench_lite_for_arm_eabi\bin\../arm-none-eabi
  25              	@ -D__USES_INITFINI__ -D STM32F10X_HD -D USE_STDPERIPH_DRIVER
  26              	@ -D VECT_TAB_FLASH -D GCC_ARMCM3 -D inline=
  27              	@ -D PACK_STRUCT_END=__attribute((packed))
  28              	@ -D ALIGN_STRUCT_END=__attribute((aligned(4)))
  29              	@ -D __CS_SOURCERYGXX_MAJ__=2012 -D __CS_SOURCERYGXX_MIN__=9
  30              	@ -D __CS_SOURCERYGXX_REV__=63 Common/Minimal/blocktim.c -mthumb
  31              	@ -mcpu=cortex-m3 -auxbase-strip Debug/blocktim.o -g3 -gdwarf-2 -O0
  32              	@ -std=gnu99 -ffunction-sections -fdata-sections -fmessage-length=0
  33              	@ -fverbose-asm
  34              	@ options enabled:  -fauto-inc-dec -fbranch-count-reg -fcommon
  35              	@ -fdata-sections -fdebug-types-section -fdelete-null-pointer-checks
  36              	@ -fdwarf2-cfi-asm -fearly-inlining -feliminate-unused-debug-types
  37              	@ -ffunction-cse -ffunction-sections -fgcse-lm -fgnu-runtime -fident
  38              	@ -finline-atomics -fira-share-save-slots -fira-share-spill-slots -fivopts
  39              	@ -fkeep-static-consts -fleading-underscore -fmath-errno
  40              	@ -fmerge-debug-strings -fmove-loop-invariants -fpeephole
  41              	@ -fprefetch-loop-arrays -freg-struct-return
  42              	@ -fsched-critical-path-heuristic -fsched-dep-count-heuristic
  43              	@ -fsched-group-heuristic -fsched-interblock -fsched-last-insn-heuristic
  44              	@ -fsched-rank-heuristic -fsched-spec -fsched-spec-insn-heuristic
  45              	@ -fsched-stalled-insns-dep -fshow-column -fsigned-zeros
  46              	@ -fsplit-ivs-in-unroller -fstrict-volatile-bitfields -ftrapping-math
  47              	@ -ftree-cselim -ftree-forwprop -ftree-loop-if-convert -ftree-loop-im
  48              	@ -ftree-loop-ivcanon -ftree-loop-optimize -ftree-parallelize-loops=
  49              	@ -ftree-phiprop -ftree-pta -ftree-reassoc -ftree-scev-cprop
  50              	@ -ftree-slp-vectorize -ftree-vect-loop-version -funit-at-a-time
  51              	@ -fverbose-asm -fzero-initialized-in-bss -mfix-cortex-m3-ldrd
  52              	@ -mlittle-endian -msched-prolog -mthumb -munaligned-access
  53              	@ -mvectorize-with-neon-quad
  54              	
  55              		.text
  56              	.Ltext0:
  57              		.cfi_sections	.debug_frame
ARM GAS  C:\Users\Grzybek\AppData\Local\Temp\ccnX3gZj.s 			page 2


  58              		.section	.bss.xTestQueue,"aw",%nobits
  59              		.align	2
  60              		.type	xTestQueue, %object
  61              		.size	xTestQueue, 4
  62              	xTestQueue:
  63 0000 00000000 		.space	4
  64              		.section	.bss.xSecondary,"aw",%nobits
  65              		.align	2
  66              		.type	xSecondary, %object
  67              		.size	xSecondary, 4
  68              	xSecondary:
  69 0000 00000000 		.space	4
  70              		.section	.bss.xPrimaryCycles,"aw",%nobits
  71              		.align	2
  72              		.type	xPrimaryCycles, %object
  73              		.size	xPrimaryCycles, 4
  74              	xPrimaryCycles:
  75 0000 00000000 		.space	4
  76              		.section	.bss.xSecondaryCycles,"aw",%nobits
  77              		.align	2
  78              		.type	xSecondaryCycles, %object
  79              		.size	xSecondaryCycles, 4
  80              	xSecondaryCycles:
  81 0000 00000000 		.space	4
  82              		.section	.bss.xErrorOccurred,"aw",%nobits
  83              		.align	2
  84              		.type	xErrorOccurred, %object
  85              		.size	xErrorOccurred, 4
  86              	xErrorOccurred:
  87 0000 00000000 		.space	4
  88              		.section	.bss.xRunIndicator,"aw",%nobits
  89              		.align	2
  90              		.type	xRunIndicator, %object
  91              		.size	xRunIndicator, 4
  92              	xRunIndicator:
  93 0000 00000000 		.space	4
  94              		.section	.rodata
  95              		.align	2
  96              	.LC0:
  97 0000 42546573 		.ascii	"BTest1\000"
  97      743100
  98 0007 00       		.align	2
  99              	.LC1:
 100 0008 42546573 		.ascii	"BTest2\000"
 100      743200
 101 000f 00       		.section	.text.vCreateBlockTimeTasks,"ax",%progbits
 102              		.align	2
 103              		.global	vCreateBlockTimeTasks
 104              		.thumb
 105              		.thumb_func
 106              		.type	vCreateBlockTimeTasks, %function
 107              	vCreateBlockTimeTasks:
 108              	.LFB0:
 109              		.file 1 "Common/Minimal/blocktim.c"
   1:Common/Minimal/blocktim.c **** /*
   2:Common/Minimal/blocktim.c ****     FreeRTOS V7.3.0 - Copyright (C) 2012 Real Time Engineers Ltd.
   3:Common/Minimal/blocktim.c **** 
ARM GAS  C:\Users\Grzybek\AppData\Local\Temp\ccnX3gZj.s 			page 3


   4:Common/Minimal/blocktim.c ****     FEATURES AND PORTS ARE ADDED TO FREERTOS ALL THE TIME.  PLEASE VISIT 
   5:Common/Minimal/blocktim.c ****     http://www.FreeRTOS.org TO ENSURE YOU ARE USING THE LATEST VERSION.
   6:Common/Minimal/blocktim.c **** 
   7:Common/Minimal/blocktim.c ****     ***************************************************************************
   8:Common/Minimal/blocktim.c ****      *                                                                       *
   9:Common/Minimal/blocktim.c ****      *    FreeRTOS tutorial books are available in pdf and paperback.        *
  10:Common/Minimal/blocktim.c ****      *    Complete, revised, and edited pdf reference manuals are also       *
  11:Common/Minimal/blocktim.c ****      *    available.                                                         *
  12:Common/Minimal/blocktim.c ****      *                                                                       *
  13:Common/Minimal/blocktim.c ****      *    Purchasing FreeRTOS documentation will not only help you, by       *
  14:Common/Minimal/blocktim.c ****      *    ensuring you get running as quickly as possible and with an        *
  15:Common/Minimal/blocktim.c ****      *    in-depth knowledge of how to use FreeRTOS, it will also help       *
  16:Common/Minimal/blocktim.c ****      *    the FreeRTOS project to continue with its mission of providing     *
  17:Common/Minimal/blocktim.c ****      *    professional grade, cross platform, de facto standard solutions    *
  18:Common/Minimal/blocktim.c ****      *    for microcontrollers - completely free of charge!                  *
  19:Common/Minimal/blocktim.c ****      *                                                                       *
  20:Common/Minimal/blocktim.c ****      *    >>> See http://www.FreeRTOS.org/Documentation for details. <<<     *
  21:Common/Minimal/blocktim.c ****      *                                                                       *
  22:Common/Minimal/blocktim.c ****      *    Thank you for using FreeRTOS, and thank you for your support!      *
  23:Common/Minimal/blocktim.c ****      *                                                                       *
  24:Common/Minimal/blocktim.c ****     ***************************************************************************
  25:Common/Minimal/blocktim.c **** 
  26:Common/Minimal/blocktim.c **** 
  27:Common/Minimal/blocktim.c ****     This file is part of the FreeRTOS distribution.
  28:Common/Minimal/blocktim.c **** 
  29:Common/Minimal/blocktim.c ****     FreeRTOS is free software; you can redistribute it and/or modify it under
  30:Common/Minimal/blocktim.c ****     the terms of the GNU General Public License (version 2) as published by the
  31:Common/Minimal/blocktim.c ****     Free Software Foundation AND MODIFIED BY the FreeRTOS exception.
  32:Common/Minimal/blocktim.c ****     >>>NOTE<<< The modification to the GPL is included to allow you to
  33:Common/Minimal/blocktim.c ****     distribute a combined work that includes FreeRTOS without being obliged to
  34:Common/Minimal/blocktim.c ****     provide the source code for proprietary components outside of the FreeRTOS
  35:Common/Minimal/blocktim.c ****     kernel.  FreeRTOS is distributed in the hope that it will be useful, but
  36:Common/Minimal/blocktim.c ****     WITHOUT ANY WARRANTY; without even the implied warranty of MERCHANTABILITY
  37:Common/Minimal/blocktim.c ****     or FITNESS FOR A PARTICULAR PURPOSE.  See the GNU General Public License for
  38:Common/Minimal/blocktim.c ****     more details. You should have received a copy of the GNU General Public
  39:Common/Minimal/blocktim.c ****     License and the FreeRTOS license exception along with FreeRTOS; if not it
  40:Common/Minimal/blocktim.c ****     can be viewed here: http://www.freertos.org/a00114.html and also obtained
  41:Common/Minimal/blocktim.c ****     by writing to Richard Barry, contact details for whom are available on the
  42:Common/Minimal/blocktim.c ****     FreeRTOS WEB site.
  43:Common/Minimal/blocktim.c **** 
  44:Common/Minimal/blocktim.c ****     1 tab == 4 spaces!
  45:Common/Minimal/blocktim.c ****     
  46:Common/Minimal/blocktim.c ****     ***************************************************************************
  47:Common/Minimal/blocktim.c ****      *                                                                       *
  48:Common/Minimal/blocktim.c ****      *    Having a problem?  Start by reading the FAQ "My application does   *
  49:Common/Minimal/blocktim.c ****      *    not run, what could be wrong?"                                     *
  50:Common/Minimal/blocktim.c ****      *                                                                       *
  51:Common/Minimal/blocktim.c ****      *    http://www.FreeRTOS.org/FAQHelp.html                               *
  52:Common/Minimal/blocktim.c ****      *                                                                       *
  53:Common/Minimal/blocktim.c ****     ***************************************************************************
  54:Common/Minimal/blocktim.c **** 
  55:Common/Minimal/blocktim.c ****     
  56:Common/Minimal/blocktim.c ****     http://www.FreeRTOS.org - Documentation, training, latest versions, license 
  57:Common/Minimal/blocktim.c ****     and contact details.  
  58:Common/Minimal/blocktim.c ****     
  59:Common/Minimal/blocktim.c ****     http://www.FreeRTOS.org/plus - A selection of FreeRTOS ecosystem products,
  60:Common/Minimal/blocktim.c ****     including FreeRTOS+Trace - an indispensable productivity tool.
ARM GAS  C:\Users\Grzybek\AppData\Local\Temp\ccnX3gZj.s 			page 4


  61:Common/Minimal/blocktim.c **** 
  62:Common/Minimal/blocktim.c ****     Real Time Engineers ltd license FreeRTOS to High Integrity Systems, who sell 
  63:Common/Minimal/blocktim.c ****     the code with commercial support, indemnification, and middleware, under 
  64:Common/Minimal/blocktim.c ****     the OpenRTOS brand: http://www.OpenRTOS.com.  High Integrity Systems also
  65:Common/Minimal/blocktim.c ****     provide a safety engineered and independently SIL3 certified version under 
  66:Common/Minimal/blocktim.c ****     the SafeRTOS brand: http://www.SafeRTOS.com.
  67:Common/Minimal/blocktim.c **** */
  68:Common/Minimal/blocktim.c **** 
  69:Common/Minimal/blocktim.c **** /*
  70:Common/Minimal/blocktim.c ****  * This file contains some test scenarios that ensure tasks do not exit queue
  71:Common/Minimal/blocktim.c ****  * send or receive functions prematurely.  A description of the tests is
  72:Common/Minimal/blocktim.c ****  * included within the code.
  73:Common/Minimal/blocktim.c ****  */
  74:Common/Minimal/blocktim.c **** 
  75:Common/Minimal/blocktim.c **** /* Kernel includes. */
  76:Common/Minimal/blocktim.c **** #include "FreeRTOS.h"
  77:Common/Minimal/blocktim.c **** #include "task.h"
  78:Common/Minimal/blocktim.c **** #include "queue.h"
  79:Common/Minimal/blocktim.c **** 
  80:Common/Minimal/blocktim.c **** /* Demo includes. */
  81:Common/Minimal/blocktim.c **** #include "blocktim.h"
  82:Common/Minimal/blocktim.c **** 
  83:Common/Minimal/blocktim.c **** /* Task priorities.  Allow these to be overridden. */
  84:Common/Minimal/blocktim.c **** #ifndef bktPRIMARY_PRIORITY
  85:Common/Minimal/blocktim.c **** 	#define bktPRIMARY_PRIORITY		( configMAX_PRIORITIES - 3 )
  86:Common/Minimal/blocktim.c **** #endif
  87:Common/Minimal/blocktim.c **** 
  88:Common/Minimal/blocktim.c **** #ifndef bktSECONDARY_PRIORITY
  89:Common/Minimal/blocktim.c **** 	#define bktSECONDARY_PRIORITY	( configMAX_PRIORITIES - 4 )
  90:Common/Minimal/blocktim.c **** #endif
  91:Common/Minimal/blocktim.c **** 
  92:Common/Minimal/blocktim.c **** /* Task behaviour. */
  93:Common/Minimal/blocktim.c **** #define bktQUEUE_LENGTH				( 5 )
  94:Common/Minimal/blocktim.c **** #define bktSHORT_WAIT				( ( ( portTickType ) 20 ) / portTICK_RATE_MS )
  95:Common/Minimal/blocktim.c **** #define bktPRIMARY_BLOCK_TIME		( 10 )
  96:Common/Minimal/blocktim.c **** #define bktALLOWABLE_MARGIN			( 15 )
  97:Common/Minimal/blocktim.c **** #define bktTIME_TO_BLOCK			( 175 )
  98:Common/Minimal/blocktim.c **** #define bktDONT_BLOCK				( ( portTickType ) 0 )
  99:Common/Minimal/blocktim.c **** #define bktRUN_INDICATOR			( ( unsigned portBASE_TYPE ) 0x55 )
 100:Common/Minimal/blocktim.c **** 
 101:Common/Minimal/blocktim.c **** /* The queue on which the tasks block. */
 102:Common/Minimal/blocktim.c **** static xQueueHandle xTestQueue;
 103:Common/Minimal/blocktim.c **** 
 104:Common/Minimal/blocktim.c **** /* Handle to the secondary task is required by the primary task for calls
 105:Common/Minimal/blocktim.c **** to vTaskSuspend/Resume(). */
 106:Common/Minimal/blocktim.c **** static xTaskHandle xSecondary;
 107:Common/Minimal/blocktim.c **** 
 108:Common/Minimal/blocktim.c **** /* Used to ensure that tasks are still executing without error. */
 109:Common/Minimal/blocktim.c **** static volatile portBASE_TYPE xPrimaryCycles = 0, xSecondaryCycles = 0;
 110:Common/Minimal/blocktim.c **** static volatile portBASE_TYPE xErrorOccurred = pdFALSE;
 111:Common/Minimal/blocktim.c **** 
 112:Common/Minimal/blocktim.c **** /* Provides a simple mechanism for the primary task to know when the
 113:Common/Minimal/blocktim.c **** secondary task has executed. */
 114:Common/Minimal/blocktim.c **** static volatile unsigned portBASE_TYPE xRunIndicator;
 115:Common/Minimal/blocktim.c **** 
 116:Common/Minimal/blocktim.c **** /* The two test tasks.  Their behaviour is commented within the files. */
 117:Common/Minimal/blocktim.c **** static void vPrimaryBlockTimeTestTask( void *pvParameters );
ARM GAS  C:\Users\Grzybek\AppData\Local\Temp\ccnX3gZj.s 			page 5


 118:Common/Minimal/blocktim.c **** static void vSecondaryBlockTimeTestTask( void *pvParameters );
 119:Common/Minimal/blocktim.c **** 
 120:Common/Minimal/blocktim.c **** /*-----------------------------------------------------------*/
 121:Common/Minimal/blocktim.c **** 
 122:Common/Minimal/blocktim.c **** void vCreateBlockTimeTasks( void )
 123:Common/Minimal/blocktim.c **** {
 110              		.loc 1 123 0
 111              		.cfi_startproc
 112              		@ args = 0, pretend = 0, frame = 0
 113              		@ frame_needed = 1, uses_anonymous_args = 0
 114 0000 80B5     		push	{r7, lr}	@
 115              	.LCFI0:
 116              		.cfi_def_cfa_offset 8
 117              		.cfi_offset 7, -8
 118              		.cfi_offset 14, -4
 119 0002 84B0     		sub	sp, sp, #16	@,,
 120              	.LCFI1:
 121              		.cfi_def_cfa_offset 24
 122 0004 04AF     		add	r7, sp, #16	@,,
 123              	.LCFI2:
 124              		.cfi_def_cfa 7, 8
 124:Common/Minimal/blocktim.c **** 	/* Create the queue on which the two tasks block. */
 125:Common/Minimal/blocktim.c ****     xTestQueue = xQueueCreate( bktQUEUE_LENGTH, sizeof( portBASE_TYPE ) );
 125              		.loc 1 125 0
 126 0006 4FF00500 		mov	r0, #5	@,
 127 000a 4FF00401 		mov	r1, #4	@,
 128 000e 4FF00002 		mov	r2, #0	@,
 129 0012 FFF7FEFF 		bl	xQueueGenericCreate	@
 130 0016 0246     		mov	r2, r0	@ xTestQueue.55,
 131 0018 154B     		ldr	r3, .L2	@ tmp135,
 132 001a 1A60     		str	r2, [r3, #0]	@ xTestQueue.55, xTestQueue
 126:Common/Minimal/blocktim.c **** 
 127:Common/Minimal/blocktim.c **** 	/* vQueueAddToRegistry() adds the queue to the queue registry, if one is
 128:Common/Minimal/blocktim.c **** 	in use.  The queue registry is provided as a means for kernel aware
 129:Common/Minimal/blocktim.c **** 	debuggers to locate queues and has no purpose if a kernel aware debugger
 130:Common/Minimal/blocktim.c **** 	is not being used.  The call to vQueueAddToRegistry() will be removed
 131:Common/Minimal/blocktim.c **** 	by the pre-processor if configQUEUE_REGISTRY_SIZE is not defined or is
 132:Common/Minimal/blocktim.c **** 	defined to be less than 1. */
 133:Common/Minimal/blocktim.c **** 	vQueueAddToRegistry( xTestQueue, ( signed char * ) "Block_Time_Queue" );
 134:Common/Minimal/blocktim.c **** 
 135:Common/Minimal/blocktim.c **** 	/* Create the two test tasks. */
 136:Common/Minimal/blocktim.c **** 	xTaskCreate( vPrimaryBlockTimeTestTask, ( signed char * )"BTest1", configMINIMAL_STACK_SIZE, NULL,
 133              		.loc 1 136 0
 134 001c 4FF00203 		mov	r3, #2	@ tmp136,
 135 0020 0093     		str	r3, [sp, #0]	@ tmp136,
 136 0022 4FF00003 		mov	r3, #0	@ tmp137,
 137 0026 0193     		str	r3, [sp, #4]	@ tmp137,
 138 0028 4FF00003 		mov	r3, #0	@ tmp138,
 139 002c 0293     		str	r3, [sp, #8]	@ tmp138,
 140 002e 4FF00003 		mov	r3, #0	@ tmp139,
 141 0032 0393     		str	r3, [sp, #12]	@ tmp139,
 142 0034 0F48     		ldr	r0, .L2+4	@,
 143 0036 1049     		ldr	r1, .L2+8	@,
 144 0038 4FF08002 		mov	r2, #128	@,
 145 003c 4FF00003 		mov	r3, #0	@,
 146 0040 FFF7FEFF 		bl	xTaskGenericCreate	@
 137:Common/Minimal/blocktim.c **** 	xTaskCreate( vSecondaryBlockTimeTestTask, ( signed char * )"BTest2", configMINIMAL_STACK_SIZE, NUL
ARM GAS  C:\Users\Grzybek\AppData\Local\Temp\ccnX3gZj.s 			page 6


 147              		.loc 1 137 0
 148 0044 4FF00103 		mov	r3, #1	@ tmp140,
 149 0048 0093     		str	r3, [sp, #0]	@ tmp140,
 150 004a 0C4B     		ldr	r3, .L2+12	@ tmp141,
 151 004c 0193     		str	r3, [sp, #4]	@ tmp141,
 152 004e 4FF00003 		mov	r3, #0	@ tmp142,
 153 0052 0293     		str	r3, [sp, #8]	@ tmp142,
 154 0054 4FF00003 		mov	r3, #0	@ tmp143,
 155 0058 0393     		str	r3, [sp, #12]	@ tmp143,
 156 005a 0948     		ldr	r0, .L2+16	@,
 157 005c 0949     		ldr	r1, .L2+20	@,
 158 005e 4FF08002 		mov	r2, #128	@,
 159 0062 4FF00003 		mov	r3, #0	@,
 160 0066 FFF7FEFF 		bl	xTaskGenericCreate	@
 138:Common/Minimal/blocktim.c **** }
 161              		.loc 1 138 0
 162 006a BD46     		mov	sp, r7
 163 006c 80BD     		pop	{r7, pc}
 164              	.L3:
 165 006e 00BF     		.align	2
 166              	.L2:
 167 0070 00000000 		.word	xTestQueue
 168 0074 00000000 		.word	vPrimaryBlockTimeTestTask
 169 0078 00000000 		.word	.LC0
 170 007c 00000000 		.word	xSecondary
 171 0080 00000000 		.word	vSecondaryBlockTimeTestTask
 172 0084 08000000 		.word	.LC1
 173              		.cfi_endproc
 174              	.LFE0:
 175              		.size	vCreateBlockTimeTasks, .-vCreateBlockTimeTasks
 176              		.section	.text.vPrimaryBlockTimeTestTask,"ax",%progbits
 177              		.align	2
 178              		.thumb
 179              		.thumb_func
 180              		.type	vPrimaryBlockTimeTestTask, %function
 181              	vPrimaryBlockTimeTestTask:
 182              	.LFB1:
 139:Common/Minimal/blocktim.c **** /*-----------------------------------------------------------*/
 140:Common/Minimal/blocktim.c **** 
 141:Common/Minimal/blocktim.c **** static void vPrimaryBlockTimeTestTask( void *pvParameters )
 142:Common/Minimal/blocktim.c **** {
 183              		.loc 1 142 0
 184              		.cfi_startproc
 185              		@ args = 0, pretend = 0, frame = 32
 186              		@ frame_needed = 1, uses_anonymous_args = 0
 187 0000 80B5     		push	{r7, lr}	@
 188              	.LCFI3:
 189              		.cfi_def_cfa_offset 8
 190              		.cfi_offset 7, -8
 191              		.cfi_offset 14, -4
 192 0002 88B0     		sub	sp, sp, #32	@,,
 193              	.LCFI4:
 194              		.cfi_def_cfa_offset 40
 195 0004 00AF     		add	r7, sp, #0	@,,
 196              	.LCFI5:
 197              		.cfi_def_cfa_register 7
 198 0006 7860     		str	r0, [r7, #4]	@ pvParameters, pvParameters
ARM GAS  C:\Users\Grzybek\AppData\Local\Temp\ccnX3gZj.s 			page 7


 199              	.L41:
 143:Common/Minimal/blocktim.c **** portBASE_TYPE xItem, xData;
 144:Common/Minimal/blocktim.c **** portTickType xTimeWhenBlocking;
 145:Common/Minimal/blocktim.c **** portTickType xTimeToBlock, xBlockedTime;
 146:Common/Minimal/blocktim.c **** 
 147:Common/Minimal/blocktim.c **** 	( void ) pvParameters;
 148:Common/Minimal/blocktim.c **** 
 149:Common/Minimal/blocktim.c **** 	for( ;; )
 150:Common/Minimal/blocktim.c **** 	{
 151:Common/Minimal/blocktim.c **** 		/*********************************************************************
 152:Common/Minimal/blocktim.c ****         Test 1
 153:Common/Minimal/blocktim.c **** 
 154:Common/Minimal/blocktim.c ****         Simple block time wakeup test on queue receives. */
 155:Common/Minimal/blocktim.c **** 		for( xItem = 0; xItem < bktQUEUE_LENGTH; xItem++ )
 200              		.loc 1 155 0
 201 0008 4FF00003 		mov	r3, #0	@ tmp192,
 202 000c 3B61     		str	r3, [r7, #16]	@ tmp192, xItem
 203 000e 36E0     		b	.L5	@
 204              	.L9:
 156:Common/Minimal/blocktim.c **** 		{
 157:Common/Minimal/blocktim.c **** 			/* The queue is empty. Attempt to read from the queue using a block
 158:Common/Minimal/blocktim.c **** 			time.  When we wake, ensure the delta in time is as expected. */
 159:Common/Minimal/blocktim.c **** 			xTimeToBlock = bktPRIMARY_BLOCK_TIME << xItem;
 205              		.loc 1 159 0
 206 0010 3B69     		ldr	r3, [r7, #16]	@ xItem.11, xItem
 207 0012 4FF00A02 		mov	r2, #10	@ tmp193,
 208 0016 02FA03F3 		lsl	r3, r2, r3	@ D.4429, tmp193, xItem.11
 209 001a FB61     		str	r3, [r7, #28]	@ D.4429, xTimeToBlock
 160:Common/Minimal/blocktim.c **** 
 161:Common/Minimal/blocktim.c **** 			xTimeWhenBlocking = xTaskGetTickCount();
 210              		.loc 1 161 0
 211 001c FFF7FEFF 		bl	xTaskGetTickCount	@
 212 0020 B861     		str	r0, [r7, #24]	@, xTimeWhenBlocking
 162:Common/Minimal/blocktim.c **** 
 163:Common/Minimal/blocktim.c **** 			/* We should unblock after xTimeToBlock having not received
 164:Common/Minimal/blocktim.c **** 			anything on the queue. */
 165:Common/Minimal/blocktim.c **** 			if( xQueueReceive( xTestQueue, &xData, xTimeToBlock ) != errQUEUE_EMPTY )
 213              		.loc 1 165 0
 214 0022 9F4B     		ldr	r3, .L42	@ tmp194,
 215 0024 1A68     		ldr	r2, [r3, #0]	@ xTestQueue.12, xTestQueue
 216 0026 07F10C03 		add	r3, r7, #12	@ tmp195,,
 217 002a 1046     		mov	r0, r2	@, xTestQueue.12
 218 002c 1946     		mov	r1, r3	@, tmp195
 219 002e FA69     		ldr	r2, [r7, #28]	@, xTimeToBlock
 220 0030 4FF00003 		mov	r3, #0	@,
 221 0034 FFF7FEFF 		bl	xQueueGenericReceive	@
 222 0038 0346     		mov	r3, r0	@ D.4431,
 223 003a 002B     		cmp	r3, #0	@ D.4431,
 224 003c 03D0     		beq	.L6	@,
 166:Common/Minimal/blocktim.c **** 			{
 167:Common/Minimal/blocktim.c **** 				xErrorOccurred = pdTRUE;
 225              		.loc 1 167 0
 226 003e 994B     		ldr	r3, .L42+4	@ tmp196,
 227 0040 4FF00102 		mov	r2, #1	@ tmp197,
 228 0044 1A60     		str	r2, [r3, #0]	@ tmp197, xErrorOccurred
 229              	.L6:
 168:Common/Minimal/blocktim.c **** 			}
ARM GAS  C:\Users\Grzybek\AppData\Local\Temp\ccnX3gZj.s 			page 8


 169:Common/Minimal/blocktim.c **** 
 170:Common/Minimal/blocktim.c **** 			/* How long were we blocked for? */
 171:Common/Minimal/blocktim.c **** 			xBlockedTime = xTaskGetTickCount() - xTimeWhenBlocking;
 230              		.loc 1 171 0
 231 0046 FFF7FEFF 		bl	xTaskGetTickCount	@
 232 004a 0246     		mov	r2, r0	@ D.4434,
 233 004c BB69     		ldr	r3, [r7, #24]	@ tmp199, xTimeWhenBlocking
 234 004e D31A     		subs	r3, r2, r3	@ tmp198, D.4434, tmp199
 235 0050 7B61     		str	r3, [r7, #20]	@ tmp198, xBlockedTime
 172:Common/Minimal/blocktim.c **** 
 173:Common/Minimal/blocktim.c **** 			if( xBlockedTime < xTimeToBlock )
 236              		.loc 1 173 0
 237 0052 7A69     		ldr	r2, [r7, #20]	@ tmp200, xBlockedTime
 238 0054 FB69     		ldr	r3, [r7, #28]	@ tmp201, xTimeToBlock
 239 0056 9A42     		cmp	r2, r3	@ tmp200, tmp201
 240 0058 03D2     		bcs	.L7	@,
 174:Common/Minimal/blocktim.c **** 			{
 175:Common/Minimal/blocktim.c **** 				/* Should not have blocked for less than we requested. */
 176:Common/Minimal/blocktim.c **** 				xErrorOccurred = pdTRUE;
 241              		.loc 1 176 0
 242 005a 924B     		ldr	r3, .L42+4	@ tmp202,
 243 005c 4FF00102 		mov	r2, #1	@ tmp203,
 244 0060 1A60     		str	r2, [r3, #0]	@ tmp203, xErrorOccurred
 245              	.L7:
 177:Common/Minimal/blocktim.c **** 			}
 178:Common/Minimal/blocktim.c **** 
 179:Common/Minimal/blocktim.c **** 			if( xBlockedTime > ( xTimeToBlock + bktALLOWABLE_MARGIN ) )
 246              		.loc 1 179 0
 247 0062 FB69     		ldr	r3, [r7, #28]	@ tmp204, xTimeToBlock
 248 0064 03F10F02 		add	r2, r3, #15	@ D.4437, tmp204,
 249 0068 7B69     		ldr	r3, [r7, #20]	@ tmp205, xBlockedTime
 250 006a 9A42     		cmp	r2, r3	@ D.4437, tmp205
 251 006c 03D2     		bcs	.L8	@,
 180:Common/Minimal/blocktim.c **** 			{
 181:Common/Minimal/blocktim.c **** 				/* Should not have blocked for longer than we requested,
 182:Common/Minimal/blocktim.c **** 				although we would not necessarily run as soon as we were
 183:Common/Minimal/blocktim.c **** 				unblocked so a margin is allowed. */
 184:Common/Minimal/blocktim.c **** 				xErrorOccurred = pdTRUE;
 252              		.loc 1 184 0
 253 006e 8D4B     		ldr	r3, .L42+4	@ tmp206,
 254 0070 4FF00102 		mov	r2, #1	@ tmp207,
 255 0074 1A60     		str	r2, [r3, #0]	@ tmp207, xErrorOccurred
 256              	.L8:
 155:Common/Minimal/blocktim.c **** 		for( xItem = 0; xItem < bktQUEUE_LENGTH; xItem++ )
 257              		.loc 1 155 0
 258 0076 3B69     		ldr	r3, [r7, #16]	@ xItem.13, xItem
 259 0078 03F10103 		add	r3, r3, #1	@ xItem.14, xItem.13,
 260 007c 3B61     		str	r3, [r7, #16]	@ xItem.14, xItem
 261              	.L5:
 155:Common/Minimal/blocktim.c **** 		for( xItem = 0; xItem < bktQUEUE_LENGTH; xItem++ )
 262              		.loc 1 155 0 is_stmt 0 discriminator 1
 263 007e 3B69     		ldr	r3, [r7, #16]	@ xItem.15, xItem
 264 0080 042B     		cmp	r3, #4	@ xItem.15,
 265 0082 C5DD     		ble	.L9	@,
 185:Common/Minimal/blocktim.c **** 			}
 186:Common/Minimal/blocktim.c **** 		}
 187:Common/Minimal/blocktim.c **** 
ARM GAS  C:\Users\Grzybek\AppData\Local\Temp\ccnX3gZj.s 			page 9


 188:Common/Minimal/blocktim.c **** 		/*********************************************************************
 189:Common/Minimal/blocktim.c ****         Test 2
 190:Common/Minimal/blocktim.c **** 
 191:Common/Minimal/blocktim.c ****         Simple block time wakeup test on queue sends.
 192:Common/Minimal/blocktim.c **** 
 193:Common/Minimal/blocktim.c **** 		First fill the queue.  It should be empty so all sends should pass. */
 194:Common/Minimal/blocktim.c **** 		for( xItem = 0; xItem < bktQUEUE_LENGTH; xItem++ )
 266              		.loc 1 194 0 is_stmt 1
 267 0084 4FF00003 		mov	r3, #0	@ tmp208,
 268 0088 3B61     		str	r3, [r7, #16]	@ tmp208, xItem
 269 008a 16E0     		b	.L10	@
 270              	.L12:
 195:Common/Minimal/blocktim.c **** 		{
 196:Common/Minimal/blocktim.c **** 			if( xQueueSend( xTestQueue, &xItem, bktDONT_BLOCK ) != pdPASS )
 271              		.loc 1 196 0
 272 008c 844B     		ldr	r3, .L42	@ tmp209,
 273 008e 1A68     		ldr	r2, [r3, #0]	@ xTestQueue.16, xTestQueue
 274 0090 07F11003 		add	r3, r7, #16	@ tmp210,,
 275 0094 1046     		mov	r0, r2	@, xTestQueue.16
 276 0096 1946     		mov	r1, r3	@, tmp210
 277 0098 4FF00002 		mov	r2, #0	@,
 278 009c 4FF00003 		mov	r3, #0	@,
 279 00a0 FFF7FEFF 		bl	xQueueGenericSend	@
 280 00a4 0346     		mov	r3, r0	@ D.4444,
 281 00a6 012B     		cmp	r3, #1	@ D.4444,
 282 00a8 03D0     		beq	.L11	@,
 197:Common/Minimal/blocktim.c **** 			{
 198:Common/Minimal/blocktim.c **** 				xErrorOccurred = pdTRUE;
 283              		.loc 1 198 0
 284 00aa 7E4B     		ldr	r3, .L42+4	@ tmp211,
 285 00ac 4FF00102 		mov	r2, #1	@ tmp212,
 286 00b0 1A60     		str	r2, [r3, #0]	@ tmp212, xErrorOccurred
 287              	.L11:
 194:Common/Minimal/blocktim.c **** 		for( xItem = 0; xItem < bktQUEUE_LENGTH; xItem++ )
 288              		.loc 1 194 0
 289 00b2 3B69     		ldr	r3, [r7, #16]	@ xItem.17, xItem
 290 00b4 03F10103 		add	r3, r3, #1	@ xItem.18, xItem.17,
 291 00b8 3B61     		str	r3, [r7, #16]	@ xItem.18, xItem
 292              	.L10:
 194:Common/Minimal/blocktim.c **** 		for( xItem = 0; xItem < bktQUEUE_LENGTH; xItem++ )
 293              		.loc 1 194 0 is_stmt 0 discriminator 1
 294 00ba 3B69     		ldr	r3, [r7, #16]	@ xItem.19, xItem
 295 00bc 042B     		cmp	r3, #4	@ xItem.19,
 296 00be E5DD     		ble	.L12	@,
 199:Common/Minimal/blocktim.c **** 			}
 200:Common/Minimal/blocktim.c **** 
 201:Common/Minimal/blocktim.c **** 			#if configUSE_PREEMPTION == 0
 202:Common/Minimal/blocktim.c **** 				taskYIELD();
 203:Common/Minimal/blocktim.c **** 			#endif
 204:Common/Minimal/blocktim.c **** 		}
 205:Common/Minimal/blocktim.c **** 
 206:Common/Minimal/blocktim.c **** 		for( xItem = 0; xItem < bktQUEUE_LENGTH; xItem++ )
 297              		.loc 1 206 0 is_stmt 1
 298 00c0 4FF00003 		mov	r3, #0	@ tmp213,
 299 00c4 3B61     		str	r3, [r7, #16]	@ tmp213, xItem
 300 00c6 36E0     		b	.L13	@
 301              	.L17:
ARM GAS  C:\Users\Grzybek\AppData\Local\Temp\ccnX3gZj.s 			page 10


 207:Common/Minimal/blocktim.c **** 		{
 208:Common/Minimal/blocktim.c **** 			/* The queue is full. Attempt to write to the queue using a block
 209:Common/Minimal/blocktim.c **** 			time.  When we wake, ensure the delta in time is as expected. */
 210:Common/Minimal/blocktim.c **** 			xTimeToBlock = bktPRIMARY_BLOCK_TIME << xItem;
 302              		.loc 1 210 0
 303 00c8 3B69     		ldr	r3, [r7, #16]	@ xItem.20, xItem
 304 00ca 4FF00A02 		mov	r2, #10	@ tmp214,
 305 00ce 02FA03F3 		lsl	r3, r2, r3	@ D.4451, tmp214, xItem.20
 306 00d2 FB61     		str	r3, [r7, #28]	@ D.4451, xTimeToBlock
 211:Common/Minimal/blocktim.c **** 
 212:Common/Minimal/blocktim.c **** 			xTimeWhenBlocking = xTaskGetTickCount();
 307              		.loc 1 212 0
 308 00d4 FFF7FEFF 		bl	xTaskGetTickCount	@
 309 00d8 B861     		str	r0, [r7, #24]	@, xTimeWhenBlocking
 213:Common/Minimal/blocktim.c **** 
 214:Common/Minimal/blocktim.c **** 			/* We should unblock after xTimeToBlock having not received
 215:Common/Minimal/blocktim.c **** 			anything on the queue. */
 216:Common/Minimal/blocktim.c **** 			if( xQueueSend( xTestQueue, &xItem, xTimeToBlock ) != errQUEUE_FULL )
 310              		.loc 1 216 0
 311 00da 714B     		ldr	r3, .L42	@ tmp215,
 312 00dc 1A68     		ldr	r2, [r3, #0]	@ xTestQueue.21, xTestQueue
 313 00de 07F11003 		add	r3, r7, #16	@ tmp216,,
 314 00e2 1046     		mov	r0, r2	@, xTestQueue.21
 315 00e4 1946     		mov	r1, r3	@, tmp216
 316 00e6 FA69     		ldr	r2, [r7, #28]	@, xTimeToBlock
 317 00e8 4FF00003 		mov	r3, #0	@,
 318 00ec FFF7FEFF 		bl	xQueueGenericSend	@
 319 00f0 0346     		mov	r3, r0	@ D.4453,
 320 00f2 002B     		cmp	r3, #0	@ D.4453,
 321 00f4 03D0     		beq	.L14	@,
 217:Common/Minimal/blocktim.c **** 			{
 218:Common/Minimal/blocktim.c **** 				xErrorOccurred = pdTRUE;
 322              		.loc 1 218 0
 323 00f6 6B4B     		ldr	r3, .L42+4	@ tmp217,
 324 00f8 4FF00102 		mov	r2, #1	@ tmp218,
 325 00fc 1A60     		str	r2, [r3, #0]	@ tmp218, xErrorOccurred
 326              	.L14:
 219:Common/Minimal/blocktim.c **** 			}
 220:Common/Minimal/blocktim.c **** 
 221:Common/Minimal/blocktim.c **** 			/* How long were we blocked for? */
 222:Common/Minimal/blocktim.c **** 			xBlockedTime = xTaskGetTickCount() - xTimeWhenBlocking;
 327              		.loc 1 222 0
 328 00fe FFF7FEFF 		bl	xTaskGetTickCount	@
 329 0102 0246     		mov	r2, r0	@ D.4456,
 330 0104 BB69     		ldr	r3, [r7, #24]	@ tmp220, xTimeWhenBlocking
 331 0106 D31A     		subs	r3, r2, r3	@ tmp219, D.4456, tmp220
 332 0108 7B61     		str	r3, [r7, #20]	@ tmp219, xBlockedTime
 223:Common/Minimal/blocktim.c **** 
 224:Common/Minimal/blocktim.c **** 			if( xBlockedTime < xTimeToBlock )
 333              		.loc 1 224 0
 334 010a 7A69     		ldr	r2, [r7, #20]	@ tmp221, xBlockedTime
 335 010c FB69     		ldr	r3, [r7, #28]	@ tmp222, xTimeToBlock
 336 010e 9A42     		cmp	r2, r3	@ tmp221, tmp222
 337 0110 03D2     		bcs	.L15	@,
 225:Common/Minimal/blocktim.c **** 			{
 226:Common/Minimal/blocktim.c **** 				/* Should not have blocked for less than we requested. */
 227:Common/Minimal/blocktim.c **** 				xErrorOccurred = pdTRUE;
ARM GAS  C:\Users\Grzybek\AppData\Local\Temp\ccnX3gZj.s 			page 11


 338              		.loc 1 227 0
 339 0112 644B     		ldr	r3, .L42+4	@ tmp223,
 340 0114 4FF00102 		mov	r2, #1	@ tmp224,
 341 0118 1A60     		str	r2, [r3, #0]	@ tmp224, xErrorOccurred
 342              	.L15:
 228:Common/Minimal/blocktim.c **** 			}
 229:Common/Minimal/blocktim.c **** 
 230:Common/Minimal/blocktim.c **** 			if( xBlockedTime > ( xTimeToBlock + bktALLOWABLE_MARGIN ) )
 343              		.loc 1 230 0
 344 011a FB69     		ldr	r3, [r7, #28]	@ tmp225, xTimeToBlock
 345 011c 03F10F02 		add	r2, r3, #15	@ D.4459, tmp225,
 346 0120 7B69     		ldr	r3, [r7, #20]	@ tmp226, xBlockedTime
 347 0122 9A42     		cmp	r2, r3	@ D.4459, tmp226
 348 0124 03D2     		bcs	.L16	@,
 231:Common/Minimal/blocktim.c **** 			{
 232:Common/Minimal/blocktim.c **** 				/* Should not have blocked for longer than we requested,
 233:Common/Minimal/blocktim.c **** 				although we would not necessarily run as soon as we were
 234:Common/Minimal/blocktim.c **** 				unblocked so a margin is allowed. */
 235:Common/Minimal/blocktim.c **** 				xErrorOccurred = pdTRUE;
 349              		.loc 1 235 0
 350 0126 5F4B     		ldr	r3, .L42+4	@ tmp227,
 351 0128 4FF00102 		mov	r2, #1	@ tmp228,
 352 012c 1A60     		str	r2, [r3, #0]	@ tmp228, xErrorOccurred
 353              	.L16:
 206:Common/Minimal/blocktim.c **** 		for( xItem = 0; xItem < bktQUEUE_LENGTH; xItem++ )
 354              		.loc 1 206 0
 355 012e 3B69     		ldr	r3, [r7, #16]	@ xItem.22, xItem
 356 0130 03F10103 		add	r3, r3, #1	@ xItem.23, xItem.22,
 357 0134 3B61     		str	r3, [r7, #16]	@ xItem.23, xItem
 358              	.L13:
 206:Common/Minimal/blocktim.c **** 		for( xItem = 0; xItem < bktQUEUE_LENGTH; xItem++ )
 359              		.loc 1 206 0 is_stmt 0 discriminator 1
 360 0136 3B69     		ldr	r3, [r7, #16]	@ xItem.24, xItem
 361 0138 042B     		cmp	r3, #4	@ xItem.24,
 362 013a C5DD     		ble	.L17	@,
 236:Common/Minimal/blocktim.c **** 			}
 237:Common/Minimal/blocktim.c **** 		}
 238:Common/Minimal/blocktim.c **** 
 239:Common/Minimal/blocktim.c **** 		/*********************************************************************
 240:Common/Minimal/blocktim.c ****         Test 3
 241:Common/Minimal/blocktim.c **** 
 242:Common/Minimal/blocktim.c **** 		Wake the other task, it will block attempting to post to the queue.
 243:Common/Minimal/blocktim.c **** 		When we read from the queue the other task will wake, but before it
 244:Common/Minimal/blocktim.c **** 		can run we will post to the queue again.  When the other task runs it
 245:Common/Minimal/blocktim.c **** 		will find the queue still full, even though it was woken.  It should
 246:Common/Minimal/blocktim.c **** 		recognise that its block time has not expired and return to block for
 247:Common/Minimal/blocktim.c **** 		the remains of its block time.
 248:Common/Minimal/blocktim.c **** 
 249:Common/Minimal/blocktim.c **** 		Wake the other task so it blocks attempting to post to the already
 250:Common/Minimal/blocktim.c **** 		full queue. */
 251:Common/Minimal/blocktim.c **** 		xRunIndicator = 0;
 363              		.loc 1 251 0 is_stmt 1
 364 013c 5A4B     		ldr	r3, .L42+8	@ tmp229,
 365 013e 4FF00002 		mov	r2, #0	@ tmp230,
 366 0142 1A60     		str	r2, [r3, #0]	@ tmp230, xRunIndicator
 252:Common/Minimal/blocktim.c **** 		vTaskResume( xSecondary );
 367              		.loc 1 252 0
ARM GAS  C:\Users\Grzybek\AppData\Local\Temp\ccnX3gZj.s 			page 12


 368 0144 594B     		ldr	r3, .L42+12	@ tmp231,
 369 0146 1B68     		ldr	r3, [r3, #0]	@ xSecondary.25, xSecondary
 370 0148 1846     		mov	r0, r3	@, xSecondary.25
 371 014a FFF7FEFF 		bl	vTaskResume	@
 253:Common/Minimal/blocktim.c **** 
 254:Common/Minimal/blocktim.c **** 		/* We need to wait a little to ensure the other task executes. */
 255:Common/Minimal/blocktim.c **** 		while( xRunIndicator != bktRUN_INDICATOR )
 372              		.loc 1 255 0
 373 014e 03E0     		b	.L18	@
 374              	.L19:
 256:Common/Minimal/blocktim.c **** 		{
 257:Common/Minimal/blocktim.c **** 			/* The other task has not yet executed. */
 258:Common/Minimal/blocktim.c **** 			vTaskDelay( bktSHORT_WAIT );
 375              		.loc 1 258 0
 376 0150 4FF01400 		mov	r0, #20	@,
 377 0154 FFF7FEFF 		bl	vTaskDelay	@
 378              	.L18:
 255:Common/Minimal/blocktim.c **** 		while( xRunIndicator != bktRUN_INDICATOR )
 379              		.loc 1 255 0 discriminator 1
 380 0158 534B     		ldr	r3, .L42+8	@ tmp232,
 381 015a 1B68     		ldr	r3, [r3, #0]	@ xRunIndicator.26, xRunIndicator
 382 015c 552B     		cmp	r3, #85	@ xRunIndicator.26,
 383 015e F7D1     		bne	.L19	@,
 259:Common/Minimal/blocktim.c **** 		}
 260:Common/Minimal/blocktim.c **** 		/* Make sure the other task is blocked on the queue. */
 261:Common/Minimal/blocktim.c **** 		vTaskDelay( bktSHORT_WAIT );
 384              		.loc 1 261 0
 385 0160 4FF01400 		mov	r0, #20	@,
 386 0164 FFF7FEFF 		bl	vTaskDelay	@
 262:Common/Minimal/blocktim.c **** 		xRunIndicator = 0;
 387              		.loc 1 262 0
 388 0168 4F4B     		ldr	r3, .L42+8	@ tmp233,
 389 016a 4FF00002 		mov	r2, #0	@ tmp234,
 390 016e 1A60     		str	r2, [r3, #0]	@ tmp234, xRunIndicator
 263:Common/Minimal/blocktim.c **** 
 264:Common/Minimal/blocktim.c **** 		for( xItem = 0; xItem < bktQUEUE_LENGTH; xItem++ )
 391              		.loc 1 264 0
 392 0170 4FF00003 		mov	r3, #0	@ tmp235,
 393 0174 3B61     		str	r3, [r7, #16]	@ tmp235, xItem
 394 0176 47E0     		b	.L20	@
 395              	.L25:
 265:Common/Minimal/blocktim.c **** 		{
 266:Common/Minimal/blocktim.c **** 			/* Now when we make space on the queue the other task should wake
 267:Common/Minimal/blocktim.c **** 			but not execute as this task has higher priority. */
 268:Common/Minimal/blocktim.c **** 			if( xQueueReceive( xTestQueue, &xData, bktDONT_BLOCK ) != pdPASS )
 396              		.loc 1 268 0
 397 0178 494B     		ldr	r3, .L42	@ tmp236,
 398 017a 1A68     		ldr	r2, [r3, #0]	@ xTestQueue.27, xTestQueue
 399 017c 07F10C03 		add	r3, r7, #12	@ tmp237,,
 400 0180 1046     		mov	r0, r2	@, xTestQueue.27
 401 0182 1946     		mov	r1, r3	@, tmp237
 402 0184 4FF00002 		mov	r2, #0	@,
 403 0188 4FF00003 		mov	r3, #0	@,
 404 018c FFF7FEFF 		bl	xQueueGenericReceive	@
 405 0190 0346     		mov	r3, r0	@ D.4468,
 406 0192 012B     		cmp	r3, #1	@ D.4468,
 407 0194 03D0     		beq	.L21	@,
ARM GAS  C:\Users\Grzybek\AppData\Local\Temp\ccnX3gZj.s 			page 13


 269:Common/Minimal/blocktim.c **** 			{
 270:Common/Minimal/blocktim.c **** 				xErrorOccurred = pdTRUE;
 408              		.loc 1 270 0
 409 0196 434B     		ldr	r3, .L42+4	@ tmp238,
 410 0198 4FF00102 		mov	r2, #1	@ tmp239,
 411 019c 1A60     		str	r2, [r3, #0]	@ tmp239, xErrorOccurred
 412              	.L21:
 271:Common/Minimal/blocktim.c **** 			}
 272:Common/Minimal/blocktim.c **** 
 273:Common/Minimal/blocktim.c **** 			/* Now fill the queue again before the other task gets a chance to
 274:Common/Minimal/blocktim.c **** 			execute.  If the other task had executed we would find the queue
 275:Common/Minimal/blocktim.c **** 			full ourselves, and the other task have set xRunIndicator. */
 276:Common/Minimal/blocktim.c **** 			if( xQueueSend( xTestQueue, &xItem, bktDONT_BLOCK ) != pdPASS )
 413              		.loc 1 276 0
 414 019e 404B     		ldr	r3, .L42	@ tmp240,
 415 01a0 1A68     		ldr	r2, [r3, #0]	@ xTestQueue.28, xTestQueue
 416 01a2 07F11003 		add	r3, r7, #16	@ tmp241,,
 417 01a6 1046     		mov	r0, r2	@, xTestQueue.28
 418 01a8 1946     		mov	r1, r3	@, tmp241
 419 01aa 4FF00002 		mov	r2, #0	@,
 420 01ae 4FF00003 		mov	r3, #0	@,
 421 01b2 FFF7FEFF 		bl	xQueueGenericSend	@
 422 01b6 0346     		mov	r3, r0	@ D.4472,
 423 01b8 012B     		cmp	r3, #1	@ D.4472,
 424 01ba 03D0     		beq	.L22	@,
 277:Common/Minimal/blocktim.c **** 			{
 278:Common/Minimal/blocktim.c **** 				xErrorOccurred = pdTRUE;
 425              		.loc 1 278 0
 426 01bc 394B     		ldr	r3, .L42+4	@ tmp242,
 427 01be 4FF00102 		mov	r2, #1	@ tmp243,
 428 01c2 1A60     		str	r2, [r3, #0]	@ tmp243, xErrorOccurred
 429              	.L22:
 279:Common/Minimal/blocktim.c **** 			}
 280:Common/Minimal/blocktim.c **** 
 281:Common/Minimal/blocktim.c **** 			if( xRunIndicator == bktRUN_INDICATOR )
 430              		.loc 1 281 0
 431 01c4 384B     		ldr	r3, .L42+8	@ tmp244,
 432 01c6 1B68     		ldr	r3, [r3, #0]	@ xRunIndicator.29, xRunIndicator
 433 01c8 552B     		cmp	r3, #85	@ xRunIndicator.29,
 434 01ca 03D1     		bne	.L23	@,
 282:Common/Minimal/blocktim.c **** 			{
 283:Common/Minimal/blocktim.c **** 				/* The other task should not have executed. */
 284:Common/Minimal/blocktim.c **** 				xErrorOccurred = pdTRUE;
 435              		.loc 1 284 0
 436 01cc 354B     		ldr	r3, .L42+4	@ tmp245,
 437 01ce 4FF00102 		mov	r2, #1	@ tmp246,
 438 01d2 1A60     		str	r2, [r3, #0]	@ tmp246, xErrorOccurred
 439              	.L23:
 285:Common/Minimal/blocktim.c **** 			}
 286:Common/Minimal/blocktim.c **** 
 287:Common/Minimal/blocktim.c **** 			/* Raise the priority of the other task so it executes and blocks
 288:Common/Minimal/blocktim.c **** 			on the queue again. */
 289:Common/Minimal/blocktim.c **** 			vTaskPrioritySet( xSecondary, bktPRIMARY_PRIORITY + 2 );
 440              		.loc 1 289 0
 441 01d4 354B     		ldr	r3, .L42+12	@ tmp247,
 442 01d6 1B68     		ldr	r3, [r3, #0]	@ xSecondary.30, xSecondary
 443 01d8 1846     		mov	r0, r3	@, xSecondary.30
ARM GAS  C:\Users\Grzybek\AppData\Local\Temp\ccnX3gZj.s 			page 14


 444 01da 4FF00401 		mov	r1, #4	@,
 445 01de FFF7FEFF 		bl	vTaskPrioritySet	@
 290:Common/Minimal/blocktim.c **** 
 291:Common/Minimal/blocktim.c **** 			/* The other task should now have re-blocked without exiting the
 292:Common/Minimal/blocktim.c **** 			queue function. */
 293:Common/Minimal/blocktim.c **** 			if( xRunIndicator == bktRUN_INDICATOR )
 446              		.loc 1 293 0
 447 01e2 314B     		ldr	r3, .L42+8	@ tmp248,
 448 01e4 1B68     		ldr	r3, [r3, #0]	@ xRunIndicator.31, xRunIndicator
 449 01e6 552B     		cmp	r3, #85	@ xRunIndicator.31,
 450 01e8 03D1     		bne	.L24	@,
 294:Common/Minimal/blocktim.c **** 			{
 295:Common/Minimal/blocktim.c **** 				/* The other task should not have executed outside of the
 296:Common/Minimal/blocktim.c **** 				queue function. */
 297:Common/Minimal/blocktim.c **** 				xErrorOccurred = pdTRUE;
 451              		.loc 1 297 0
 452 01ea 2E4B     		ldr	r3, .L42+4	@ tmp249,
 453 01ec 4FF00102 		mov	r2, #1	@ tmp250,
 454 01f0 1A60     		str	r2, [r3, #0]	@ tmp250, xErrorOccurred
 455              	.L24:
 298:Common/Minimal/blocktim.c **** 			}
 299:Common/Minimal/blocktim.c **** 
 300:Common/Minimal/blocktim.c **** 			/* Set the priority back down. */
 301:Common/Minimal/blocktim.c **** 			vTaskPrioritySet( xSecondary, bktSECONDARY_PRIORITY );
 456              		.loc 1 301 0
 457 01f2 2E4B     		ldr	r3, .L42+12	@ tmp251,
 458 01f4 1B68     		ldr	r3, [r3, #0]	@ xSecondary.32, xSecondary
 459 01f6 1846     		mov	r0, r3	@, xSecondary.32
 460 01f8 4FF00101 		mov	r1, #1	@,
 461 01fc FFF7FEFF 		bl	vTaskPrioritySet	@
 264:Common/Minimal/blocktim.c **** 		for( xItem = 0; xItem < bktQUEUE_LENGTH; xItem++ )
 462              		.loc 1 264 0
 463 0200 3B69     		ldr	r3, [r7, #16]	@ xItem.33, xItem
 464 0202 03F10103 		add	r3, r3, #1	@ xItem.34, xItem.33,
 465 0206 3B61     		str	r3, [r7, #16]	@ xItem.34, xItem
 466              	.L20:
 264:Common/Minimal/blocktim.c **** 		for( xItem = 0; xItem < bktQUEUE_LENGTH; xItem++ )
 467              		.loc 1 264 0 is_stmt 0 discriminator 1
 468 0208 3B69     		ldr	r3, [r7, #16]	@ xItem.35, xItem
 469 020a 042B     		cmp	r3, #4	@ xItem.35,
 470 020c B4DD     		ble	.L25	@,
 302:Common/Minimal/blocktim.c **** 		}
 303:Common/Minimal/blocktim.c **** 
 304:Common/Minimal/blocktim.c **** 		/* Let the other task timeout.  When it unblockes it will check that it
 305:Common/Minimal/blocktim.c **** 		unblocked at the correct time, then suspend itself. */
 306:Common/Minimal/blocktim.c **** 		while( xRunIndicator != bktRUN_INDICATOR )
 471              		.loc 1 306 0 is_stmt 1
 472 020e 03E0     		b	.L26	@
 473              	.L27:
 307:Common/Minimal/blocktim.c **** 		{
 308:Common/Minimal/blocktim.c **** 			vTaskDelay( bktSHORT_WAIT );
 474              		.loc 1 308 0
 475 0210 4FF01400 		mov	r0, #20	@,
 476 0214 FFF7FEFF 		bl	vTaskDelay	@
 477              	.L26:
 306:Common/Minimal/blocktim.c **** 		while( xRunIndicator != bktRUN_INDICATOR )
 478              		.loc 1 306 0 discriminator 1
ARM GAS  C:\Users\Grzybek\AppData\Local\Temp\ccnX3gZj.s 			page 15


 479 0218 234B     		ldr	r3, .L42+8	@ tmp252,
 480 021a 1B68     		ldr	r3, [r3, #0]	@ xRunIndicator.36, xRunIndicator
 481 021c 552B     		cmp	r3, #85	@ xRunIndicator.36,
 482 021e F7D1     		bne	.L27	@,
 309:Common/Minimal/blocktim.c **** 		}
 310:Common/Minimal/blocktim.c **** 		vTaskDelay( bktSHORT_WAIT );
 483              		.loc 1 310 0
 484 0220 4FF01400 		mov	r0, #20	@,
 485 0224 FFF7FEFF 		bl	vTaskDelay	@
 311:Common/Minimal/blocktim.c **** 		xRunIndicator = 0;
 486              		.loc 1 311 0
 487 0228 1F4B     		ldr	r3, .L42+8	@ tmp253,
 488 022a 4FF00002 		mov	r2, #0	@ tmp254,
 489 022e 1A60     		str	r2, [r3, #0]	@ tmp254, xRunIndicator
 312:Common/Minimal/blocktim.c **** 
 313:Common/Minimal/blocktim.c **** 
 314:Common/Minimal/blocktim.c **** 		/*********************************************************************
 315:Common/Minimal/blocktim.c ****         Test 4
 316:Common/Minimal/blocktim.c **** 
 317:Common/Minimal/blocktim.c **** 		As per test 3 - but with the send and receive the other way around.
 318:Common/Minimal/blocktim.c **** 		The other task blocks attempting to read from the queue.
 319:Common/Minimal/blocktim.c **** 
 320:Common/Minimal/blocktim.c **** 		Empty the queue.  We should find that it is full. */
 321:Common/Minimal/blocktim.c **** 		for( xItem = 0; xItem < bktQUEUE_LENGTH; xItem++ )
 490              		.loc 1 321 0
 491 0230 4FF00003 		mov	r3, #0	@ tmp255,
 492 0234 3B61     		str	r3, [r7, #16]	@ tmp255, xItem
 493 0236 16E0     		b	.L28	@
 494              	.L30:
 322:Common/Minimal/blocktim.c **** 		{
 323:Common/Minimal/blocktim.c **** 			if( xQueueReceive( xTestQueue, &xData, bktDONT_BLOCK ) != pdPASS )
 495              		.loc 1 323 0
 496 0238 194B     		ldr	r3, .L42	@ tmp256,
 497 023a 1A68     		ldr	r2, [r3, #0]	@ xTestQueue.37, xTestQueue
 498 023c 07F10C03 		add	r3, r7, #12	@ tmp257,,
 499 0240 1046     		mov	r0, r2	@, xTestQueue.37
 500 0242 1946     		mov	r1, r3	@, tmp257
 501 0244 4FF00002 		mov	r2, #0	@,
 502 0248 4FF00003 		mov	r3, #0	@,
 503 024c FFF7FEFF 		bl	xQueueGenericReceive	@
 504 0250 0346     		mov	r3, r0	@ D.4488,
 505 0252 012B     		cmp	r3, #1	@ D.4488,
 506 0254 03D0     		beq	.L29	@,
 324:Common/Minimal/blocktim.c **** 			{
 325:Common/Minimal/blocktim.c **** 				xErrorOccurred = pdTRUE;
 507              		.loc 1 325 0
 508 0256 134B     		ldr	r3, .L42+4	@ tmp258,
 509 0258 4FF00102 		mov	r2, #1	@ tmp259,
 510 025c 1A60     		str	r2, [r3, #0]	@ tmp259, xErrorOccurred
 511              	.L29:
 321:Common/Minimal/blocktim.c **** 		for( xItem = 0; xItem < bktQUEUE_LENGTH; xItem++ )
 512              		.loc 1 321 0
 513 025e 3B69     		ldr	r3, [r7, #16]	@ xItem.38, xItem
 514 0260 03F10103 		add	r3, r3, #1	@ xItem.39, xItem.38,
 515 0264 3B61     		str	r3, [r7, #16]	@ xItem.39, xItem
 516              	.L28:
 321:Common/Minimal/blocktim.c **** 		for( xItem = 0; xItem < bktQUEUE_LENGTH; xItem++ )
ARM GAS  C:\Users\Grzybek\AppData\Local\Temp\ccnX3gZj.s 			page 16


 517              		.loc 1 321 0 is_stmt 0 discriminator 1
 518 0266 3B69     		ldr	r3, [r7, #16]	@ xItem.40, xItem
 519 0268 042B     		cmp	r3, #4	@ xItem.40,
 520 026a E5DD     		ble	.L30	@,
 326:Common/Minimal/blocktim.c **** 			}
 327:Common/Minimal/blocktim.c **** 		}
 328:Common/Minimal/blocktim.c **** 
 329:Common/Minimal/blocktim.c **** 		/* Wake the other task so it blocks attempting to read from  the
 330:Common/Minimal/blocktim.c **** 		already	empty queue. */
 331:Common/Minimal/blocktim.c **** 		vTaskResume( xSecondary );
 521              		.loc 1 331 0 is_stmt 1
 522 026c 0F4B     		ldr	r3, .L42+12	@ tmp260,
 523 026e 1B68     		ldr	r3, [r3, #0]	@ xSecondary.41, xSecondary
 524 0270 1846     		mov	r0, r3	@, xSecondary.41
 525 0272 FFF7FEFF 		bl	vTaskResume	@
 332:Common/Minimal/blocktim.c **** 
 333:Common/Minimal/blocktim.c **** 		/* We need to wait a little to ensure the other task executes. */
 334:Common/Minimal/blocktim.c **** 		while( xRunIndicator != bktRUN_INDICATOR )
 526              		.loc 1 334 0
 527 0276 03E0     		b	.L31	@
 528              	.L32:
 335:Common/Minimal/blocktim.c **** 		{
 336:Common/Minimal/blocktim.c **** 			vTaskDelay( bktSHORT_WAIT );
 529              		.loc 1 336 0
 530 0278 4FF01400 		mov	r0, #20	@,
 531 027c FFF7FEFF 		bl	vTaskDelay	@
 532              	.L31:
 334:Common/Minimal/blocktim.c **** 		while( xRunIndicator != bktRUN_INDICATOR )
 533              		.loc 1 334 0 discriminator 1
 534 0280 094B     		ldr	r3, .L42+8	@ tmp261,
 535 0282 1B68     		ldr	r3, [r3, #0]	@ xRunIndicator.42, xRunIndicator
 536 0284 552B     		cmp	r3, #85	@ xRunIndicator.42,
 537 0286 F7D1     		bne	.L32	@,
 337:Common/Minimal/blocktim.c **** 		}
 338:Common/Minimal/blocktim.c **** 		vTaskDelay( bktSHORT_WAIT );
 538              		.loc 1 338 0
 539 0288 4FF01400 		mov	r0, #20	@,
 540 028c FFF7FEFF 		bl	vTaskDelay	@
 339:Common/Minimal/blocktim.c **** 		xRunIndicator = 0;
 541              		.loc 1 339 0
 542 0290 054B     		ldr	r3, .L42+8	@ tmp262,
 543 0292 4FF00002 		mov	r2, #0	@ tmp263,
 544 0296 1A60     		str	r2, [r3, #0]	@ tmp263, xRunIndicator
 340:Common/Minimal/blocktim.c **** 
 341:Common/Minimal/blocktim.c **** 		for( xItem = 0; xItem < bktQUEUE_LENGTH; xItem++ )
 545              		.loc 1 341 0
 546 0298 4FF00003 		mov	r3, #0	@ tmp264,
 547 029c 3B61     		str	r3, [r7, #16]	@ tmp264, xItem
 548 029e 4FE0     		b	.L33	@
 549              	.L43:
 550              		.align	2
 551              	.L42:
 552 02a0 00000000 		.word	xTestQueue
 553 02a4 00000000 		.word	xErrorOccurred
 554 02a8 00000000 		.word	xRunIndicator
 555 02ac 00000000 		.word	xSecondary
 556              	.L38:
ARM GAS  C:\Users\Grzybek\AppData\Local\Temp\ccnX3gZj.s 			page 17


 342:Common/Minimal/blocktim.c **** 		{
 343:Common/Minimal/blocktim.c **** 			/* Now when we place an item on the queue the other task should
 344:Common/Minimal/blocktim.c **** 			wake but not execute as this task has higher priority. */
 345:Common/Minimal/blocktim.c **** 			if( xQueueSend( xTestQueue, &xItem, bktDONT_BLOCK ) != pdPASS )
 557              		.loc 1 345 0
 558 02b0 2F4B     		ldr	r3, .L44	@ tmp265,
 559 02b2 1A68     		ldr	r2, [r3, #0]	@ xTestQueue.43, xTestQueue
 560 02b4 07F11003 		add	r3, r7, #16	@ tmp266,,
 561 02b8 1046     		mov	r0, r2	@, xTestQueue.43
 562 02ba 1946     		mov	r1, r3	@, tmp266
 563 02bc 4FF00002 		mov	r2, #0	@,
 564 02c0 4FF00003 		mov	r3, #0	@,
 565 02c4 FFF7FEFF 		bl	xQueueGenericSend	@
 566 02c8 0346     		mov	r3, r0	@ D.4497,
 567 02ca 012B     		cmp	r3, #1	@ D.4497,
 568 02cc 03D0     		beq	.L34	@,
 346:Common/Minimal/blocktim.c **** 			{
 347:Common/Minimal/blocktim.c **** 				xErrorOccurred = pdTRUE;
 569              		.loc 1 347 0
 570 02ce 294B     		ldr	r3, .L44+4	@ tmp267,
 571 02d0 4FF00102 		mov	r2, #1	@ tmp268,
 572 02d4 1A60     		str	r2, [r3, #0]	@ tmp268, xErrorOccurred
 573              	.L34:
 348:Common/Minimal/blocktim.c **** 			}
 349:Common/Minimal/blocktim.c **** 
 350:Common/Minimal/blocktim.c **** 			/* Now empty the queue again before the other task gets a chance to
 351:Common/Minimal/blocktim.c **** 			execute.  If the other task had executed we would find the queue
 352:Common/Minimal/blocktim.c **** 			empty ourselves, and the other task would be suspended. */
 353:Common/Minimal/blocktim.c **** 			if( xQueueReceive( xTestQueue, &xData, bktDONT_BLOCK ) != pdPASS )
 574              		.loc 1 353 0
 575 02d6 264B     		ldr	r3, .L44	@ tmp269,
 576 02d8 1A68     		ldr	r2, [r3, #0]	@ xTestQueue.44, xTestQueue
 577 02da 07F10C03 		add	r3, r7, #12	@ tmp270,,
 578 02de 1046     		mov	r0, r2	@, xTestQueue.44
 579 02e0 1946     		mov	r1, r3	@, tmp270
 580 02e2 4FF00002 		mov	r2, #0	@,
 581 02e6 4FF00003 		mov	r3, #0	@,
 582 02ea FFF7FEFF 		bl	xQueueGenericReceive	@
 583 02ee 0346     		mov	r3, r0	@ D.4501,
 584 02f0 012B     		cmp	r3, #1	@ D.4501,
 585 02f2 03D0     		beq	.L35	@,
 354:Common/Minimal/blocktim.c **** 			{
 355:Common/Minimal/blocktim.c **** 				xErrorOccurred = pdTRUE;
 586              		.loc 1 355 0
 587 02f4 1F4B     		ldr	r3, .L44+4	@ tmp271,
 588 02f6 4FF00102 		mov	r2, #1	@ tmp272,
 589 02fa 1A60     		str	r2, [r3, #0]	@ tmp272, xErrorOccurred
 590              	.L35:
 356:Common/Minimal/blocktim.c **** 			}
 357:Common/Minimal/blocktim.c **** 
 358:Common/Minimal/blocktim.c **** 			if( xRunIndicator == bktRUN_INDICATOR )
 591              		.loc 1 358 0
 592 02fc 1E4B     		ldr	r3, .L44+8	@ tmp273,
 593 02fe 1B68     		ldr	r3, [r3, #0]	@ xRunIndicator.45, xRunIndicator
 594 0300 552B     		cmp	r3, #85	@ xRunIndicator.45,
 595 0302 03D1     		bne	.L36	@,
 359:Common/Minimal/blocktim.c **** 			{
ARM GAS  C:\Users\Grzybek\AppData\Local\Temp\ccnX3gZj.s 			page 18


 360:Common/Minimal/blocktim.c **** 				/* The other task should not have executed. */
 361:Common/Minimal/blocktim.c **** 				xErrorOccurred = pdTRUE;
 596              		.loc 1 361 0
 597 0304 1B4B     		ldr	r3, .L44+4	@ tmp274,
 598 0306 4FF00102 		mov	r2, #1	@ tmp275,
 599 030a 1A60     		str	r2, [r3, #0]	@ tmp275, xErrorOccurred
 600              	.L36:
 362:Common/Minimal/blocktim.c **** 			}
 363:Common/Minimal/blocktim.c **** 
 364:Common/Minimal/blocktim.c **** 			/* Raise the priority of the other task so it executes and blocks
 365:Common/Minimal/blocktim.c **** 			on the queue again. */
 366:Common/Minimal/blocktim.c **** 			vTaskPrioritySet( xSecondary, bktPRIMARY_PRIORITY + 2 );
 601              		.loc 1 366 0
 602 030c 1B4B     		ldr	r3, .L44+12	@ tmp276,
 603 030e 1B68     		ldr	r3, [r3, #0]	@ xSecondary.46, xSecondary
 604 0310 1846     		mov	r0, r3	@, xSecondary.46
 605 0312 4FF00401 		mov	r1, #4	@,
 606 0316 FFF7FEFF 		bl	vTaskPrioritySet	@
 367:Common/Minimal/blocktim.c **** 
 368:Common/Minimal/blocktim.c **** 			/* The other task should now have re-blocked without exiting the
 369:Common/Minimal/blocktim.c **** 			queue function. */
 370:Common/Minimal/blocktim.c **** 			if( xRunIndicator == bktRUN_INDICATOR )
 607              		.loc 1 370 0
 608 031a 174B     		ldr	r3, .L44+8	@ tmp277,
 609 031c 1B68     		ldr	r3, [r3, #0]	@ xRunIndicator.47, xRunIndicator
 610 031e 552B     		cmp	r3, #85	@ xRunIndicator.47,
 611 0320 03D1     		bne	.L37	@,
 371:Common/Minimal/blocktim.c **** 			{
 372:Common/Minimal/blocktim.c **** 				/* The other task should not have executed outside of the
 373:Common/Minimal/blocktim.c **** 				queue function. */
 374:Common/Minimal/blocktim.c **** 				xErrorOccurred = pdTRUE;
 612              		.loc 1 374 0
 613 0322 144B     		ldr	r3, .L44+4	@ tmp278,
 614 0324 4FF00102 		mov	r2, #1	@ tmp279,
 615 0328 1A60     		str	r2, [r3, #0]	@ tmp279, xErrorOccurred
 616              	.L37:
 375:Common/Minimal/blocktim.c **** 			}
 376:Common/Minimal/blocktim.c **** 			vTaskPrioritySet( xSecondary, bktSECONDARY_PRIORITY );
 617              		.loc 1 376 0
 618 032a 144B     		ldr	r3, .L44+12	@ tmp280,
 619 032c 1B68     		ldr	r3, [r3, #0]	@ xSecondary.48, xSecondary
 620 032e 1846     		mov	r0, r3	@, xSecondary.48
 621 0330 4FF00101 		mov	r1, #1	@,
 622 0334 FFF7FEFF 		bl	vTaskPrioritySet	@
 341:Common/Minimal/blocktim.c **** 		for( xItem = 0; xItem < bktQUEUE_LENGTH; xItem++ )
 623              		.loc 1 341 0
 624 0338 3B69     		ldr	r3, [r7, #16]	@ xItem.49, xItem
 625 033a 03F10103 		add	r3, r3, #1	@ xItem.50, xItem.49,
 626 033e 3B61     		str	r3, [r7, #16]	@ xItem.50, xItem
 627              	.L33:
 341:Common/Minimal/blocktim.c **** 		for( xItem = 0; xItem < bktQUEUE_LENGTH; xItem++ )
 628              		.loc 1 341 0 is_stmt 0 discriminator 1
 629 0340 3B69     		ldr	r3, [r7, #16]	@ xItem.51, xItem
 630 0342 042B     		cmp	r3, #4	@ xItem.51,
 631 0344 B4DD     		ble	.L38	@,
 377:Common/Minimal/blocktim.c **** 		}
 378:Common/Minimal/blocktim.c **** 
ARM GAS  C:\Users\Grzybek\AppData\Local\Temp\ccnX3gZj.s 			page 19


 379:Common/Minimal/blocktim.c **** 		/* Let the other task timeout.  When it unblockes it will check that it
 380:Common/Minimal/blocktim.c **** 		unblocked at the correct time, then suspend itself. */
 381:Common/Minimal/blocktim.c **** 		while( xRunIndicator != bktRUN_INDICATOR )
 632              		.loc 1 381 0 is_stmt 1
 633 0346 03E0     		b	.L39	@
 634              	.L40:
 382:Common/Minimal/blocktim.c **** 		{
 383:Common/Minimal/blocktim.c **** 			vTaskDelay( bktSHORT_WAIT );
 635              		.loc 1 383 0
 636 0348 4FF01400 		mov	r0, #20	@,
 637 034c FFF7FEFF 		bl	vTaskDelay	@
 638              	.L39:
 381:Common/Minimal/blocktim.c **** 		while( xRunIndicator != bktRUN_INDICATOR )
 639              		.loc 1 381 0 discriminator 1
 640 0350 094B     		ldr	r3, .L44+8	@ tmp281,
 641 0352 1B68     		ldr	r3, [r3, #0]	@ xRunIndicator.52, xRunIndicator
 642 0354 552B     		cmp	r3, #85	@ xRunIndicator.52,
 643 0356 F7D1     		bne	.L40	@,
 384:Common/Minimal/blocktim.c **** 		}
 385:Common/Minimal/blocktim.c **** 		vTaskDelay( bktSHORT_WAIT );
 644              		.loc 1 385 0
 645 0358 4FF01400 		mov	r0, #20	@,
 646 035c FFF7FEFF 		bl	vTaskDelay	@
 386:Common/Minimal/blocktim.c **** 
 387:Common/Minimal/blocktim.c **** 		xPrimaryCycles++;
 647              		.loc 1 387 0
 648 0360 074B     		ldr	r3, .L44+16	@ tmp282,
 649 0362 1B68     		ldr	r3, [r3, #0]	@ xPrimaryCycles.53, xPrimaryCycles
 650 0364 03F10102 		add	r2, r3, #1	@ xPrimaryCycles.54, xPrimaryCycles.53,
 651 0368 054B     		ldr	r3, .L44+16	@ tmp283,
 652 036a 1A60     		str	r2, [r3, #0]	@ xPrimaryCycles.54, xPrimaryCycles
 388:Common/Minimal/blocktim.c **** 	}
 653              		.loc 1 388 0
 654 036c 4CE6     		b	.L41	@
 655              	.L45:
 656 036e 00BF     		.align	2
 657              	.L44:
 658 0370 00000000 		.word	xTestQueue
 659 0374 00000000 		.word	xErrorOccurred
 660 0378 00000000 		.word	xRunIndicator
 661 037c 00000000 		.word	xSecondary
 662 0380 00000000 		.word	xPrimaryCycles
 663              		.cfi_endproc
 664              	.LFE1:
 665              		.size	vPrimaryBlockTimeTestTask, .-vPrimaryBlockTimeTestTask
 666              		.section	.text.vSecondaryBlockTimeTestTask,"ax",%progbits
 667              		.align	2
 668              		.thumb
 669              		.thumb_func
 670              		.type	vSecondaryBlockTimeTestTask, %function
 671              	vSecondaryBlockTimeTestTask:
 672              	.LFB2:
 389:Common/Minimal/blocktim.c **** }
 390:Common/Minimal/blocktim.c **** /*-----------------------------------------------------------*/
 391:Common/Minimal/blocktim.c **** 
 392:Common/Minimal/blocktim.c **** static void vSecondaryBlockTimeTestTask( void *pvParameters )
 393:Common/Minimal/blocktim.c **** {
ARM GAS  C:\Users\Grzybek\AppData\Local\Temp\ccnX3gZj.s 			page 20


 673              		.loc 1 393 0
 674              		.cfi_startproc
 675              		@ args = 0, pretend = 0, frame = 24
 676              		@ frame_needed = 1, uses_anonymous_args = 0
 677 0000 80B5     		push	{r7, lr}	@
 678              	.LCFI6:
 679              		.cfi_def_cfa_offset 8
 680              		.cfi_offset 7, -8
 681              		.cfi_offset 14, -4
 682 0002 86B0     		sub	sp, sp, #24	@,,
 683              	.LCFI7:
 684              		.cfi_def_cfa_offset 32
 685 0004 00AF     		add	r7, sp, #0	@,,
 686              	.LCFI8:
 687              		.cfi_def_cfa_register 7
 688 0006 7860     		str	r0, [r7, #4]	@ pvParameters, pvParameters
 689              	.L53:
 394:Common/Minimal/blocktim.c **** portTickType xTimeWhenBlocking, xBlockedTime;
 395:Common/Minimal/blocktim.c **** portBASE_TYPE xData;
 396:Common/Minimal/blocktim.c **** 
 397:Common/Minimal/blocktim.c **** 	( void ) pvParameters;
 398:Common/Minimal/blocktim.c **** 
 399:Common/Minimal/blocktim.c **** 	for( ;; )
 400:Common/Minimal/blocktim.c **** 	{
 401:Common/Minimal/blocktim.c **** 		/*********************************************************************
 402:Common/Minimal/blocktim.c ****         Test 1 and 2
 403:Common/Minimal/blocktim.c **** 
 404:Common/Minimal/blocktim.c **** 		This task does does not participate in these tests. */
 405:Common/Minimal/blocktim.c **** 		vTaskSuspend( NULL );
 690              		.loc 1 405 0
 691 0008 4FF00000 		mov	r0, #0	@,
 692 000c FFF7FEFF 		bl	vTaskSuspend	@
 406:Common/Minimal/blocktim.c **** 
 407:Common/Minimal/blocktim.c **** 		/*********************************************************************
 408:Common/Minimal/blocktim.c ****         Test 3
 409:Common/Minimal/blocktim.c **** 
 410:Common/Minimal/blocktim.c **** 		The first thing we do is attempt to read from the queue.  It should be
 411:Common/Minimal/blocktim.c **** 		full so we block.  Note the time before we block so we can check the
 412:Common/Minimal/blocktim.c **** 		wake time is as per that expected. */
 413:Common/Minimal/blocktim.c **** 		xTimeWhenBlocking = xTaskGetTickCount();
 693              		.loc 1 413 0
 694 0010 FFF7FEFF 		bl	xTaskGetTickCount	@
 695 0014 7861     		str	r0, [r7, #20]	@, xTimeWhenBlocking
 414:Common/Minimal/blocktim.c **** 
 415:Common/Minimal/blocktim.c **** 		/* We should unblock after bktTIME_TO_BLOCK having not sent
 416:Common/Minimal/blocktim.c **** 		anything to the queue. */
 417:Common/Minimal/blocktim.c **** 		xData = 0;
 696              		.loc 1 417 0
 697 0016 4FF00003 		mov	r3, #0	@ tmp142,
 698 001a FB60     		str	r3, [r7, #12]	@ tmp142, xData
 418:Common/Minimal/blocktim.c **** 		xRunIndicator = bktRUN_INDICATOR;
 699              		.loc 1 418 0
 700 001c 354B     		ldr	r3, .L54	@ tmp143,
 701 001e 4FF05502 		mov	r2, #85	@ tmp144,
 702 0022 1A60     		str	r2, [r3, #0]	@ tmp144, xRunIndicator
 419:Common/Minimal/blocktim.c **** 		if( xQueueSend( xTestQueue, &xData, bktTIME_TO_BLOCK ) != errQUEUE_FULL )
 703              		.loc 1 419 0
ARM GAS  C:\Users\Grzybek\AppData\Local\Temp\ccnX3gZj.s 			page 21


 704 0024 344B     		ldr	r3, .L54+4	@ tmp145,
 705 0026 1A68     		ldr	r2, [r3, #0]	@ xTestQueue.7, xTestQueue
 706 0028 07F10C03 		add	r3, r7, #12	@ tmp146,,
 707 002c 1046     		mov	r0, r2	@, xTestQueue.7
 708 002e 1946     		mov	r1, r3	@, tmp146
 709 0030 4FF0AF02 		mov	r2, #175	@,
 710 0034 4FF00003 		mov	r3, #0	@,
 711 0038 FFF7FEFF 		bl	xQueueGenericSend	@
 712 003c 0346     		mov	r3, r0	@ D.4409,
 713 003e 002B     		cmp	r3, #0	@ D.4409,
 714 0040 03D0     		beq	.L47	@,
 420:Common/Minimal/blocktim.c **** 		{
 421:Common/Minimal/blocktim.c **** 			xErrorOccurred = pdTRUE;
 715              		.loc 1 421 0
 716 0042 2E4B     		ldr	r3, .L54+8	@ tmp147,
 717 0044 4FF00102 		mov	r2, #1	@ tmp148,
 718 0048 1A60     		str	r2, [r3, #0]	@ tmp148, xErrorOccurred
 719              	.L47:
 422:Common/Minimal/blocktim.c **** 		}
 423:Common/Minimal/blocktim.c **** 
 424:Common/Minimal/blocktim.c **** 		/* How long were we inside the send function? */
 425:Common/Minimal/blocktim.c **** 		xBlockedTime = xTaskGetTickCount() - xTimeWhenBlocking;
 720              		.loc 1 425 0
 721 004a FFF7FEFF 		bl	xTaskGetTickCount	@
 722 004e 0246     		mov	r2, r0	@ D.4412,
 723 0050 7B69     		ldr	r3, [r7, #20]	@ tmp150, xTimeWhenBlocking
 724 0052 D31A     		subs	r3, r2, r3	@ tmp149, D.4412, tmp150
 725 0054 3B61     		str	r3, [r7, #16]	@ tmp149, xBlockedTime
 426:Common/Minimal/blocktim.c **** 
 427:Common/Minimal/blocktim.c **** 		/* We should not have blocked for less time than bktTIME_TO_BLOCK. */
 428:Common/Minimal/blocktim.c **** 		if( xBlockedTime < bktTIME_TO_BLOCK )
 726              		.loc 1 428 0
 727 0056 3B69     		ldr	r3, [r7, #16]	@ tmp151, xBlockedTime
 728 0058 AE2B     		cmp	r3, #174	@ tmp151,
 729 005a 03D8     		bhi	.L48	@,
 429:Common/Minimal/blocktim.c **** 		{
 430:Common/Minimal/blocktim.c **** 			xErrorOccurred = pdTRUE;
 730              		.loc 1 430 0
 731 005c 274B     		ldr	r3, .L54+8	@ tmp152,
 732 005e 4FF00102 		mov	r2, #1	@ tmp153,
 733 0062 1A60     		str	r2, [r3, #0]	@ tmp153, xErrorOccurred
 734              	.L48:
 431:Common/Minimal/blocktim.c **** 		}
 432:Common/Minimal/blocktim.c **** 
 433:Common/Minimal/blocktim.c **** 		/* We should of not blocked for much longer than bktALLOWABLE_MARGIN
 434:Common/Minimal/blocktim.c **** 		either.  A margin is permitted as we would not necessarily run as
 435:Common/Minimal/blocktim.c **** 		soon as we unblocked. */
 436:Common/Minimal/blocktim.c **** 		if( xBlockedTime > ( bktTIME_TO_BLOCK + bktALLOWABLE_MARGIN ) )
 735              		.loc 1 436 0
 736 0064 3B69     		ldr	r3, [r7, #16]	@ tmp154, xBlockedTime
 737 0066 BE2B     		cmp	r3, #190	@ tmp154,
 738 0068 03D9     		bls	.L49	@,
 437:Common/Minimal/blocktim.c **** 		{
 438:Common/Minimal/blocktim.c **** 			xErrorOccurred = pdTRUE;
 739              		.loc 1 438 0
 740 006a 244B     		ldr	r3, .L54+8	@ tmp155,
 741 006c 4FF00102 		mov	r2, #1	@ tmp156,
ARM GAS  C:\Users\Grzybek\AppData\Local\Temp\ccnX3gZj.s 			page 22


 742 0070 1A60     		str	r2, [r3, #0]	@ tmp156, xErrorOccurred
 743              	.L49:
 439:Common/Minimal/blocktim.c **** 		}
 440:Common/Minimal/blocktim.c **** 
 441:Common/Minimal/blocktim.c **** 		/* Suspend ready for test 3. */
 442:Common/Minimal/blocktim.c **** 		xRunIndicator = bktRUN_INDICATOR;
 744              		.loc 1 442 0
 745 0072 204B     		ldr	r3, .L54	@ tmp157,
 746 0074 4FF05502 		mov	r2, #85	@ tmp158,
 747 0078 1A60     		str	r2, [r3, #0]	@ tmp158, xRunIndicator
 443:Common/Minimal/blocktim.c **** 		vTaskSuspend( NULL );
 748              		.loc 1 443 0
 749 007a 4FF00000 		mov	r0, #0	@,
 750 007e FFF7FEFF 		bl	vTaskSuspend	@
 444:Common/Minimal/blocktim.c **** 
 445:Common/Minimal/blocktim.c **** 		/*********************************************************************
 446:Common/Minimal/blocktim.c ****         Test 4
 447:Common/Minimal/blocktim.c **** 
 448:Common/Minimal/blocktim.c **** 		As per test three, but with the send and receive reversed. */
 449:Common/Minimal/blocktim.c **** 		xTimeWhenBlocking = xTaskGetTickCount();
 751              		.loc 1 449 0
 752 0082 FFF7FEFF 		bl	xTaskGetTickCount	@
 753 0086 7861     		str	r0, [r7, #20]	@, xTimeWhenBlocking
 450:Common/Minimal/blocktim.c **** 
 451:Common/Minimal/blocktim.c **** 		/* We should unblock after bktTIME_TO_BLOCK having not received
 452:Common/Minimal/blocktim.c **** 		anything on the queue. */
 453:Common/Minimal/blocktim.c **** 		xRunIndicator = bktRUN_INDICATOR;
 754              		.loc 1 453 0
 755 0088 1A4B     		ldr	r3, .L54	@ tmp159,
 756 008a 4FF05502 		mov	r2, #85	@ tmp160,
 757 008e 1A60     		str	r2, [r3, #0]	@ tmp160, xRunIndicator
 454:Common/Minimal/blocktim.c **** 		if( xQueueReceive( xTestQueue, &xData, bktTIME_TO_BLOCK ) != errQUEUE_EMPTY )
 758              		.loc 1 454 0
 759 0090 194B     		ldr	r3, .L54+4	@ tmp161,
 760 0092 1A68     		ldr	r2, [r3, #0]	@ xTestQueue.8, xTestQueue
 761 0094 07F10C03 		add	r3, r7, #12	@ tmp162,,
 762 0098 1046     		mov	r0, r2	@, xTestQueue.8
 763 009a 1946     		mov	r1, r3	@, tmp162
 764 009c 4FF0AF02 		mov	r2, #175	@,
 765 00a0 4FF00003 		mov	r3, #0	@,
 766 00a4 FFF7FEFF 		bl	xQueueGenericReceive	@
 767 00a8 0346     		mov	r3, r0	@ D.4418,
 768 00aa 002B     		cmp	r3, #0	@ D.4418,
 769 00ac 03D0     		beq	.L50	@,
 455:Common/Minimal/blocktim.c **** 		{
 456:Common/Minimal/blocktim.c **** 			xErrorOccurred = pdTRUE;
 770              		.loc 1 456 0
 771 00ae 134B     		ldr	r3, .L54+8	@ tmp163,
 772 00b0 4FF00102 		mov	r2, #1	@ tmp164,
 773 00b4 1A60     		str	r2, [r3, #0]	@ tmp164, xErrorOccurred
 774              	.L50:
 457:Common/Minimal/blocktim.c **** 		}
 458:Common/Minimal/blocktim.c **** 
 459:Common/Minimal/blocktim.c **** 		xBlockedTime = xTaskGetTickCount() - xTimeWhenBlocking;
 775              		.loc 1 459 0
 776 00b6 FFF7FEFF 		bl	xTaskGetTickCount	@
 777 00ba 0246     		mov	r2, r0	@ D.4421,
ARM GAS  C:\Users\Grzybek\AppData\Local\Temp\ccnX3gZj.s 			page 23


 778 00bc 7B69     		ldr	r3, [r7, #20]	@ tmp166, xTimeWhenBlocking
 779 00be D31A     		subs	r3, r2, r3	@ tmp165, D.4421, tmp166
 780 00c0 3B61     		str	r3, [r7, #16]	@ tmp165, xBlockedTime
 460:Common/Minimal/blocktim.c **** 
 461:Common/Minimal/blocktim.c **** 		/* We should not have blocked for less time than bktTIME_TO_BLOCK. */
 462:Common/Minimal/blocktim.c **** 		if( xBlockedTime < bktTIME_TO_BLOCK )
 781              		.loc 1 462 0
 782 00c2 3B69     		ldr	r3, [r7, #16]	@ tmp167, xBlockedTime
 783 00c4 AE2B     		cmp	r3, #174	@ tmp167,
 784 00c6 03D8     		bhi	.L51	@,
 463:Common/Minimal/blocktim.c **** 		{
 464:Common/Minimal/blocktim.c **** 			xErrorOccurred = pdTRUE;
 785              		.loc 1 464 0
 786 00c8 0C4B     		ldr	r3, .L54+8	@ tmp168,
 787 00ca 4FF00102 		mov	r2, #1	@ tmp169,
 788 00ce 1A60     		str	r2, [r3, #0]	@ tmp169, xErrorOccurred
 789              	.L51:
 465:Common/Minimal/blocktim.c **** 		}
 466:Common/Minimal/blocktim.c **** 
 467:Common/Minimal/blocktim.c **** 		/* We should of not blocked for much longer than bktALLOWABLE_MARGIN
 468:Common/Minimal/blocktim.c **** 		either.  A margin is permitted as we would not necessarily run as soon
 469:Common/Minimal/blocktim.c **** 		as we unblocked. */
 470:Common/Minimal/blocktim.c **** 		if( xBlockedTime > ( bktTIME_TO_BLOCK + bktALLOWABLE_MARGIN ) )
 790              		.loc 1 470 0
 791 00d0 3B69     		ldr	r3, [r7, #16]	@ tmp170, xBlockedTime
 792 00d2 BE2B     		cmp	r3, #190	@ tmp170,
 793 00d4 03D9     		bls	.L52	@,
 471:Common/Minimal/blocktim.c **** 		{
 472:Common/Minimal/blocktim.c **** 			xErrorOccurred = pdTRUE;
 794              		.loc 1 472 0
 795 00d6 094B     		ldr	r3, .L54+8	@ tmp171,
 796 00d8 4FF00102 		mov	r2, #1	@ tmp172,
 797 00dc 1A60     		str	r2, [r3, #0]	@ tmp172, xErrorOccurred
 798              	.L52:
 473:Common/Minimal/blocktim.c **** 		}
 474:Common/Minimal/blocktim.c **** 
 475:Common/Minimal/blocktim.c **** 		xRunIndicator = bktRUN_INDICATOR;
 799              		.loc 1 475 0
 800 00de 054B     		ldr	r3, .L54	@ tmp173,
 801 00e0 4FF05502 		mov	r2, #85	@ tmp174,
 802 00e4 1A60     		str	r2, [r3, #0]	@ tmp174, xRunIndicator
 476:Common/Minimal/blocktim.c **** 
 477:Common/Minimal/blocktim.c **** 		xSecondaryCycles++;
 803              		.loc 1 477 0
 804 00e6 064B     		ldr	r3, .L54+12	@ tmp175,
 805 00e8 1B68     		ldr	r3, [r3, #0]	@ xSecondaryCycles.9, xSecondaryCycles
 806 00ea 03F10102 		add	r2, r3, #1	@ xSecondaryCycles.10, xSecondaryCycles.9,
 807 00ee 044B     		ldr	r3, .L54+12	@ tmp176,
 808 00f0 1A60     		str	r2, [r3, #0]	@ xSecondaryCycles.10, xSecondaryCycles
 478:Common/Minimal/blocktim.c **** 	}
 809              		.loc 1 478 0
 810 00f2 89E7     		b	.L53	@
 811              	.L55:
 812              		.align	2
 813              	.L54:
 814 00f4 00000000 		.word	xRunIndicator
 815 00f8 00000000 		.word	xTestQueue
ARM GAS  C:\Users\Grzybek\AppData\Local\Temp\ccnX3gZj.s 			page 24


 816 00fc 00000000 		.word	xErrorOccurred
 817 0100 00000000 		.word	xSecondaryCycles
 818              		.cfi_endproc
 819              	.LFE2:
 820              		.size	vSecondaryBlockTimeTestTask, .-vSecondaryBlockTimeTestTask
 821              		.section	.text.xAreBlockTimeTestTasksStillRunning,"ax",%progbits
 822              		.align	2
 823              		.global	xAreBlockTimeTestTasksStillRunning
 824              		.thumb
 825              		.thumb_func
 826              		.type	xAreBlockTimeTestTasksStillRunning, %function
 827              	xAreBlockTimeTestTasksStillRunning:
 828              	.LFB3:
 479:Common/Minimal/blocktim.c **** }
 480:Common/Minimal/blocktim.c **** /*-----------------------------------------------------------*/
 481:Common/Minimal/blocktim.c **** 
 482:Common/Minimal/blocktim.c **** portBASE_TYPE xAreBlockTimeTestTasksStillRunning( void )
 483:Common/Minimal/blocktim.c **** {
 829              		.loc 1 483 0
 830              		.cfi_startproc
 831              		@ args = 0, pretend = 0, frame = 8
 832              		@ frame_needed = 1, uses_anonymous_args = 0
 833              		@ link register save eliminated.
 834 0000 80B4     		push	{r7}	@
 835              	.LCFI9:
 836              		.cfi_def_cfa_offset 4
 837              		.cfi_offset 7, -4
 838 0002 83B0     		sub	sp, sp, #12	@,,
 839              	.LCFI10:
 840              		.cfi_def_cfa_offset 16
 841 0004 00AF     		add	r7, sp, #0	@,,
 842              	.LCFI11:
 843              		.cfi_def_cfa_register 7
 484:Common/Minimal/blocktim.c **** static portBASE_TYPE xLastPrimaryCycleCount = 0, xLastSecondaryCycleCount = 0;
 485:Common/Minimal/blocktim.c **** portBASE_TYPE xReturn = pdPASS;
 844              		.loc 1 485 0
 845 0006 4FF00103 		mov	r3, #1	@ tmp143,
 846 000a 7B60     		str	r3, [r7, #4]	@ tmp143, xReturn
 486:Common/Minimal/blocktim.c **** 
 487:Common/Minimal/blocktim.c **** 	/* Have both tasks performed at least one cycle since this function was
 488:Common/Minimal/blocktim.c **** 	last called? */
 489:Common/Minimal/blocktim.c **** 	if( xPrimaryCycles == xLastPrimaryCycleCount )
 847              		.loc 1 489 0
 848 000c 134B     		ldr	r3, .L61	@ tmp144,
 849 000e 1A68     		ldr	r2, [r3, #0]	@ xPrimaryCycles.0, xPrimaryCycles
 850 0010 134B     		ldr	r3, .L61+4	@ tmp145,
 851 0012 1B68     		ldr	r3, [r3, #0]	@ xLastPrimaryCycleCount.1, xLastPrimaryCycleCount
 852 0014 9A42     		cmp	r2, r3	@ xPrimaryCycles.0, xLastPrimaryCycleCount.1
 853 0016 02D1     		bne	.L57	@,
 490:Common/Minimal/blocktim.c **** 	{
 491:Common/Minimal/blocktim.c **** 		xReturn = pdFAIL;
 854              		.loc 1 491 0
 855 0018 4FF00003 		mov	r3, #0	@ tmp146,
 856 001c 7B60     		str	r3, [r7, #4]	@ tmp146, xReturn
 857              	.L57:
 492:Common/Minimal/blocktim.c **** 	}
 493:Common/Minimal/blocktim.c **** 
ARM GAS  C:\Users\Grzybek\AppData\Local\Temp\ccnX3gZj.s 			page 25


 494:Common/Minimal/blocktim.c **** 	if( xSecondaryCycles == xLastSecondaryCycleCount )
 858              		.loc 1 494 0
 859 001e 114B     		ldr	r3, .L61+8	@ tmp147,
 860 0020 1A68     		ldr	r2, [r3, #0]	@ xSecondaryCycles.2, xSecondaryCycles
 861 0022 114B     		ldr	r3, .L61+12	@ tmp148,
 862 0024 1B68     		ldr	r3, [r3, #0]	@ xLastSecondaryCycleCount.3, xLastSecondaryCycleCount
 863 0026 9A42     		cmp	r2, r3	@ xSecondaryCycles.2, xLastSecondaryCycleCount.3
 864 0028 02D1     		bne	.L58	@,
 495:Common/Minimal/blocktim.c **** 	{
 496:Common/Minimal/blocktim.c **** 		xReturn = pdFAIL;
 865              		.loc 1 496 0
 866 002a 4FF00003 		mov	r3, #0	@ tmp149,
 867 002e 7B60     		str	r3, [r7, #4]	@ tmp149, xReturn
 868              	.L58:
 497:Common/Minimal/blocktim.c **** 	}
 498:Common/Minimal/blocktim.c **** 
 499:Common/Minimal/blocktim.c **** 	if( xErrorOccurred == pdTRUE )
 869              		.loc 1 499 0
 870 0030 0E4B     		ldr	r3, .L61+16	@ tmp150,
 871 0032 1B68     		ldr	r3, [r3, #0]	@ xErrorOccurred.4, xErrorOccurred
 872 0034 012B     		cmp	r3, #1	@ xErrorOccurred.4,
 873 0036 02D1     		bne	.L59	@,
 500:Common/Minimal/blocktim.c **** 	{
 501:Common/Minimal/blocktim.c **** 		xReturn = pdFAIL;
 874              		.loc 1 501 0
 875 0038 4FF00003 		mov	r3, #0	@ tmp151,
 876 003c 7B60     		str	r3, [r7, #4]	@ tmp151, xReturn
 877              	.L59:
 502:Common/Minimal/blocktim.c **** 	}
 503:Common/Minimal/blocktim.c **** 
 504:Common/Minimal/blocktim.c **** 	xLastSecondaryCycleCount = xSecondaryCycles;
 878              		.loc 1 504 0
 879 003e 094B     		ldr	r3, .L61+8	@ tmp152,
 880 0040 1A68     		ldr	r2, [r3, #0]	@ xSecondaryCycles.5, xSecondaryCycles
 881 0042 094B     		ldr	r3, .L61+12	@ tmp153,
 882 0044 1A60     		str	r2, [r3, #0]	@ xSecondaryCycles.5, xLastSecondaryCycleCount
 505:Common/Minimal/blocktim.c **** 	xLastPrimaryCycleCount = xPrimaryCycles;
 883              		.loc 1 505 0
 884 0046 054B     		ldr	r3, .L61	@ tmp154,
 885 0048 1A68     		ldr	r2, [r3, #0]	@ xPrimaryCycles.6, xPrimaryCycles
 886 004a 054B     		ldr	r3, .L61+4	@ tmp155,
 887 004c 1A60     		str	r2, [r3, #0]	@ xPrimaryCycles.6, xLastPrimaryCycleCount
 506:Common/Minimal/blocktim.c **** 
 507:Common/Minimal/blocktim.c **** 	return xReturn;
 888              		.loc 1 507 0
 889 004e 7B68     		ldr	r3, [r7, #4]	@ D.4406, xReturn
 508:Common/Minimal/blocktim.c **** }
 890              		.loc 1 508 0
 891 0050 1846     		mov	r0, r3	@, <retval>
 892 0052 07F10C07 		add	r7, r7, #12	@,,
 893 0056 BD46     		mov	sp, r7
 894 0058 80BC     		pop	{r7}
 895 005a 7047     		bx	lr
 896              	.L62:
 897              		.align	2
 898              	.L61:
 899 005c 00000000 		.word	xPrimaryCycles
ARM GAS  C:\Users\Grzybek\AppData\Local\Temp\ccnX3gZj.s 			page 26


 900 0060 00000000 		.word	xLastPrimaryCycleCount.4387
 901 0064 00000000 		.word	xSecondaryCycles
 902 0068 00000000 		.word	xLastSecondaryCycleCount.4388
 903 006c 00000000 		.word	xErrorOccurred
 904              		.cfi_endproc
 905              	.LFE3:
 906              		.size	xAreBlockTimeTestTasksStillRunning, .-xAreBlockTimeTestTasksStillRunning
 907              		.section	.bss.xLastPrimaryCycleCount.4387,"aw",%nobits
 908              		.align	2
 909              		.type	xLastPrimaryCycleCount.4387, %object
 910              		.size	xLastPrimaryCycleCount.4387, 4
 911              	xLastPrimaryCycleCount.4387:
 912 0000 00000000 		.space	4
 913              		.section	.bss.xLastSecondaryCycleCount.4388,"aw",%nobits
 914              		.align	2
 915              		.type	xLastSecondaryCycleCount.4388, %object
 916              		.size	xLastSecondaryCycleCount.4388, 4
 917              	xLastSecondaryCycleCount.4388:
 918 0000 00000000 		.space	4
 919              		.text
 920              	.Letext0:
 921              		.file 2 "./Source/include/../../Source/portable/GCC/ARM_CM3/portmacro.h"
 922              		.file 3 "./Source/include/task.h"
 923              		.file 4 "./Source/include/queue.h"