ARM GAS  C:\Users\Grzybek\AppData\Local\Temp\ccAwBcvK.s 			page 1


   1              		.syntax unified
   2              		.cpu cortex-m3
   3              		.fpu softvfp
   4              		.eabi_attribute 20, 1	@ Tag_ABI_FP_denormal
   5              		.eabi_attribute 21, 1	@ Tag_ABI_FP_exceptions
   6              		.eabi_attribute 23, 3	@ Tag_ABI_FP_number_model
   7              		.eabi_attribute 24, 1	@ Tag_ABI_align8_needed
   8              		.eabi_attribute 25, 1	@ Tag_ABI_align8_preserved
   9              		.eabi_attribute 26, 1	@ Tag_ABI_enum_size
  10              		.eabi_attribute 30, 6	@ Tag_ABI_optimization_goals
  11              		.eabi_attribute 34, 1	@ Tag_CPU_unaligned_access
  12              		.eabi_attribute 18, 4	@ Tag_ABI_PCS_wchar_t
  13              		.file	"comtest.c"
  14              	@ GNU C (Sourcery CodeBench Lite 2012.09-63) version 4.7.2 (arm-none-eabi)
  15              	@	compiled by GNU C version 4.3.2, GMP version 5.0.5, MPFR version 3.1.1-p2, MPC version 1.0.1
  16              	@ GGC heuristics: --param ggc-min-expand=100 --param ggc-min-heapsize=131072
  17              	@ options passed:  -I . -I ./STCode -I ./Source/include
  18              	@ -I ./Source/portable/GCC/ARM_CM3 -I ./Common/include
  19              	@ -I ./Common/drivers/ST/STM32F10xFWLib/v3_2_0/Libraries/STM32F10x_StdPeriph_Driver/inc
  20              	@ -I ./Common/drivers/ST/STM32F10xFWLib/v3_2_0/Libraries/CMSIS/CM3/CoreSupport
  21              	@ -I ./Common/drivers/ST/STM32F10xFWLib/v3_2_0/Libraries/CMSIS/CM3/DeviceSupport/ST/STM32F10x
  22              	@ -imultilib thumb2
  23              	@ -iprefix c:\codesourcery\sourcery_codebench_lite_for_arm_eabi\bin\../lib/gcc/arm-none-eabi/4.7.2/
  24              	@ -isysroot c:\codesourcery\sourcery_codebench_lite_for_arm_eabi\bin\../arm-none-eabi
  25              	@ -D__USES_INITFINI__ -D STM32F10X_HD -D USE_STDPERIPH_DRIVER
  26              	@ -D VECT_TAB_FLASH -D GCC_ARMCM3 -D inline=
  27              	@ -D PACK_STRUCT_END=__attribute((packed))
  28              	@ -D ALIGN_STRUCT_END=__attribute((aligned(4)))
  29              	@ -D __CS_SOURCERYGXX_MAJ__=2012 -D __CS_SOURCERYGXX_MIN__=9
  30              	@ -D __CS_SOURCERYGXX_REV__=63 Common/Minimal/comtest.c -mthumb
  31              	@ -mcpu=cortex-m3 -auxbase-strip Debug/comtest.o -g3 -gdwarf-2 -O0
  32              	@ -std=gnu99 -ffunction-sections -fdata-sections -fmessage-length=0
  33              	@ -fverbose-asm
  34              	@ options enabled:  -fauto-inc-dec -fbranch-count-reg -fcommon
  35              	@ -fdata-sections -fdebug-types-section -fdelete-null-pointer-checks
  36              	@ -fdwarf2-cfi-asm -fearly-inlining -feliminate-unused-debug-types
  37              	@ -ffunction-cse -ffunction-sections -fgcse-lm -fgnu-runtime -fident
  38              	@ -finline-atomics -fira-share-save-slots -fira-share-spill-slots -fivopts
  39              	@ -fkeep-static-consts -fleading-underscore -fmath-errno
  40              	@ -fmerge-debug-strings -fmove-loop-invariants -fpeephole
  41              	@ -fprefetch-loop-arrays -freg-struct-return
  42              	@ -fsched-critical-path-heuristic -fsched-dep-count-heuristic
  43              	@ -fsched-group-heuristic -fsched-interblock -fsched-last-insn-heuristic
  44              	@ -fsched-rank-heuristic -fsched-spec -fsched-spec-insn-heuristic
  45              	@ -fsched-stalled-insns-dep -fshow-column -fsigned-zeros
  46              	@ -fsplit-ivs-in-unroller -fstrict-volatile-bitfields -ftrapping-math
  47              	@ -ftree-cselim -ftree-forwprop -ftree-loop-if-convert -ftree-loop-im
  48              	@ -ftree-loop-ivcanon -ftree-loop-optimize -ftree-parallelize-loops=
  49              	@ -ftree-phiprop -ftree-pta -ftree-reassoc -ftree-scev-cprop
  50              	@ -ftree-slp-vectorize -ftree-vect-loop-version -funit-at-a-time
  51              	@ -fverbose-asm -fzero-initialized-in-bss -mfix-cortex-m3-ldrd
  52              	@ -mlittle-endian -msched-prolog -mthumb -munaligned-access
  53              	@ -mvectorize-with-neon-quad
  54              	
  55              		.text
  56              	.Ltext0:
  57              		.cfi_sections	.debug_frame
ARM GAS  C:\Users\Grzybek\AppData\Local\Temp\ccAwBcvK.s 			page 2


  58              		.section	.bss.xPort,"aw",%nobits
  59              		.align	2
  60              		.type	xPort, %object
  61              		.size	xPort, 4
  62              	xPort:
  63 0000 00000000 		.space	4
  64              		.section	.bss.uxBaseLED,"aw",%nobits
  65              		.align	2
  66              		.type	uxBaseLED, %object
  67              		.size	uxBaseLED, 4
  68              	uxBaseLED:
  69 0000 00000000 		.space	4
  70              		.section	.bss.uxRxLoops,"aw",%nobits
  71              		.align	2
  72              		.type	uxRxLoops, %object
  73              		.size	uxRxLoops, 4
  74              	uxRxLoops:
  75 0000 00000000 		.space	4
  76              		.section	.rodata
  77              		.align	2
  78              	.LC0:
  79 0000 434F4D54 		.ascii	"COMTx\000"
  79      7800
  80 0006 0000     		.align	2
  81              	.LC1:
  82 0008 434F4D52 		.ascii	"COMRx\000"
  82      7800
  83 000e 0000     		.section	.text.vAltStartComTestTasks,"ax",%progbits
  84              		.align	2
  85              		.global	vAltStartComTestTasks
  86              		.thumb
  87              		.thumb_func
  88              		.type	vAltStartComTestTasks, %function
  89              	vAltStartComTestTasks:
  90              	.LFB0:
  91              		.file 1 "Common/Minimal/comtest.c"
   1:Common/Minimal/comtest.c **** /*
   2:Common/Minimal/comtest.c ****     FreeRTOS V7.3.0 - Copyright (C) 2012 Real Time Engineers Ltd.
   3:Common/Minimal/comtest.c **** 
   4:Common/Minimal/comtest.c ****     FEATURES AND PORTS ARE ADDED TO FREERTOS ALL THE TIME.  PLEASE VISIT 
   5:Common/Minimal/comtest.c ****     http://www.FreeRTOS.org TO ENSURE YOU ARE USING THE LATEST VERSION.
   6:Common/Minimal/comtest.c **** 
   7:Common/Minimal/comtest.c ****     ***************************************************************************
   8:Common/Minimal/comtest.c ****      *                                                                       *
   9:Common/Minimal/comtest.c ****      *    FreeRTOS tutorial books are available in pdf and paperback.        *
  10:Common/Minimal/comtest.c ****      *    Complete, revised, and edited pdf reference manuals are also       *
  11:Common/Minimal/comtest.c ****      *    available.                                                         *
  12:Common/Minimal/comtest.c ****      *                                                                       *
  13:Common/Minimal/comtest.c ****      *    Purchasing FreeRTOS documentation will not only help you, by       *
  14:Common/Minimal/comtest.c ****      *    ensuring you get running as quickly as possible and with an        *
  15:Common/Minimal/comtest.c ****      *    in-depth knowledge of how to use FreeRTOS, it will also help       *
  16:Common/Minimal/comtest.c ****      *    the FreeRTOS project to continue with its mission of providing     *
  17:Common/Minimal/comtest.c ****      *    professional grade, cross platform, de facto standard solutions    *
  18:Common/Minimal/comtest.c ****      *    for microcontrollers - completely free of charge!                  *
  19:Common/Minimal/comtest.c ****      *                                                                       *
  20:Common/Minimal/comtest.c ****      *    >>> See http://www.FreeRTOS.org/Documentation for details. <<<     *
  21:Common/Minimal/comtest.c ****      *                                                                       *
ARM GAS  C:\Users\Grzybek\AppData\Local\Temp\ccAwBcvK.s 			page 3


  22:Common/Minimal/comtest.c ****      *    Thank you for using FreeRTOS, and thank you for your support!      *
  23:Common/Minimal/comtest.c ****      *                                                                       *
  24:Common/Minimal/comtest.c ****     ***************************************************************************
  25:Common/Minimal/comtest.c **** 
  26:Common/Minimal/comtest.c **** 
  27:Common/Minimal/comtest.c ****     This file is part of the FreeRTOS distribution.
  28:Common/Minimal/comtest.c **** 
  29:Common/Minimal/comtest.c ****     FreeRTOS is free software; you can redistribute it and/or modify it under
  30:Common/Minimal/comtest.c ****     the terms of the GNU General Public License (version 2) as published by the
  31:Common/Minimal/comtest.c ****     Free Software Foundation AND MODIFIED BY the FreeRTOS exception.
  32:Common/Minimal/comtest.c ****     >>>NOTE<<< The modification to the GPL is included to allow you to
  33:Common/Minimal/comtest.c ****     distribute a combined work that includes FreeRTOS without being obliged to
  34:Common/Minimal/comtest.c ****     provide the source code for proprietary components outside of the FreeRTOS
  35:Common/Minimal/comtest.c ****     kernel.  FreeRTOS is distributed in the hope that it will be useful, but
  36:Common/Minimal/comtest.c ****     WITHOUT ANY WARRANTY; without even the implied warranty of MERCHANTABILITY
  37:Common/Minimal/comtest.c ****     or FITNESS FOR A PARTICULAR PURPOSE.  See the GNU General Public License for
  38:Common/Minimal/comtest.c ****     more details. You should have received a copy of the GNU General Public
  39:Common/Minimal/comtest.c ****     License and the FreeRTOS license exception along with FreeRTOS; if not it
  40:Common/Minimal/comtest.c ****     can be viewed here: http://www.freertos.org/a00114.html and also obtained
  41:Common/Minimal/comtest.c ****     by writing to Richard Barry, contact details for whom are available on the
  42:Common/Minimal/comtest.c ****     FreeRTOS WEB site.
  43:Common/Minimal/comtest.c **** 
  44:Common/Minimal/comtest.c ****     1 tab == 4 spaces!
  45:Common/Minimal/comtest.c ****     
  46:Common/Minimal/comtest.c ****     ***************************************************************************
  47:Common/Minimal/comtest.c ****      *                                                                       *
  48:Common/Minimal/comtest.c ****      *    Having a problem?  Start by reading the FAQ "My application does   *
  49:Common/Minimal/comtest.c ****      *    not run, what could be wrong?"                                     *
  50:Common/Minimal/comtest.c ****      *                                                                       *
  51:Common/Minimal/comtest.c ****      *    http://www.FreeRTOS.org/FAQHelp.html                               *
  52:Common/Minimal/comtest.c ****      *                                                                       *
  53:Common/Minimal/comtest.c ****     ***************************************************************************
  54:Common/Minimal/comtest.c **** 
  55:Common/Minimal/comtest.c ****     
  56:Common/Minimal/comtest.c ****     http://www.FreeRTOS.org - Documentation, training, latest versions, license 
  57:Common/Minimal/comtest.c ****     and contact details.  
  58:Common/Minimal/comtest.c ****     
  59:Common/Minimal/comtest.c ****     http://www.FreeRTOS.org/plus - A selection of FreeRTOS ecosystem products,
  60:Common/Minimal/comtest.c ****     including FreeRTOS+Trace - an indispensable productivity tool.
  61:Common/Minimal/comtest.c **** 
  62:Common/Minimal/comtest.c ****     Real Time Engineers ltd license FreeRTOS to High Integrity Systems, who sell 
  63:Common/Minimal/comtest.c ****     the code with commercial support, indemnification, and middleware, under 
  64:Common/Minimal/comtest.c ****     the OpenRTOS brand: http://www.OpenRTOS.com.  High Integrity Systems also
  65:Common/Minimal/comtest.c ****     provide a safety engineered and independently SIL3 certified version under 
  66:Common/Minimal/comtest.c ****     the SafeRTOS brand: http://www.SafeRTOS.com.
  67:Common/Minimal/comtest.c **** */
  68:Common/Minimal/comtest.c **** 
  69:Common/Minimal/comtest.c **** 
  70:Common/Minimal/comtest.c **** /*
  71:Common/Minimal/comtest.c ****  * This version of comtest. c is for use on systems that have limited stack
  72:Common/Minimal/comtest.c ****  * space and no display facilities.  The complete version can be found in
  73:Common/Minimal/comtest.c ****  * the Demo/Common/Full directory.
  74:Common/Minimal/comtest.c ****  *
  75:Common/Minimal/comtest.c ****  * Creates two tasks that operate on an interrupt driven serial port.  A
  76:Common/Minimal/comtest.c ****  * loopback connector should be used so that everything that is transmitted is
  77:Common/Minimal/comtest.c ****  * also received.  The serial port does not use any flow control.  On a
  78:Common/Minimal/comtest.c ****  * standard 9way 'D' connector pins two and three should be connected together.
ARM GAS  C:\Users\Grzybek\AppData\Local\Temp\ccAwBcvK.s 			page 4


  79:Common/Minimal/comtest.c ****  *
  80:Common/Minimal/comtest.c ****  * The first task posts a sequence of characters to the Tx queue, toggling an
  81:Common/Minimal/comtest.c ****  * LED on each successful post.  At the end of the sequence it sleeps for a
  82:Common/Minimal/comtest.c ****  * pseudo-random period before resending the same sequence.
  83:Common/Minimal/comtest.c ****  *
  84:Common/Minimal/comtest.c ****  * The UART Tx end interrupt is enabled whenever data is available in the Tx
  85:Common/Minimal/comtest.c ****  * queue.  The Tx end ISR removes a single character from the Tx queue and
  86:Common/Minimal/comtest.c ****  * passes it to the UART for transmission.
  87:Common/Minimal/comtest.c ****  *
  88:Common/Minimal/comtest.c ****  * The second task blocks on the Rx queue waiting for a character to become
  89:Common/Minimal/comtest.c ****  * available.  When the UART Rx end interrupt receives a character it places
  90:Common/Minimal/comtest.c ****  * it in the Rx queue, waking the second task.  The second task checks that the
  91:Common/Minimal/comtest.c ****  * characters removed from the Rx queue form the same sequence as those posted
  92:Common/Minimal/comtest.c ****  * to the Tx queue, and toggles an LED for each correct character.
  93:Common/Minimal/comtest.c ****  *
  94:Common/Minimal/comtest.c ****  * The receiving task is spawned with a higher priority than the transmitting
  95:Common/Minimal/comtest.c ****  * task.  The receiver will therefore wake every time a character is
  96:Common/Minimal/comtest.c ****  * transmitted so neither the Tx or Rx queue should ever hold more than a few
  97:Common/Minimal/comtest.c ****  * characters.
  98:Common/Minimal/comtest.c ****  *
  99:Common/Minimal/comtest.c ****  */
 100:Common/Minimal/comtest.c **** 
 101:Common/Minimal/comtest.c **** /* Scheduler include files. */
 102:Common/Minimal/comtest.c **** #include <stdlib.h>
 103:Common/Minimal/comtest.c **** #include "FreeRTOS.h"
 104:Common/Minimal/comtest.c **** #include "task.h"
 105:Common/Minimal/comtest.c **** 
 106:Common/Minimal/comtest.c **** /* Demo program include files. */
 107:Common/Minimal/comtest.c **** #include "serial.h"
 108:Common/Minimal/comtest.c **** #include "comtest.h"
 109:Common/Minimal/comtest.c **** #include "partest.h"
 110:Common/Minimal/comtest.c **** 
 111:Common/Minimal/comtest.c **** #define comSTACK_SIZE				configMINIMAL_STACK_SIZE
 112:Common/Minimal/comtest.c **** #define comTX_LED_OFFSET			( 0 )
 113:Common/Minimal/comtest.c **** #define comRX_LED_OFFSET			( 1 )
 114:Common/Minimal/comtest.c **** #define comTOTAL_PERMISSIBLE_ERRORS ( 2 )
 115:Common/Minimal/comtest.c **** 
 116:Common/Minimal/comtest.c **** /* The Tx task will transmit the sequence of characters at a pseudo random
 117:Common/Minimal/comtest.c **** interval.  This is the maximum and minimum block time between sends. */
 118:Common/Minimal/comtest.c **** #define comTX_MAX_BLOCK_TIME		( ( portTickType ) 0x96 )
 119:Common/Minimal/comtest.c **** #define comTX_MIN_BLOCK_TIME		( ( portTickType ) 0x32 )
 120:Common/Minimal/comtest.c **** #define comOFFSET_TIME				( ( portTickType ) 3 )
 121:Common/Minimal/comtest.c **** 
 122:Common/Minimal/comtest.c **** /* We should find that each character can be queued for Tx immediately and we
 123:Common/Minimal/comtest.c **** don't have to block to send. */
 124:Common/Minimal/comtest.c **** #define comNO_BLOCK					( ( portTickType ) 0 )
 125:Common/Minimal/comtest.c **** 
 126:Common/Minimal/comtest.c **** /* The Rx task will block on the Rx queue for a long period. */
 127:Common/Minimal/comtest.c **** #define comRX_BLOCK_TIME			( ( portTickType ) 0xffff )
 128:Common/Minimal/comtest.c **** 
 129:Common/Minimal/comtest.c **** /* The sequence transmitted is from comFIRST_BYTE to and including comLAST_BYTE. */
 130:Common/Minimal/comtest.c **** #define comFIRST_BYTE				( 'A' )
 131:Common/Minimal/comtest.c **** #define comLAST_BYTE				( 'X' )
 132:Common/Minimal/comtest.c **** 
 133:Common/Minimal/comtest.c **** #define comBUFFER_LEN				( ( unsigned portBASE_TYPE ) ( comLAST_BYTE - comFIRST_BYTE ) + ( unsigned
 134:Common/Minimal/comtest.c **** #define comINITIAL_RX_COUNT_VALUE	( 0 )
 135:Common/Minimal/comtest.c **** 
ARM GAS  C:\Users\Grzybek\AppData\Local\Temp\ccAwBcvK.s 			page 5


 136:Common/Minimal/comtest.c **** /* Handle to the com port used by both tasks. */
 137:Common/Minimal/comtest.c **** static xComPortHandle xPort = NULL;
 138:Common/Minimal/comtest.c **** 
 139:Common/Minimal/comtest.c **** /* The transmit task as described at the top of the file. */
 140:Common/Minimal/comtest.c **** static portTASK_FUNCTION_PROTO( vComTxTask, pvParameters );
 141:Common/Minimal/comtest.c **** 
 142:Common/Minimal/comtest.c **** /* The receive task as described at the top of the file. */
 143:Common/Minimal/comtest.c **** static portTASK_FUNCTION_PROTO( vComRxTask, pvParameters );
 144:Common/Minimal/comtest.c **** 
 145:Common/Minimal/comtest.c **** /* The LED that should be toggled by the Rx and Tx tasks.  The Rx task will
 146:Common/Minimal/comtest.c **** toggle LED ( uxBaseLED + comRX_LED_OFFSET).  The Tx task will toggle LED
 147:Common/Minimal/comtest.c **** ( uxBaseLED + comTX_LED_OFFSET ). */
 148:Common/Minimal/comtest.c **** static unsigned portBASE_TYPE uxBaseLED = 0;
 149:Common/Minimal/comtest.c **** 
 150:Common/Minimal/comtest.c **** /* Check variable used to ensure no error have occurred.  The Rx task will
 151:Common/Minimal/comtest.c **** increment this variable after every successfully received sequence.  If at any
 152:Common/Minimal/comtest.c **** time the sequence is incorrect the the variable will stop being incremented. */
 153:Common/Minimal/comtest.c **** static volatile unsigned portBASE_TYPE uxRxLoops = comINITIAL_RX_COUNT_VALUE;
 154:Common/Minimal/comtest.c **** 
 155:Common/Minimal/comtest.c **** /*-----------------------------------------------------------*/
 156:Common/Minimal/comtest.c **** 
 157:Common/Minimal/comtest.c **** void vAltStartComTestTasks( unsigned portBASE_TYPE uxPriority, unsigned long ulBaudRate, unsigned p
 158:Common/Minimal/comtest.c **** {
  92              		.loc 1 158 0
  93              		.cfi_startproc
  94              		@ args = 0, pretend = 0, frame = 16
  95              		@ frame_needed = 1, uses_anonymous_args = 0
  96 0000 80B5     		push	{r7, lr}	@
  97              	.LCFI0:
  98              		.cfi_def_cfa_offset 8
  99              		.cfi_offset 7, -8
 100              		.cfi_offset 14, -4
 101 0002 88B0     		sub	sp, sp, #32	@,,
 102              	.LCFI1:
 103              		.cfi_def_cfa_offset 40
 104 0004 04AF     		add	r7, sp, #16	@,,
 105              	.LCFI2:
 106              		.cfi_def_cfa 7, 24
 107 0006 F860     		str	r0, [r7, #12]	@ uxPriority, uxPriority
 108 0008 B960     		str	r1, [r7, #8]	@ ulBaudRate, ulBaudRate
 109 000a 7A60     		str	r2, [r7, #4]	@ uxLED, uxLED
 159:Common/Minimal/comtest.c **** 	/* Initialise the com port then spawn the Rx and Tx tasks. */
 160:Common/Minimal/comtest.c **** 	uxBaseLED = uxLED;
 110              		.loc 1 160 0
 111 000c 194B     		ldr	r3, .L2	@ tmp135,
 112 000e 7A68     		ldr	r2, [r7, #4]	@ tmp136, uxLED
 113 0010 1A60     		str	r2, [r3, #0]	@ tmp136, uxBaseLED
 161:Common/Minimal/comtest.c **** 	xSerialPortInitMinimal( ulBaudRate, comBUFFER_LEN );
 114              		.loc 1 161 0
 115 0012 B868     		ldr	r0, [r7, #8]	@, ulBaudRate
 116 0014 4FF01801 		mov	r1, #24	@,
 117 0018 FFF7FEFF 		bl	xSerialPortInitMinimal	@
 162:Common/Minimal/comtest.c **** 
 163:Common/Minimal/comtest.c **** 	/* The Tx task is spawned with a lower priority than the Rx task. */
 164:Common/Minimal/comtest.c **** 	xTaskCreate( vComTxTask, ( signed char * ) "COMTx", comSTACK_SIZE, NULL, uxPriority - 1, ( xTaskHa
 118              		.loc 1 164 0
 119 001c FB68     		ldr	r3, [r7, #12]	@ tmp137, uxPriority
ARM GAS  C:\Users\Grzybek\AppData\Local\Temp\ccAwBcvK.s 			page 6


 120 001e 03F1FF33 		add	r3, r3, #-1	@ D.4992, tmp137,
 121 0022 0093     		str	r3, [sp, #0]	@ D.4992,
 122 0024 4FF00003 		mov	r3, #0	@ tmp138,
 123 0028 0193     		str	r3, [sp, #4]	@ tmp138,
 124 002a 4FF00003 		mov	r3, #0	@ tmp139,
 125 002e 0293     		str	r3, [sp, #8]	@ tmp139,
 126 0030 4FF00003 		mov	r3, #0	@ tmp140,
 127 0034 0393     		str	r3, [sp, #12]	@ tmp140,
 128 0036 1048     		ldr	r0, .L2+4	@,
 129 0038 1049     		ldr	r1, .L2+8	@,
 130 003a 4FF08002 		mov	r2, #128	@,
 131 003e 4FF00003 		mov	r3, #0	@,
 132 0042 FFF7FEFF 		bl	xTaskGenericCreate	@
 165:Common/Minimal/comtest.c **** 	xTaskCreate( vComRxTask, ( signed char * ) "COMRx", comSTACK_SIZE, NULL, uxPriority, ( xTaskHandle
 133              		.loc 1 165 0
 134 0046 FB68     		ldr	r3, [r7, #12]	@ tmp141, uxPriority
 135 0048 0093     		str	r3, [sp, #0]	@ tmp141,
 136 004a 4FF00003 		mov	r3, #0	@ tmp142,
 137 004e 0193     		str	r3, [sp, #4]	@ tmp142,
 138 0050 4FF00003 		mov	r3, #0	@ tmp143,
 139 0054 0293     		str	r3, [sp, #8]	@ tmp143,
 140 0056 4FF00003 		mov	r3, #0	@ tmp144,
 141 005a 0393     		str	r3, [sp, #12]	@ tmp144,
 142 005c 0848     		ldr	r0, .L2+12	@,
 143 005e 0949     		ldr	r1, .L2+16	@,
 144 0060 4FF08002 		mov	r2, #128	@,
 145 0064 4FF00003 		mov	r3, #0	@,
 146 0068 FFF7FEFF 		bl	xTaskGenericCreate	@
 166:Common/Minimal/comtest.c **** }
 147              		.loc 1 166 0
 148 006c 07F11007 		add	r7, r7, #16	@,,
 149 0070 BD46     		mov	sp, r7
 150 0072 80BD     		pop	{r7, pc}
 151              	.L3:
 152              		.align	2
 153              	.L2:
 154 0074 00000000 		.word	uxBaseLED
 155 0078 00000000 		.word	vComTxTask
 156 007c 00000000 		.word	.LC0
 157 0080 00000000 		.word	vComRxTask
 158 0084 08000000 		.word	.LC1
 159              		.cfi_endproc
 160              	.LFE0:
 161              		.size	vAltStartComTestTasks, .-vAltStartComTestTasks
 162              		.section	.text.vComTxTask,"ax",%progbits
 163              		.align	2
 164              		.thumb
 165              		.thumb_func
 166              		.type	vComTxTask, %function
 167              	vComTxTask:
 168              	.LFB1:
 167:Common/Minimal/comtest.c **** /*-----------------------------------------------------------*/
 168:Common/Minimal/comtest.c **** 
 169:Common/Minimal/comtest.c **** static portTASK_FUNCTION( vComTxTask, pvParameters )
 170:Common/Minimal/comtest.c **** {
 169              		.loc 1 170 0
 170              		.cfi_startproc
ARM GAS  C:\Users\Grzybek\AppData\Local\Temp\ccAwBcvK.s 			page 7


 171              		@ args = 0, pretend = 0, frame = 16
 172              		@ frame_needed = 1, uses_anonymous_args = 0
 173 0000 80B5     		push	{r7, lr}	@
 174              	.LCFI3:
 175              		.cfi_def_cfa_offset 8
 176              		.cfi_offset 7, -8
 177              		.cfi_offset 14, -4
 178 0002 84B0     		sub	sp, sp, #16	@,,
 179              	.LCFI4:
 180              		.cfi_def_cfa_offset 24
 181 0004 00AF     		add	r7, sp, #0	@,,
 182              	.LCFI5:
 183              		.cfi_def_cfa_register 7
 184 0006 7860     		str	r0, [r7, #4]	@ pvParameters, pvParameters
 185              	.L9:
 171:Common/Minimal/comtest.c **** signed char cByteToSend;
 172:Common/Minimal/comtest.c **** portTickType xTimeToWait;
 173:Common/Minimal/comtest.c **** 
 174:Common/Minimal/comtest.c **** 	/* Just to stop compiler warnings. */
 175:Common/Minimal/comtest.c **** 	( void ) pvParameters;
 176:Common/Minimal/comtest.c **** 
 177:Common/Minimal/comtest.c **** 	for( ;; )
 178:Common/Minimal/comtest.c **** 	{
 179:Common/Minimal/comtest.c **** 		/* Simply transmit a sequence of characters from comFIRST_BYTE to
 180:Common/Minimal/comtest.c **** 		comLAST_BYTE. */
 181:Common/Minimal/comtest.c **** 		for( cByteToSend = comFIRST_BYTE; cByteToSend <= comLAST_BYTE; cByteToSend++ )
 186              		.loc 1 181 0
 187 0008 4FF04103 		mov	r3, #65	@ tmp139,
 188 000c FB73     		strb	r3, [r7, #15]	@ tmp140, cByteToSend
 189 000e 15E0     		b	.L5	@
 190              	.L7:
 182:Common/Minimal/comtest.c **** 		{
 183:Common/Minimal/comtest.c **** 			if( xSerialPutChar( xPort, cByteToSend, comNO_BLOCK ) == pdPASS )
 191              		.loc 1 183 0
 192 0010 1E4B     		ldr	r3, .L10	@ tmp141,
 193 0012 1A68     		ldr	r2, [r3, #0]	@ xPort.9, xPort
 194 0014 97F90F30 		ldrsb	r3, [r7, #15]	@ tmp142, cByteToSend
 195 0018 1046     		mov	r0, r2	@, xPort.9
 196 001a 1946     		mov	r1, r3	@, tmp142
 197 001c 4FF00002 		mov	r2, #0	@,
 198 0020 FFF7FEFF 		bl	xSerialPutChar	@
 199 0024 0346     		mov	r3, r0	@ D.4984,
 200 0026 012B     		cmp	r3, #1	@ D.4984,
 201 0028 04D1     		bne	.L6	@,
 184:Common/Minimal/comtest.c **** 			{
 185:Common/Minimal/comtest.c **** 				vParTestToggleLED( uxBaseLED + comTX_LED_OFFSET );
 202              		.loc 1 185 0
 203 002a 194B     		ldr	r3, .L10+4	@ tmp143,
 204 002c 1B68     		ldr	r3, [r3, #0]	@ uxBaseLED.10, uxBaseLED
 205 002e 1846     		mov	r0, r3	@, uxBaseLED.10
 206 0030 FFF7FEFF 		bl	vParTestToggleLED	@
 207              	.L6:
 181:Common/Minimal/comtest.c **** 		for( cByteToSend = comFIRST_BYTE; cByteToSend <= comLAST_BYTE; cByteToSend++ )
 208              		.loc 1 181 0
 209 0034 FB7B     		ldrb	r3, [r7, #15]	@ tmp144, cByteToSend
 210 0036 03F10103 		add	r3, r3, #1	@ tmp145, tmp144,
 211 003a FB73     		strb	r3, [r7, #15]	@ tmp146, cByteToSend
ARM GAS  C:\Users\Grzybek\AppData\Local\Temp\ccAwBcvK.s 			page 8


 212              	.L5:
 181:Common/Minimal/comtest.c **** 		for( cByteToSend = comFIRST_BYTE; cByteToSend <= comLAST_BYTE; cByteToSend++ )
 213              		.loc 1 181 0 is_stmt 0 discriminator 1
 214 003c 97F90F30 		ldrsb	r3, [r7, #15]	@ tmp147, cByteToSend
 215 0040 582B     		cmp	r3, #88	@ tmp147,
 216 0042 E5DD     		ble	.L7	@,
 186:Common/Minimal/comtest.c **** 			}
 187:Common/Minimal/comtest.c **** 		}
 188:Common/Minimal/comtest.c **** 
 189:Common/Minimal/comtest.c **** 		/* Turn the LED off while we are not doing anything. */
 190:Common/Minimal/comtest.c **** 		vParTestSetLED( uxBaseLED + comTX_LED_OFFSET, pdFALSE );
 217              		.loc 1 190 0 is_stmt 1
 218 0044 124B     		ldr	r3, .L10+4	@ tmp148,
 219 0046 1B68     		ldr	r3, [r3, #0]	@ uxBaseLED.11, uxBaseLED
 220 0048 1846     		mov	r0, r3	@, uxBaseLED.11
 221 004a 4FF00001 		mov	r1, #0	@,
 222 004e FFF7FEFF 		bl	vParTestSetLED	@
 191:Common/Minimal/comtest.c **** 
 192:Common/Minimal/comtest.c **** 		/* We have posted all the characters in the string - wait before
 193:Common/Minimal/comtest.c **** 		re-sending.  Wait a pseudo-random time as this will provide a better
 194:Common/Minimal/comtest.c **** 		test. */
 195:Common/Minimal/comtest.c **** 		xTimeToWait = xTaskGetTickCount() + comOFFSET_TIME;
 223              		.loc 1 195 0
 224 0052 FFF7FEFF 		bl	xTaskGetTickCount	@
 225 0056 0346     		mov	r3, r0	@ D.4989,
 226 0058 03F10303 		add	r3, r3, #3	@ tmp149, D.4989,
 227 005c BB60     		str	r3, [r7, #8]	@ tmp149, xTimeToWait
 196:Common/Minimal/comtest.c **** 
 197:Common/Minimal/comtest.c **** 		/* Make sure we don't wait too long... */
 198:Common/Minimal/comtest.c **** 		xTimeToWait %= comTX_MAX_BLOCK_TIME;
 228              		.loc 1 198 0
 229 005e BB68     		ldr	r3, [r7, #8]	@ tmp151, xTimeToWait
 230 0060 0C4A     		ldr	r2, .L10+8	@ tmp153,
 231 0062 A2FB0312 		umull	r1, r2, r2, r3	@, tmp152, tmp153, tmp151
 232 0066 4FEA1212 		lsr	r2, r2, #4	@ tmp150, tmp152,
 233 006a 4FF09601 		mov	r1, #150	@ tmp155,
 234 006e 01FB02F2 		mul	r2, r1, r2	@ tmp154, tmp155, tmp150
 235 0072 9B1A     		subs	r3, r3, r2	@ tmp156, tmp151, tmp154
 236 0074 BB60     		str	r3, [r7, #8]	@ tmp156, xTimeToWait
 199:Common/Minimal/comtest.c **** 
 200:Common/Minimal/comtest.c **** 		/* ...but we do want to wait. */
 201:Common/Minimal/comtest.c **** 		if( xTimeToWait < comTX_MIN_BLOCK_TIME )
 237              		.loc 1 201 0
 238 0076 BB68     		ldr	r3, [r7, #8]	@ tmp157, xTimeToWait
 239 0078 312B     		cmp	r3, #49	@ tmp157,
 240 007a 02D8     		bhi	.L8	@,
 202:Common/Minimal/comtest.c **** 		{
 203:Common/Minimal/comtest.c **** 			xTimeToWait = comTX_MIN_BLOCK_TIME;
 241              		.loc 1 203 0
 242 007c 4FF03203 		mov	r3, #50	@ tmp158,
 243 0080 BB60     		str	r3, [r7, #8]	@ tmp158, xTimeToWait
 244              	.L8:
 204:Common/Minimal/comtest.c **** 		}
 205:Common/Minimal/comtest.c **** 
 206:Common/Minimal/comtest.c **** 		vTaskDelay( xTimeToWait );
 245              		.loc 1 206 0
 246 0082 B868     		ldr	r0, [r7, #8]	@, xTimeToWait
ARM GAS  C:\Users\Grzybek\AppData\Local\Temp\ccAwBcvK.s 			page 9


 247 0084 FFF7FEFF 		bl	vTaskDelay	@
 207:Common/Minimal/comtest.c **** 	}
 248              		.loc 1 207 0
 249 0088 BEE7     		b	.L9	@
 250              	.L11:
 251 008a 00BF     		.align	2
 252              	.L10:
 253 008c 00000000 		.word	xPort
 254 0090 00000000 		.word	uxBaseLED
 255 0094 B5814E1B 		.word	458129845
 256              		.cfi_endproc
 257              	.LFE1:
 258              		.size	vComTxTask, .-vComTxTask
 259              		.section	.text.vComRxTask,"ax",%progbits
 260              		.align	2
 261              		.thumb
 262              		.thumb_func
 263              		.type	vComRxTask, %function
 264              	vComRxTask:
 265              	.LFB2:
 208:Common/Minimal/comtest.c **** } /*lint !e715 !e818 pvParameters is required for a task function even if it is not referenced. */
 209:Common/Minimal/comtest.c **** /*-----------------------------------------------------------*/
 210:Common/Minimal/comtest.c **** 
 211:Common/Minimal/comtest.c **** static portTASK_FUNCTION( vComRxTask, pvParameters )
 212:Common/Minimal/comtest.c **** {
 266              		.loc 1 212 0
 267              		.cfi_startproc
 268              		@ args = 0, pretend = 0, frame = 24
 269              		@ frame_needed = 1, uses_anonymous_args = 0
 270 0000 80B5     		push	{r7, lr}	@
 271              	.LCFI6:
 272              		.cfi_def_cfa_offset 8
 273              		.cfi_offset 7, -8
 274              		.cfi_offset 14, -4
 275 0002 86B0     		sub	sp, sp, #24	@,,
 276              	.LCFI7:
 277              		.cfi_def_cfa_offset 32
 278 0004 00AF     		add	r7, sp, #0	@,,
 279              	.LCFI8:
 280              		.cfi_def_cfa_register 7
 281 0006 7860     		str	r0, [r7, #4]	@ pvParameters, pvParameters
 213:Common/Minimal/comtest.c **** signed char cExpectedByte, cByteRxed;
 214:Common/Minimal/comtest.c **** portBASE_TYPE xResyncRequired = pdFALSE, xErrorOccurred = pdFALSE;
 282              		.loc 1 214 0
 283 0008 4FF00003 		mov	r3, #0	@ tmp145,
 284 000c 3B61     		str	r3, [r7, #16]	@ tmp145, xResyncRequired
 285 000e 4FF00003 		mov	r3, #0	@ tmp146,
 286 0012 FB60     		str	r3, [r7, #12]	@ tmp146, xErrorOccurred
 287 0014 00E0     		b	.L22	@
 288              	.L23:
 215:Common/Minimal/comtest.c **** 
 216:Common/Minimal/comtest.c **** 	/* Just to stop compiler warnings. */
 217:Common/Minimal/comtest.c **** 	( void ) pvParameters;
 218:Common/Minimal/comtest.c **** 
 219:Common/Minimal/comtest.c **** 	for( ;; )
 220:Common/Minimal/comtest.c **** 	{
 221:Common/Minimal/comtest.c **** 		/* We expect to receive the characters from comFIRST_BYTE to
ARM GAS  C:\Users\Grzybek\AppData\Local\Temp\ccAwBcvK.s 			page 10


 222:Common/Minimal/comtest.c **** 		comLAST_BYTE in an incrementing order.  Loop to receive each byte. */
 223:Common/Minimal/comtest.c **** 		for( cExpectedByte = comFIRST_BYTE; cExpectedByte <= comLAST_BYTE; cExpectedByte++ )
 224:Common/Minimal/comtest.c **** 		{
 225:Common/Minimal/comtest.c **** 			/* Block on the queue that contains received bytes until a byte is
 226:Common/Minimal/comtest.c **** 			available. */
 227:Common/Minimal/comtest.c **** 			if( xSerialGetChar( xPort, &cByteRxed, comRX_BLOCK_TIME ) )
 228:Common/Minimal/comtest.c **** 			{
 229:Common/Minimal/comtest.c **** 				/* Was this the byte we were expecting?  If so, toggle the LED,
 230:Common/Minimal/comtest.c **** 				otherwise we are out on sync and should break out of the loop
 231:Common/Minimal/comtest.c **** 				until the expected character sequence is about to restart. */
 232:Common/Minimal/comtest.c **** 				if( cByteRxed == cExpectedByte )
 233:Common/Minimal/comtest.c **** 				{
 234:Common/Minimal/comtest.c **** 					vParTestToggleLED( uxBaseLED + comRX_LED_OFFSET );
 235:Common/Minimal/comtest.c **** 				}
 236:Common/Minimal/comtest.c **** 				else
 237:Common/Minimal/comtest.c **** 				{
 238:Common/Minimal/comtest.c **** 					xResyncRequired = pdTRUE;
 239:Common/Minimal/comtest.c **** 					break; /*lint !e960 Non-switch break allowed. */
 240:Common/Minimal/comtest.c **** 				}
 241:Common/Minimal/comtest.c **** 			}
 242:Common/Minimal/comtest.c **** 		}
 243:Common/Minimal/comtest.c **** 
 244:Common/Minimal/comtest.c **** 		/* Turn the LED off while we are not doing anything. */
 245:Common/Minimal/comtest.c **** 		vParTestSetLED( uxBaseLED + comRX_LED_OFFSET, pdFALSE );
 246:Common/Minimal/comtest.c **** 
 247:Common/Minimal/comtest.c **** 		/* Did we break out of the loop because the characters were received in
 248:Common/Minimal/comtest.c **** 		an unexpected order?  If so wait here until the character sequence is
 249:Common/Minimal/comtest.c **** 		about to restart. */
 250:Common/Minimal/comtest.c **** 		if( xResyncRequired == pdTRUE )
 251:Common/Minimal/comtest.c **** 		{
 252:Common/Minimal/comtest.c **** 			while( cByteRxed != comLAST_BYTE )
 253:Common/Minimal/comtest.c **** 			{
 254:Common/Minimal/comtest.c **** 				/* Block until the next char is available. */
 255:Common/Minimal/comtest.c **** 				xSerialGetChar( xPort, &cByteRxed, comRX_BLOCK_TIME );
 256:Common/Minimal/comtest.c **** 			}
 257:Common/Minimal/comtest.c **** 
 258:Common/Minimal/comtest.c **** 			/* Note that an error occurred which caused us to have to resync.
 259:Common/Minimal/comtest.c **** 			We use this to stop incrementing the loop counter so
 260:Common/Minimal/comtest.c **** 			sAreComTestTasksStillRunning() will return false - indicating an
 261:Common/Minimal/comtest.c **** 			error. */
 262:Common/Minimal/comtest.c **** 			xErrorOccurred++;
 263:Common/Minimal/comtest.c **** 
 264:Common/Minimal/comtest.c **** 			/* We have now resynced with the Tx task and can continue. */
 265:Common/Minimal/comtest.c **** 			xResyncRequired = pdFALSE;
 266:Common/Minimal/comtest.c **** 		}
 267:Common/Minimal/comtest.c **** 		else
 268:Common/Minimal/comtest.c **** 		{
 269:Common/Minimal/comtest.c **** 			if( xErrorOccurred < comTOTAL_PERMISSIBLE_ERRORS )
 270:Common/Minimal/comtest.c **** 			{
 271:Common/Minimal/comtest.c **** 				/* Increment the count of successful loops.  As error
 272:Common/Minimal/comtest.c **** 				occurring (i.e. an unexpected character being received) will
 273:Common/Minimal/comtest.c **** 				prevent this counter being incremented for the rest of the
 274:Common/Minimal/comtest.c **** 				execution.   Don't worry about mutual exclusion on this
 275:Common/Minimal/comtest.c **** 				variable - it doesn't really matter as we just want it
 276:Common/Minimal/comtest.c **** 				to change. */
 277:Common/Minimal/comtest.c **** 				uxRxLoops++;
 278:Common/Minimal/comtest.c **** 			}
ARM GAS  C:\Users\Grzybek\AppData\Local\Temp\ccAwBcvK.s 			page 11


 279:Common/Minimal/comtest.c **** 		}
 280:Common/Minimal/comtest.c **** 	}
 289              		.loc 1 280 0
 290 0016 00BF     		nop
 291              	.L22:
 223:Common/Minimal/comtest.c **** 		for( cExpectedByte = comFIRST_BYTE; cExpectedByte <= comLAST_BYTE; cExpectedByte++ )
 292              		.loc 1 223 0
 293 0018 4FF04103 		mov	r3, #65	@ tmp147,
 294 001c FB75     		strb	r3, [r7, #23]	@ tmp148, cExpectedByte
 295 001e 22E0     		b	.L13	@
 296              	.L17:
 227:Common/Minimal/comtest.c **** 			if( xSerialGetChar( xPort, &cByteRxed, comRX_BLOCK_TIME ) )
 297              		.loc 1 227 0
 298 0020 294B     		ldr	r3, .L24	@ tmp149,
 299 0022 1A68     		ldr	r2, [r3, #0]	@ xPort.1, xPort
 300 0024 07F10B03 		add	r3, r7, #11	@ tmp150,,
 301 0028 1046     		mov	r0, r2	@, xPort.1
 302 002a 1946     		mov	r1, r3	@, tmp150
 303 002c 4FF6FF72 		movw	r2, #65535	@,
 304 0030 FFF7FEFF 		bl	xSerialGetChar	@
 305 0034 0346     		mov	r3, r0	@ D.4963,
 306 0036 002B     		cmp	r3, #0	@ D.4963,
 307 0038 11D0     		beq	.L14	@,
 232:Common/Minimal/comtest.c **** 				if( cByteRxed == cExpectedByte )
 308              		.loc 1 232 0
 309 003a FB7A     		ldrb	r3, [r7, #11]	@ zero_extendqisi2	@ cByteRxed.2, cByteRxed
 310 003c 97F91720 		ldrsb	r2, [r7, #23]	@ tmp151, cExpectedByte
 311 0040 5BB2     		sxtb	r3, r3	@ tmp152, cByteRxed.2
 312 0042 9A42     		cmp	r2, r3	@ tmp151, tmp152
 313 0044 07D1     		bne	.L15	@,
 234:Common/Minimal/comtest.c **** 					vParTestToggleLED( uxBaseLED + comRX_LED_OFFSET );
 314              		.loc 1 234 0
 315 0046 214B     		ldr	r3, .L24+4	@ tmp153,
 316 0048 1B68     		ldr	r3, [r3, #0]	@ uxBaseLED.3, uxBaseLED
 317 004a 03F10103 		add	r3, r3, #1	@ D.4970, uxBaseLED.3,
 318 004e 1846     		mov	r0, r3	@, D.4970
 319 0050 FFF7FEFF 		bl	vParTestToggleLED	@
 320 0054 03E0     		b	.L14	@
 321              	.L15:
 238:Common/Minimal/comtest.c **** 					xResyncRequired = pdTRUE;
 322              		.loc 1 238 0
 323 0056 4FF00103 		mov	r3, #1	@ tmp154,
 324 005a 3B61     		str	r3, [r7, #16]	@ tmp154, xResyncRequired
 239:Common/Minimal/comtest.c **** 					break; /*lint !e960 Non-switch break allowed. */
 325              		.loc 1 239 0
 326 005c 07E0     		b	.L16	@
 327              	.L14:
 223:Common/Minimal/comtest.c **** 		for( cExpectedByte = comFIRST_BYTE; cExpectedByte <= comLAST_BYTE; cExpectedByte++ )
 328              		.loc 1 223 0
 329 005e FB7D     		ldrb	r3, [r7, #23]	@ tmp155, cExpectedByte
 330 0060 03F10103 		add	r3, r3, #1	@ tmp156, tmp155,
 331 0064 FB75     		strb	r3, [r7, #23]	@ tmp157, cExpectedByte
 332              	.L13:
 223:Common/Minimal/comtest.c **** 		for( cExpectedByte = comFIRST_BYTE; cExpectedByte <= comLAST_BYTE; cExpectedByte++ )
 333              		.loc 1 223 0 is_stmt 0 discriminator 1
 334 0066 97F91730 		ldrsb	r3, [r7, #23]	@ tmp158, cExpectedByte
 335 006a 582B     		cmp	r3, #88	@ tmp158,
ARM GAS  C:\Users\Grzybek\AppData\Local\Temp\ccAwBcvK.s 			page 12


 336 006c D8DD     		ble	.L17	@,
 337              	.L16:
 245:Common/Minimal/comtest.c **** 		vParTestSetLED( uxBaseLED + comRX_LED_OFFSET, pdFALSE );
 338              		.loc 1 245 0 is_stmt 1
 339 006e 174B     		ldr	r3, .L24+4	@ tmp159,
 340 0070 1B68     		ldr	r3, [r3, #0]	@ uxBaseLED.4, uxBaseLED
 341 0072 03F10103 		add	r3, r3, #1	@ D.4973, uxBaseLED.4,
 342 0076 1846     		mov	r0, r3	@, D.4973
 343 0078 4FF00001 		mov	r1, #0	@,
 344 007c FFF7FEFF 		bl	vParTestSetLED	@
 250:Common/Minimal/comtest.c **** 		if( xResyncRequired == pdTRUE )
 345              		.loc 1 250 0
 346 0080 3B69     		ldr	r3, [r7, #16]	@ tmp160, xResyncRequired
 347 0082 012B     		cmp	r3, #1	@ tmp160,
 348 0084 16D1     		bne	.L18	@,
 252:Common/Minimal/comtest.c **** 			while( cByteRxed != comLAST_BYTE )
 349              		.loc 1 252 0
 350 0086 09E0     		b	.L19	@
 351              	.L20:
 255:Common/Minimal/comtest.c **** 				xSerialGetChar( xPort, &cByteRxed, comRX_BLOCK_TIME );
 352              		.loc 1 255 0
 353 0088 0F4B     		ldr	r3, .L24	@ tmp161,
 354 008a 1A68     		ldr	r2, [r3, #0]	@ xPort.5, xPort
 355 008c 07F10B03 		add	r3, r7, #11	@ tmp162,,
 356 0090 1046     		mov	r0, r2	@, xPort.5
 357 0092 1946     		mov	r1, r3	@, tmp162
 358 0094 4FF6FF72 		movw	r2, #65535	@,
 359 0098 FFF7FEFF 		bl	xSerialGetChar	@
 360              	.L19:
 252:Common/Minimal/comtest.c **** 			while( cByteRxed != comLAST_BYTE )
 361              		.loc 1 252 0 discriminator 1
 362 009c FB7A     		ldrb	r3, [r7, #11]	@ zero_extendqisi2	@ cByteRxed.6, cByteRxed
 363 009e 5BB2     		sxtb	r3, r3	@ tmp163, cByteRxed.6
 364 00a0 582B     		cmp	r3, #88	@ tmp163,
 365 00a2 F1D1     		bne	.L20	@,
 262:Common/Minimal/comtest.c **** 			xErrorOccurred++;
 366              		.loc 1 262 0
 367 00a4 FB68     		ldr	r3, [r7, #12]	@ tmp165, xErrorOccurred
 368 00a6 03F10103 		add	r3, r3, #1	@ tmp164, tmp165,
 369 00aa FB60     		str	r3, [r7, #12]	@ tmp164, xErrorOccurred
 265:Common/Minimal/comtest.c **** 			xResyncRequired = pdFALSE;
 370              		.loc 1 265 0
 371 00ac 4FF00003 		mov	r3, #0	@ tmp166,
 372 00b0 3B61     		str	r3, [r7, #16]	@ tmp166, xResyncRequired
 373              		.loc 1 280 0
 374 00b2 B0E7     		b	.L23	@
 375              	.L18:
 269:Common/Minimal/comtest.c **** 			if( xErrorOccurred < comTOTAL_PERMISSIBLE_ERRORS )
 376              		.loc 1 269 0
 377 00b4 FB68     		ldr	r3, [r7, #12]	@ tmp167, xErrorOccurred
 378 00b6 012B     		cmp	r3, #1	@ tmp167,
 379 00b8 ADDC     		bgt	.L23	@,
 277:Common/Minimal/comtest.c **** 				uxRxLoops++;
 380              		.loc 1 277 0
 381 00ba 054B     		ldr	r3, .L24+8	@ tmp168,
 382 00bc 1B68     		ldr	r3, [r3, #0]	@ uxRxLoops.7, uxRxLoops
 383 00be 03F10102 		add	r2, r3, #1	@ uxRxLoops.8, uxRxLoops.7,
ARM GAS  C:\Users\Grzybek\AppData\Local\Temp\ccAwBcvK.s 			page 13


 384 00c2 034B     		ldr	r3, .L24+8	@ tmp169,
 385 00c4 1A60     		str	r2, [r3, #0]	@ uxRxLoops.8, uxRxLoops
 386              		.loc 1 280 0
 387 00c6 A6E7     		b	.L23	@
 388              	.L25:
 389              		.align	2
 390              	.L24:
 391 00c8 00000000 		.word	xPort
 392 00cc 00000000 		.word	uxBaseLED
 393 00d0 00000000 		.word	uxRxLoops
 394              		.cfi_endproc
 395              	.LFE2:
 396              		.size	vComRxTask, .-vComRxTask
 397              		.section	.text.xAreComTestTasksStillRunning,"ax",%progbits
 398              		.align	2
 399              		.global	xAreComTestTasksStillRunning
 400              		.thumb
 401              		.thumb_func
 402              		.type	xAreComTestTasksStillRunning, %function
 403              	xAreComTestTasksStillRunning:
 404              	.LFB3:
 281:Common/Minimal/comtest.c **** } /*lint !e715 !e818 pvParameters is required for a task function even if it is not referenced. */
 282:Common/Minimal/comtest.c **** /*-----------------------------------------------------------*/
 283:Common/Minimal/comtest.c **** 
 284:Common/Minimal/comtest.c **** portBASE_TYPE xAreComTestTasksStillRunning( void )
 285:Common/Minimal/comtest.c **** {
 405              		.loc 1 285 0
 406              		.cfi_startproc
 407              		@ args = 0, pretend = 0, frame = 8
 408              		@ frame_needed = 1, uses_anonymous_args = 0
 409              		@ link register save eliminated.
 410 0000 80B4     		push	{r7}	@
 411              	.LCFI9:
 412              		.cfi_def_cfa_offset 4
 413              		.cfi_offset 7, -4
 414 0002 83B0     		sub	sp, sp, #12	@,,
 415              	.LCFI10:
 416              		.cfi_def_cfa_offset 16
 417 0004 00AF     		add	r7, sp, #0	@,,
 418              	.LCFI11:
 419              		.cfi_def_cfa_register 7
 286:Common/Minimal/comtest.c **** portBASE_TYPE xReturn;
 287:Common/Minimal/comtest.c **** 
 288:Common/Minimal/comtest.c **** 	/* If the count of successful reception loops has not changed than at
 289:Common/Minimal/comtest.c **** 	some time an error occurred (i.e. a character was received out of sequence)
 290:Common/Minimal/comtest.c **** 	and we will return false. */
 291:Common/Minimal/comtest.c **** 	if( uxRxLoops == comINITIAL_RX_COUNT_VALUE )
 420              		.loc 1 291 0
 421 0006 0B4B     		ldr	r3, .L30	@ tmp137,
 422 0008 1B68     		ldr	r3, [r3, #0]	@ uxRxLoops.0, uxRxLoops
 423 000a 002B     		cmp	r3, #0	@ uxRxLoops.0,
 424 000c 03D1     		bne	.L27	@,
 292:Common/Minimal/comtest.c **** 	{
 293:Common/Minimal/comtest.c **** 		xReturn = pdFALSE;
 425              		.loc 1 293 0
 426 000e 4FF00003 		mov	r3, #0	@ tmp138,
 427 0012 7B60     		str	r3, [r7, #4]	@ tmp138, xReturn
ARM GAS  C:\Users\Grzybek\AppData\Local\Temp\ccAwBcvK.s 			page 14


 428 0014 02E0     		b	.L28	@
 429              	.L27:
 294:Common/Minimal/comtest.c **** 	}
 295:Common/Minimal/comtest.c **** 	else
 296:Common/Minimal/comtest.c **** 	{
 297:Common/Minimal/comtest.c **** 		xReturn = pdTRUE;
 430              		.loc 1 297 0
 431 0016 4FF00103 		mov	r3, #1	@ tmp139,
 432 001a 7B60     		str	r3, [r7, #4]	@ tmp139, xReturn
 433              	.L28:
 298:Common/Minimal/comtest.c **** 	}
 299:Common/Minimal/comtest.c **** 
 300:Common/Minimal/comtest.c **** 	/* Reset the count of successful Rx loops.  When this function is called
 301:Common/Minimal/comtest.c **** 	again we expect this to have been incremented. */
 302:Common/Minimal/comtest.c **** 	uxRxLoops = comINITIAL_RX_COUNT_VALUE;
 434              		.loc 1 302 0
 435 001c 054B     		ldr	r3, .L30	@ tmp140,
 436 001e 4FF00002 		mov	r2, #0	@ tmp141,
 437 0022 1A60     		str	r2, [r3, #0]	@ tmp141, uxRxLoops
 303:Common/Minimal/comtest.c **** 
 304:Common/Minimal/comtest.c **** 	return xReturn;
 438              		.loc 1 304 0
 439 0024 7B68     		ldr	r3, [r7, #4]	@ D.4960, xReturn
 305:Common/Minimal/comtest.c **** }
 440              		.loc 1 305 0
 441 0026 1846     		mov	r0, r3	@, <retval>
 442 0028 07F10C07 		add	r7, r7, #12	@,,
 443 002c BD46     		mov	sp, r7
 444 002e 80BC     		pop	{r7}
 445 0030 7047     		bx	lr
 446              	.L31:
 447 0032 00BF     		.align	2
 448              	.L30:
 449 0034 00000000 		.word	uxRxLoops
 450              		.cfi_endproc
 451              	.LFE3:
 452              		.size	xAreComTestTasksStillRunning, .-xAreComTestTasksStillRunning
 453              		.text
 454              	.Letext0:
 455              		.file 2 "./Source/include/../../Source/portable/GCC/ARM_CM3/portmacro.h"
 456              		.file 3 "./Source/include/task.h"
 457              		.file 4 "./Common/include/serial.h"