ARM GAS  C:\Users\Grzybek\AppData\Local\Temp\ccIx2jEH.s 			page 1


   1              		.syntax unified
   2              		.cpu cortex-m3
   3              		.fpu softvfp
   4              		.eabi_attribute 20, 1	@ Tag_ABI_FP_denormal
   5              		.eabi_attribute 21, 1	@ Tag_ABI_FP_exceptions
   6              		.eabi_attribute 23, 3	@ Tag_ABI_FP_number_model
   7              		.eabi_attribute 24, 1	@ Tag_ABI_align8_needed
   8              		.eabi_attribute 25, 1	@ Tag_ABI_align8_preserved
   9              		.eabi_attribute 26, 1	@ Tag_ABI_enum_size
  10              		.eabi_attribute 30, 6	@ Tag_ABI_optimization_goals
  11              		.eabi_attribute 34, 1	@ Tag_CPU_unaligned_access
  12              		.eabi_attribute 18, 4	@ Tag_ABI_PCS_wchar_t
  13              		.file	"death.c"
  14              	@ GNU C (Sourcery CodeBench Lite 2012.09-63) version 4.7.2 (arm-none-eabi)
  15              	@	compiled by GNU C version 4.3.2, GMP version 5.0.5, MPFR version 3.1.1-p2, MPC version 1.0.1
  16              	@ GGC heuristics: --param ggc-min-expand=100 --param ggc-min-heapsize=131072
  17              	@ options passed:  -I . -I ./STCode -I ./Source/include
  18              	@ -I ./Source/portable/GCC/ARM_CM3 -I ./Common/include
  19              	@ -I ./Common/drivers/ST/STM32F10xFWLib/v3_2_0/Libraries/STM32F10x_StdPeriph_Driver/inc
  20              	@ -I ./Common/drivers/ST/STM32F10xFWLib/v3_2_0/Libraries/CMSIS/CM3/CoreSupport
  21              	@ -I ./Common/drivers/ST/STM32F10xFWLib/v3_2_0/Libraries/CMSIS/CM3/DeviceSupport/ST/STM32F10x
  22              	@ -imultilib thumb2
  23              	@ -iprefix c:\codesourcery\sourcery_codebench_lite_for_arm_eabi\bin\../lib/gcc/arm-none-eabi/4.7.2/
  24              	@ -isysroot c:\codesourcery\sourcery_codebench_lite_for_arm_eabi\bin\../arm-none-eabi
  25              	@ -D__USES_INITFINI__ -D STM32F10X_HD -D USE_STDPERIPH_DRIVER
  26              	@ -D VECT_TAB_FLASH -D GCC_ARMCM3 -D inline=
  27              	@ -D PACK_STRUCT_END=__attribute((packed))
  28              	@ -D ALIGN_STRUCT_END=__attribute((aligned(4)))
  29              	@ -D __CS_SOURCERYGXX_MAJ__=2012 -D __CS_SOURCERYGXX_MIN__=9
  30              	@ -D __CS_SOURCERYGXX_REV__=63 Common/Minimal/death.c -mthumb
  31              	@ -mcpu=cortex-m3 -auxbase-strip Debug/death.o -g3 -gdwarf-2 -O0 -std=gnu99
  32              	@ -ffunction-sections -fdata-sections -fmessage-length=0 -fverbose-asm
  33              	@ options enabled:  -fauto-inc-dec -fbranch-count-reg -fcommon
  34              	@ -fdata-sections -fdebug-types-section -fdelete-null-pointer-checks
  35              	@ -fdwarf2-cfi-asm -fearly-inlining -feliminate-unused-debug-types
  36              	@ -ffunction-cse -ffunction-sections -fgcse-lm -fgnu-runtime -fident
  37              	@ -finline-atomics -fira-share-save-slots -fira-share-spill-slots -fivopts
  38              	@ -fkeep-static-consts -fleading-underscore -fmath-errno
  39              	@ -fmerge-debug-strings -fmove-loop-invariants -fpeephole
  40              	@ -fprefetch-loop-arrays -freg-struct-return
  41              	@ -fsched-critical-path-heuristic -fsched-dep-count-heuristic
  42              	@ -fsched-group-heuristic -fsched-interblock -fsched-last-insn-heuristic
  43              	@ -fsched-rank-heuristic -fsched-spec -fsched-spec-insn-heuristic
  44              	@ -fsched-stalled-insns-dep -fshow-column -fsigned-zeros
  45              	@ -fsplit-ivs-in-unroller -fstrict-volatile-bitfields -ftrapping-math
  46              	@ -ftree-cselim -ftree-forwprop -ftree-loop-if-convert -ftree-loop-im
  47              	@ -ftree-loop-ivcanon -ftree-loop-optimize -ftree-parallelize-loops=
  48              	@ -ftree-phiprop -ftree-pta -ftree-reassoc -ftree-scev-cprop
  49              	@ -ftree-slp-vectorize -ftree-vect-loop-version -funit-at-a-time
  50              	@ -fverbose-asm -fzero-initialized-in-bss -mfix-cortex-m3-ldrd
  51              	@ -mlittle-endian -msched-prolog -mthumb -munaligned-access
  52              	@ -mvectorize-with-neon-quad
  53              	
  54              		.text
  55              	.Ltext0:
  56              		.cfi_sections	.debug_frame
  57              		.section	.bss.usCreationCount,"aw",%nobits
ARM GAS  C:\Users\Grzybek\AppData\Local\Temp\ccIx2jEH.s 			page 2


  58              		.align	1
  59              		.type	usCreationCount, %object
  60              		.size	usCreationCount, 2
  61              	usCreationCount:
  62 0000 0000     		.space	2
  63              		.section	.bss.uxTasksRunningAtStart,"aw",%nobits
  64              		.align	2
  65              		.type	uxTasksRunningAtStart, %object
  66              		.size	uxTasksRunningAtStart, 4
  67              	uxTasksRunningAtStart:
  68 0000 00000000 		.space	4
  69              		.section	.rodata.uxMaxNumberOfExtraTasksRunning,"a",%progbits
  70              		.align	2
  71              		.type	uxMaxNumberOfExtraTasksRunning, %object
  72              		.size	uxMaxNumberOfExtraTasksRunning, 4
  73              	uxMaxNumberOfExtraTasksRunning:
  74 0000 03000000 		.word	3
  75              		.comm	xCreatedTask,4,4
  76              		.section	.rodata
  77              		.align	2
  78              	.LC0:
  79 0000 43524541 		.ascii	"CREATOR\000"
  79      544F5200 
  80              		.section	.text.vCreateSuicidalTasks,"ax",%progbits
  81              		.align	2
  82              		.global	vCreateSuicidalTasks
  83              		.thumb
  84              		.thumb_func
  85              		.type	vCreateSuicidalTasks, %function
  86              	vCreateSuicidalTasks:
  87              	.LFB0:
  88              		.file 1 "Common/Minimal/death.c"
   1:Common/Minimal/death.c **** /*
   2:Common/Minimal/death.c ****     FreeRTOS V7.3.0 - Copyright (C) 2012 Real Time Engineers Ltd.
   3:Common/Minimal/death.c **** 
   4:Common/Minimal/death.c ****     FEATURES AND PORTS ARE ADDED TO FREERTOS ALL THE TIME.  PLEASE VISIT 
   5:Common/Minimal/death.c ****     http://www.FreeRTOS.org TO ENSURE YOU ARE USING THE LATEST VERSION.
   6:Common/Minimal/death.c **** 
   7:Common/Minimal/death.c ****     ***************************************************************************
   8:Common/Minimal/death.c ****      *                                                                       *
   9:Common/Minimal/death.c ****      *    FreeRTOS tutorial books are available in pdf and paperback.        *
  10:Common/Minimal/death.c ****      *    Complete, revised, and edited pdf reference manuals are also       *
  11:Common/Minimal/death.c ****      *    available.                                                         *
  12:Common/Minimal/death.c ****      *                                                                       *
  13:Common/Minimal/death.c ****      *    Purchasing FreeRTOS documentation will not only help you, by       *
  14:Common/Minimal/death.c ****      *    ensuring you get running as quickly as possible and with an        *
  15:Common/Minimal/death.c ****      *    in-depth knowledge of how to use FreeRTOS, it will also help       *
  16:Common/Minimal/death.c ****      *    the FreeRTOS project to continue with its mission of providing     *
  17:Common/Minimal/death.c ****      *    professional grade, cross platform, de facto standard solutions    *
  18:Common/Minimal/death.c ****      *    for microcontrollers - completely free of charge!                  *
  19:Common/Minimal/death.c ****      *                                                                       *
  20:Common/Minimal/death.c ****      *    >>> See http://www.FreeRTOS.org/Documentation for details. <<<     *
  21:Common/Minimal/death.c ****      *                                                                       *
  22:Common/Minimal/death.c ****      *    Thank you for using FreeRTOS, and thank you for your support!      *
  23:Common/Minimal/death.c ****      *                                                                       *
  24:Common/Minimal/death.c ****     ***************************************************************************
  25:Common/Minimal/death.c **** 
ARM GAS  C:\Users\Grzybek\AppData\Local\Temp\ccIx2jEH.s 			page 3


  26:Common/Minimal/death.c **** 
  27:Common/Minimal/death.c ****     This file is part of the FreeRTOS distribution.
  28:Common/Minimal/death.c **** 
  29:Common/Minimal/death.c ****     FreeRTOS is free software; you can redistribute it and/or modify it under
  30:Common/Minimal/death.c ****     the terms of the GNU General Public License (version 2) as published by the
  31:Common/Minimal/death.c ****     Free Software Foundation AND MODIFIED BY the FreeRTOS exception.
  32:Common/Minimal/death.c ****     >>>NOTE<<< The modification to the GPL is included to allow you to
  33:Common/Minimal/death.c ****     distribute a combined work that includes FreeRTOS without being obliged to
  34:Common/Minimal/death.c ****     provide the source code for proprietary components outside of the FreeRTOS
  35:Common/Minimal/death.c ****     kernel.  FreeRTOS is distributed in the hope that it will be useful, but
  36:Common/Minimal/death.c ****     WITHOUT ANY WARRANTY; without even the implied warranty of MERCHANTABILITY
  37:Common/Minimal/death.c ****     or FITNESS FOR A PARTICULAR PURPOSE.  See the GNU General Public License for
  38:Common/Minimal/death.c ****     more details. You should have received a copy of the GNU General Public
  39:Common/Minimal/death.c ****     License and the FreeRTOS license exception along with FreeRTOS; if not it
  40:Common/Minimal/death.c ****     can be viewed here: http://www.freertos.org/a00114.html and also obtained
  41:Common/Minimal/death.c ****     by writing to Richard Barry, contact details for whom are available on the
  42:Common/Minimal/death.c ****     FreeRTOS WEB site.
  43:Common/Minimal/death.c **** 
  44:Common/Minimal/death.c ****     1 tab == 4 spaces!
  45:Common/Minimal/death.c ****     
  46:Common/Minimal/death.c ****     ***************************************************************************
  47:Common/Minimal/death.c ****      *                                                                       *
  48:Common/Minimal/death.c ****      *    Having a problem?  Start by reading the FAQ "My application does   *
  49:Common/Minimal/death.c ****      *    not run, what could be wrong?"                                     *
  50:Common/Minimal/death.c ****      *                                                                       *
  51:Common/Minimal/death.c ****      *    http://www.FreeRTOS.org/FAQHelp.html                               *
  52:Common/Minimal/death.c ****      *                                                                       *
  53:Common/Minimal/death.c ****     ***************************************************************************
  54:Common/Minimal/death.c **** 
  55:Common/Minimal/death.c ****     
  56:Common/Minimal/death.c ****     http://www.FreeRTOS.org - Documentation, training, latest versions, license 
  57:Common/Minimal/death.c ****     and contact details.  
  58:Common/Minimal/death.c ****     
  59:Common/Minimal/death.c ****     http://www.FreeRTOS.org/plus - A selection of FreeRTOS ecosystem products,
  60:Common/Minimal/death.c ****     including FreeRTOS+Trace - an indispensable productivity tool.
  61:Common/Minimal/death.c **** 
  62:Common/Minimal/death.c ****     Real Time Engineers ltd license FreeRTOS to High Integrity Systems, who sell 
  63:Common/Minimal/death.c ****     the code with commercial support, indemnification, and middleware, under 
  64:Common/Minimal/death.c ****     the OpenRTOS brand: http://www.OpenRTOS.com.  High Integrity Systems also
  65:Common/Minimal/death.c ****     provide a safety engineered and independently SIL3 certified version under 
  66:Common/Minimal/death.c ****     the SafeRTOS brand: http://www.SafeRTOS.com.
  67:Common/Minimal/death.c **** */
  68:Common/Minimal/death.c **** 
  69:Common/Minimal/death.c **** /**
  70:Common/Minimal/death.c ****  * Create a single persistent task which periodically dynamically creates another
  71:Common/Minimal/death.c ****  * two tasks.  The original task is called the creator task, the two tasks it
  72:Common/Minimal/death.c ****  * creates are called suicidal tasks.
  73:Common/Minimal/death.c ****  *
  74:Common/Minimal/death.c ****  * One of the created suicidal tasks kill one other suicidal task before killing
  75:Common/Minimal/death.c ****  * itself - leaving just the original task remaining.
  76:Common/Minimal/death.c ****  *
  77:Common/Minimal/death.c ****  * The creator task must be spawned after all of the other demo application tasks
  78:Common/Minimal/death.c ****  * as it keeps a check on the number of tasks under the scheduler control.  The
  79:Common/Minimal/death.c ****  * number of tasks it expects to see running should never be greater than the
  80:Common/Minimal/death.c ****  * number of tasks that were in existence when the creator task was spawned, plus
  81:Common/Minimal/death.c ****  * one set of four suicidal tasks.  If this number is exceeded an error is flagged.
  82:Common/Minimal/death.c ****  *
ARM GAS  C:\Users\Grzybek\AppData\Local\Temp\ccIx2jEH.s 			page 4


  83:Common/Minimal/death.c ****  * \page DeathC death.c
  84:Common/Minimal/death.c ****  * \ingroup DemoFiles
  85:Common/Minimal/death.c ****  * <HR>
  86:Common/Minimal/death.c ****  */
  87:Common/Minimal/death.c **** 
  88:Common/Minimal/death.c **** /*
  89:Common/Minimal/death.c **** Changes from V3.0.0
  90:Common/Minimal/death.c **** 	+ CreationCount sizes changed from unsigned portBASE_TYPE to
  91:Common/Minimal/death.c **** 	  unsigned short to minimize the risk of overflowing.
  92:Common/Minimal/death.c **** 	
  93:Common/Minimal/death.c **** 	+ Reset of usLastCreationCount added
  94:Common/Minimal/death.c **** 	
  95:Common/Minimal/death.c **** Changes from V3.1.0
  96:Common/Minimal/death.c **** 	+ Changed the dummy calculation to use variables of type long, rather than
  97:Common/Minimal/death.c **** 	  float.  This allows the file to be used with ports that do not support
  98:Common/Minimal/death.c **** 	  floating point.
  99:Common/Minimal/death.c **** 
 100:Common/Minimal/death.c **** */
 101:Common/Minimal/death.c **** 
 102:Common/Minimal/death.c **** #include <stdlib.h>
 103:Common/Minimal/death.c **** 
 104:Common/Minimal/death.c **** /* Scheduler include files. */
 105:Common/Minimal/death.c **** #include "FreeRTOS.h"
 106:Common/Minimal/death.c **** #include "task.h"
 107:Common/Minimal/death.c **** 
 108:Common/Minimal/death.c **** /* Demo program include files. */
 109:Common/Minimal/death.c **** #include "death.h"
 110:Common/Minimal/death.c **** 
 111:Common/Minimal/death.c **** #define deathSTACK_SIZE		( configMINIMAL_STACK_SIZE + 60 )
 112:Common/Minimal/death.c **** 
 113:Common/Minimal/death.c **** /* The task originally created which is responsible for periodically dynamically
 114:Common/Minimal/death.c **** creating another four tasks. */
 115:Common/Minimal/death.c **** static portTASK_FUNCTION_PROTO( vCreateTasks, pvParameters );
 116:Common/Minimal/death.c **** 
 117:Common/Minimal/death.c **** /* The task function of the dynamically created tasks. */
 118:Common/Minimal/death.c **** static portTASK_FUNCTION_PROTO( vSuicidalTask, pvParameters );
 119:Common/Minimal/death.c **** 
 120:Common/Minimal/death.c **** /* A variable which is incremented every time the dynamic tasks are created.  This
 121:Common/Minimal/death.c **** is used to check that the task is still running. */
 122:Common/Minimal/death.c **** static volatile unsigned short usCreationCount = 0;
 123:Common/Minimal/death.c **** 
 124:Common/Minimal/death.c **** /* Used to store the number of tasks that were originally running so the creator
 125:Common/Minimal/death.c **** task can tell if any of the suicidal tasks have failed to die.
 126:Common/Minimal/death.c **** */
 127:Common/Minimal/death.c **** static volatile unsigned portBASE_TYPE uxTasksRunningAtStart = 0;
 128:Common/Minimal/death.c **** 
 129:Common/Minimal/death.c **** /* Tasks are deleted by the idle task.  Under heavy load the idle task might
 130:Common/Minimal/death.c **** not get much processing time, so it would be legitimate for several tasks to
 131:Common/Minimal/death.c **** remain undeleted for a short period. */
 132:Common/Minimal/death.c **** static const unsigned portBASE_TYPE uxMaxNumberOfExtraTasksRunning = 3;
 133:Common/Minimal/death.c **** 
 134:Common/Minimal/death.c **** /* Used to store a handle to the task that should be killed by a suicidal task,
 135:Common/Minimal/death.c **** before it kills itself. */
 136:Common/Minimal/death.c **** xTaskHandle xCreatedTask;
 137:Common/Minimal/death.c **** 
 138:Common/Minimal/death.c **** /*-----------------------------------------------------------*/
 139:Common/Minimal/death.c **** 
ARM GAS  C:\Users\Grzybek\AppData\Local\Temp\ccIx2jEH.s 			page 5


 140:Common/Minimal/death.c **** void vCreateSuicidalTasks( unsigned portBASE_TYPE uxPriority )
 141:Common/Minimal/death.c **** {
  89              		.loc 1 141 0
  90              		.cfi_startproc
  91              		@ args = 0, pretend = 0, frame = 16
  92              		@ frame_needed = 1, uses_anonymous_args = 0
  93 0000 80B5     		push	{r7, lr}	@
  94              	.LCFI0:
  95              		.cfi_def_cfa_offset 8
  96              		.cfi_offset 7, -8
  97              		.cfi_offset 14, -4
  98 0002 88B0     		sub	sp, sp, #32	@,,
  99              	.LCFI1:
 100              		.cfi_def_cfa_offset 40
 101 0004 04AF     		add	r7, sp, #16	@,,
 102              	.LCFI2:
 103              		.cfi_def_cfa 7, 24
 104 0006 7860     		str	r0, [r7, #4]	@ uxPriority, uxPriority
 142:Common/Minimal/death.c **** unsigned portBASE_TYPE *puxPriority;
 143:Common/Minimal/death.c **** 
 144:Common/Minimal/death.c **** 	/* Create the Creator tasks - passing in as a parameter the priority at which
 145:Common/Minimal/death.c **** 	the suicidal tasks should be created. */
 146:Common/Minimal/death.c **** 	puxPriority = ( unsigned portBASE_TYPE * ) pvPortMalloc( sizeof( unsigned portBASE_TYPE ) );
 105              		.loc 1 146 0
 106 0008 4FF00400 		mov	r0, #4	@,
 107 000c FFF7FEFF 		bl	pvPortMalloc	@
 108 0010 F860     		str	r0, [r7, #12]	@, puxPriority
 147:Common/Minimal/death.c **** 	*puxPriority = uxPriority;
 109              		.loc 1 147 0
 110 0012 FB68     		ldr	r3, [r7, #12]	@ tmp137, puxPriority
 111 0014 7A68     		ldr	r2, [r7, #4]	@ tmp138, uxPriority
 112 0016 1A60     		str	r2, [r3, #0]	@ tmp138, *puxPriority_1
 148:Common/Minimal/death.c **** 
 149:Common/Minimal/death.c **** 	xTaskCreate( vCreateTasks, ( signed char * ) "CREATOR", deathSTACK_SIZE, ( void * ) puxPriority, u
 113              		.loc 1 149 0
 114 0018 7B68     		ldr	r3, [r7, #4]	@ tmp139, uxPriority
 115 001a 0093     		str	r3, [sp, #0]	@ tmp139,
 116 001c 4FF00003 		mov	r3, #0	@ tmp140,
 117 0020 0193     		str	r3, [sp, #4]	@ tmp140,
 118 0022 4FF00003 		mov	r3, #0	@ tmp141,
 119 0026 0293     		str	r3, [sp, #8]	@ tmp141,
 120 0028 4FF00003 		mov	r3, #0	@ tmp142,
 121 002c 0393     		str	r3, [sp, #12]	@ tmp142,
 122 002e 0B48     		ldr	r0, .L2	@,
 123 0030 0B49     		ldr	r1, .L2+4	@,
 124 0032 4FF0BC02 		mov	r2, #188	@,
 125 0036 FB68     		ldr	r3, [r7, #12]	@, puxPriority
 126 0038 FFF7FEFF 		bl	xTaskGenericCreate	@
 150:Common/Minimal/death.c **** 
 151:Common/Minimal/death.c **** 	/* Record the number of tasks that are running now so we know if any of the
 152:Common/Minimal/death.c **** 	suicidal tasks have failed to be killed. */
 153:Common/Minimal/death.c **** 	uxTasksRunningAtStart = ( unsigned portBASE_TYPE ) uxTaskGetNumberOfTasks();
 127              		.loc 1 153 0
 128 003c FFF7FEFF 		bl	uxTaskGetNumberOfTasks	@
 129 0040 0246     		mov	r2, r0	@ uxTasksRunningAtStart.14,
 130 0042 084B     		ldr	r3, .L2+8	@ tmp143,
 131 0044 1A60     		str	r2, [r3, #0]	@ uxTasksRunningAtStart.14, uxTasksRunningAtStart
ARM GAS  C:\Users\Grzybek\AppData\Local\Temp\ccIx2jEH.s 			page 6


 154:Common/Minimal/death.c **** 	
 155:Common/Minimal/death.c **** 	/* FreeRTOS.org versions before V3.0 started the idle-task as the very
 156:Common/Minimal/death.c **** 	first task. The idle task was then already included in uxTasksRunningAtStart.
 157:Common/Minimal/death.c **** 	From FreeRTOS V3.0 on, the idle task is started when the scheduler is
 158:Common/Minimal/death.c **** 	started. Therefore the idle task is not yet accounted for. We correct
 159:Common/Minimal/death.c **** 	this by increasing uxTasksRunningAtStart by 1. */
 160:Common/Minimal/death.c **** 	uxTasksRunningAtStart++;
 132              		.loc 1 160 0
 133 0046 074B     		ldr	r3, .L2+8	@ tmp144,
 134 0048 1B68     		ldr	r3, [r3, #0]	@ uxTasksRunningAtStart.15, uxTasksRunningAtStart
 135 004a 03F10102 		add	r2, r3, #1	@ uxTasksRunningAtStart.16, uxTasksRunningAtStart.15,
 136 004e 054B     		ldr	r3, .L2+8	@ tmp145,
 137 0050 1A60     		str	r2, [r3, #0]	@ uxTasksRunningAtStart.16, uxTasksRunningAtStart
 161:Common/Minimal/death.c **** 	
 162:Common/Minimal/death.c **** 	/* From FreeRTOS version 7.0.0 can optionally create a timer service task.  
 163:Common/Minimal/death.c **** 	If this is done, then uxTasksRunningAtStart needs incrementing again as that
 164:Common/Minimal/death.c **** 	too is created when the scheduler is started. */
 165:Common/Minimal/death.c **** 	#if configUSE_TIMERS == 1
 166:Common/Minimal/death.c **** 		uxTasksRunningAtStart++;
 167:Common/Minimal/death.c **** 	#endif
 168:Common/Minimal/death.c **** }
 138              		.loc 1 168 0
 139 0052 07F11007 		add	r7, r7, #16	@,,
 140 0056 BD46     		mov	sp, r7
 141 0058 80BD     		pop	{r7, pc}
 142              	.L3:
 143 005a 00BF     		.align	2
 144              	.L2:
 145 005c 00000000 		.word	vCreateTasks
 146 0060 00000000 		.word	.LC0
 147 0064 00000000 		.word	uxTasksRunningAtStart
 148              		.cfi_endproc
 149              	.LFE0:
 150              		.size	vCreateSuicidalTasks, .-vCreateSuicidalTasks
 151              		.section	.text.vSuicidalTask,"ax",%progbits
 152              		.align	2
 153              		.thumb
 154              		.thumb_func
 155              		.type	vSuicidalTask, %function
 156              	vSuicidalTask:
 157              	.LFB1:
 169:Common/Minimal/death.c **** /*-----------------------------------------------------------*/
 170:Common/Minimal/death.c **** 					
 171:Common/Minimal/death.c **** static portTASK_FUNCTION( vSuicidalTask, pvParameters )
 172:Common/Minimal/death.c **** {
 158              		.loc 1 172 0
 159              		.cfi_startproc
 160              		@ args = 0, pretend = 0, frame = 24
 161              		@ frame_needed = 1, uses_anonymous_args = 0
 162 0000 80B5     		push	{r7, lr}	@
 163              	.LCFI3:
 164              		.cfi_def_cfa_offset 8
 165              		.cfi_offset 7, -8
 166              		.cfi_offset 14, -4
 167 0002 86B0     		sub	sp, sp, #24	@,,
 168              	.LCFI4:
 169              		.cfi_def_cfa_offset 32
ARM GAS  C:\Users\Grzybek\AppData\Local\Temp\ccIx2jEH.s 			page 7


 170 0004 00AF     		add	r7, sp, #0	@,,
 171              	.LCFI5:
 172              		.cfi_def_cfa_register 7
 173 0006 7860     		str	r0, [r7, #4]	@ pvParameters, pvParameters
 173:Common/Minimal/death.c **** volatile long l1, l2;
 174:Common/Minimal/death.c **** xTaskHandle xTaskToKill;
 175:Common/Minimal/death.c **** const portTickType xDelay = ( portTickType ) 200 / portTICK_RATE_MS;
 174              		.loc 1 175 0
 175 0008 4FF0C803 		mov	r3, #200	@ tmp137,
 176 000c 3B61     		str	r3, [r7, #16]	@ tmp137, xDelay
 176:Common/Minimal/death.c **** 
 177:Common/Minimal/death.c **** 	if( pvParameters != NULL )
 177              		.loc 1 177 0
 178 000e 7B68     		ldr	r3, [r7, #4]	@ tmp138, pvParameters
 179 0010 002B     		cmp	r3, #0	@ tmp138,
 180 0012 03D0     		beq	.L5	@,
 178:Common/Minimal/death.c **** 	{
 179:Common/Minimal/death.c **** 		/* This task is periodically created four times.  Two created tasks are
 180:Common/Minimal/death.c **** 		passed a handle to the other task so it can kill it before killing itself.
 181:Common/Minimal/death.c **** 		The other task is passed in null. */
 182:Common/Minimal/death.c **** 		xTaskToKill = *( xTaskHandle* )pvParameters;
 181              		.loc 1 182 0
 182 0014 7B68     		ldr	r3, [r7, #4]	@ tmp139, pvParameters
 183 0016 1B68     		ldr	r3, [r3, #0]	@ tmp140, MEM[(void * *)pvParameters_3(D)]
 184 0018 7B61     		str	r3, [r7, #20]	@ tmp140, xTaskToKill
 185 001a 04E0     		b	.L6	@
 186              	.L5:
 183:Common/Minimal/death.c **** 	}
 184:Common/Minimal/death.c **** 	else
 185:Common/Minimal/death.c **** 	{
 186:Common/Minimal/death.c **** 		xTaskToKill = NULL;
 187              		.loc 1 186 0
 188 001c 4FF00003 		mov	r3, #0	@ tmp141,
 189 0020 7B61     		str	r3, [r7, #20]	@ tmp141, xTaskToKill
 190 0022 00E0     		b	.L6	@
 191              	.L8:
 187:Common/Minimal/death.c **** 	}
 188:Common/Minimal/death.c **** 
 189:Common/Minimal/death.c **** 	for( ;; )
 190:Common/Minimal/death.c **** 	{
 191:Common/Minimal/death.c **** 		/* Do something random just to use some stack and registers. */
 192:Common/Minimal/death.c **** 		l1 = 2;
 193:Common/Minimal/death.c **** 		l2 = 89;
 194:Common/Minimal/death.c **** 		l2 *= l1;
 195:Common/Minimal/death.c **** 		vTaskDelay( xDelay );
 196:Common/Minimal/death.c **** 
 197:Common/Minimal/death.c **** 		if( xTaskToKill != NULL )
 198:Common/Minimal/death.c **** 		{
 199:Common/Minimal/death.c **** 			/* Make sure the other task has a go before we delete it. */
 200:Common/Minimal/death.c **** 			vTaskDelay( ( portTickType ) 0 );
 201:Common/Minimal/death.c **** 
 202:Common/Minimal/death.c **** 			/* Kill the other task that was created by vCreateTasks(). */
 203:Common/Minimal/death.c **** 			vTaskDelete( xTaskToKill );
 204:Common/Minimal/death.c **** 
 205:Common/Minimal/death.c **** 			/* Kill ourselves. */
 206:Common/Minimal/death.c **** 			vTaskDelete( NULL );
 207:Common/Minimal/death.c **** 		}
ARM GAS  C:\Users\Grzybek\AppData\Local\Temp\ccIx2jEH.s 			page 8


 208:Common/Minimal/death.c **** 	}
 192              		.loc 1 208 0
 193 0024 00BF     		nop
 194              	.L6:
 192:Common/Minimal/death.c **** 		l1 = 2;
 195              		.loc 1 192 0
 196 0026 4FF00203 		mov	r3, #2	@ tmp142,
 197 002a FB60     		str	r3, [r7, #12]	@ tmp142, l1
 193:Common/Minimal/death.c **** 		l2 = 89;
 198              		.loc 1 193 0
 199 002c 4FF05903 		mov	r3, #89	@ tmp143,
 200 0030 BB60     		str	r3, [r7, #8]	@ tmp143, l2
 194:Common/Minimal/death.c **** 		l2 *= l1;
 201              		.loc 1 194 0
 202 0032 BB68     		ldr	r3, [r7, #8]	@ l2.11, l2
 203 0034 FA68     		ldr	r2, [r7, #12]	@ l1.12, l1
 204 0036 02FB03F3 		mul	r3, r2, r3	@ l2.13, l1.12, l2.11
 205 003a BB60     		str	r3, [r7, #8]	@ l2.13, l2
 195:Common/Minimal/death.c **** 		vTaskDelay( xDelay );
 206              		.loc 1 195 0
 207 003c 3869     		ldr	r0, [r7, #16]	@, xDelay
 208 003e FFF7FEFF 		bl	vTaskDelay	@
 197:Common/Minimal/death.c **** 		if( xTaskToKill != NULL )
 209              		.loc 1 197 0
 210 0042 7B69     		ldr	r3, [r7, #20]	@ tmp144, xTaskToKill
 211 0044 002B     		cmp	r3, #0	@ tmp144,
 212 0046 EDD0     		beq	.L8	@,
 200:Common/Minimal/death.c **** 			vTaskDelay( ( portTickType ) 0 );
 213              		.loc 1 200 0
 214 0048 4FF00000 		mov	r0, #0	@,
 215 004c FFF7FEFF 		bl	vTaskDelay	@
 203:Common/Minimal/death.c **** 			vTaskDelete( xTaskToKill );
 216              		.loc 1 203 0
 217 0050 7869     		ldr	r0, [r7, #20]	@, xTaskToKill
 218 0052 FFF7FEFF 		bl	vTaskDelete	@
 206:Common/Minimal/death.c **** 			vTaskDelete( NULL );
 219              		.loc 1 206 0
 220 0056 4FF00000 		mov	r0, #0	@,
 221 005a FFF7FEFF 		bl	vTaskDelete	@
 222              		.loc 1 208 0
 223 005e E1E7     		b	.L8	@
 224              		.cfi_endproc
 225              	.LFE1:
 226              		.size	vSuicidalTask, .-vSuicidalTask
 227              		.section	.rodata
 228              		.align	2
 229              	.LC1:
 230 0008 53554943 		.ascii	"SUICID1\000"
 230      49443100 
 231              		.align	2
 232              	.LC2:
 233 0010 53554943 		.ascii	"SUICID2\000"
 233      49443200 
 234              		.section	.text.vCreateTasks,"ax",%progbits
 235              		.align	2
 236              		.thumb
 237              		.thumb_func
ARM GAS  C:\Users\Grzybek\AppData\Local\Temp\ccIx2jEH.s 			page 9


 238              		.type	vCreateTasks, %function
 239              	vCreateTasks:
 240              	.LFB2:
 209:Common/Minimal/death.c **** }/*lint !e818 !e550 Function prototype must be as per standard for task functions. */
 210:Common/Minimal/death.c **** /*-----------------------------------------------------------*/
 211:Common/Minimal/death.c **** 
 212:Common/Minimal/death.c **** static portTASK_FUNCTION( vCreateTasks, pvParameters )
 213:Common/Minimal/death.c **** {
 241              		.loc 1 213 0
 242              		.cfi_startproc
 243              		@ args = 0, pretend = 0, frame = 16
 244              		@ frame_needed = 1, uses_anonymous_args = 0
 245 0000 80B5     		push	{r7, lr}	@
 246              	.LCFI6:
 247              		.cfi_def_cfa_offset 8
 248              		.cfi_offset 7, -8
 249              		.cfi_offset 14, -4
 250 0002 88B0     		sub	sp, sp, #32	@,,
 251              	.LCFI7:
 252              		.cfi_def_cfa_offset 40
 253 0004 04AF     		add	r7, sp, #16	@,,
 254              	.LCFI8:
 255              		.cfi_def_cfa 7, 24
 256 0006 7860     		str	r0, [r7, #4]	@ pvParameters, pvParameters
 214:Common/Minimal/death.c **** const portTickType xDelay = ( portTickType ) 1000 / portTICK_RATE_MS;
 257              		.loc 1 214 0
 258 0008 4FF47A73 		mov	r3, #1000	@ tmp136,
 259 000c FB60     		str	r3, [r7, #12]	@ tmp136, xDelay
 215:Common/Minimal/death.c **** unsigned portBASE_TYPE uxPriority;
 216:Common/Minimal/death.c **** 
 217:Common/Minimal/death.c **** 	uxPriority = *( unsigned portBASE_TYPE * ) pvParameters;
 260              		.loc 1 217 0
 261 000e 7B68     		ldr	r3, [r7, #4]	@ tmp137, pvParameters
 262 0010 1B68     		ldr	r3, [r3, #0]	@ tmp138, MEM[(long unsigned int *)pvParameters_2(D)]
 263 0012 BB60     		str	r3, [r7, #8]	@ tmp138, uxPriority
 218:Common/Minimal/death.c **** 	vPortFree( pvParameters );
 264              		.loc 1 218 0
 265 0014 7868     		ldr	r0, [r7, #4]	@, pvParameters
 266 0016 FFF7FEFF 		bl	vPortFree	@
 267              	.L10:
 219:Common/Minimal/death.c **** 
 220:Common/Minimal/death.c **** 	for( ;; )
 221:Common/Minimal/death.c **** 	{
 222:Common/Minimal/death.c **** 		/* Just loop round, delaying then creating the four suicidal tasks. */
 223:Common/Minimal/death.c **** 		vTaskDelay( xDelay );
 268              		.loc 1 223 0 discriminator 1
 269 001a F868     		ldr	r0, [r7, #12]	@, xDelay
 270 001c FFF7FEFF 		bl	vTaskDelay	@
 224:Common/Minimal/death.c **** 
 225:Common/Minimal/death.c **** 		xCreatedTask = NULL;
 271              		.loc 1 225 0 discriminator 1
 272 0020 184B     		ldr	r3, .L11	@ tmp139,
 273 0022 4FF00002 		mov	r2, #0	@ tmp140,
 274 0026 1A60     		str	r2, [r3, #0]	@ tmp140, xCreatedTask
 226:Common/Minimal/death.c **** 
 227:Common/Minimal/death.c **** 		xTaskCreate( vSuicidalTask, ( signed char * ) "SUICID1", configMINIMAL_STACK_SIZE, NULL, uxPriori
 275              		.loc 1 227 0 discriminator 1
ARM GAS  C:\Users\Grzybek\AppData\Local\Temp\ccIx2jEH.s 			page 10


 276 0028 BB68     		ldr	r3, [r7, #8]	@ tmp141, uxPriority
 277 002a 0093     		str	r3, [sp, #0]	@ tmp141,
 278 002c 154B     		ldr	r3, .L11	@ tmp142,
 279 002e 0193     		str	r3, [sp, #4]	@ tmp142,
 280 0030 4FF00003 		mov	r3, #0	@ tmp143,
 281 0034 0293     		str	r3, [sp, #8]	@ tmp143,
 282 0036 4FF00003 		mov	r3, #0	@ tmp144,
 283 003a 0393     		str	r3, [sp, #12]	@ tmp144,
 284 003c 1248     		ldr	r0, .L11+4	@,
 285 003e 1349     		ldr	r1, .L11+8	@,
 286 0040 4FF08002 		mov	r2, #128	@,
 287 0044 4FF00003 		mov	r3, #0	@,
 288 0048 FFF7FEFF 		bl	xTaskGenericCreate	@
 228:Common/Minimal/death.c **** 		xTaskCreate( vSuicidalTask, ( signed char * ) "SUICID2", configMINIMAL_STACK_SIZE, &xCreatedTask,
 289              		.loc 1 228 0 discriminator 1
 290 004c BB68     		ldr	r3, [r7, #8]	@ tmp145, uxPriority
 291 004e 0093     		str	r3, [sp, #0]	@ tmp145,
 292 0050 4FF00003 		mov	r3, #0	@ tmp146,
 293 0054 0193     		str	r3, [sp, #4]	@ tmp146,
 294 0056 4FF00003 		mov	r3, #0	@ tmp147,
 295 005a 0293     		str	r3, [sp, #8]	@ tmp147,
 296 005c 4FF00003 		mov	r3, #0	@ tmp148,
 297 0060 0393     		str	r3, [sp, #12]	@ tmp148,
 298 0062 0948     		ldr	r0, .L11+4	@,
 299 0064 0A49     		ldr	r1, .L11+12	@,
 300 0066 4FF08002 		mov	r2, #128	@,
 301 006a 064B     		ldr	r3, .L11	@,
 302 006c FFF7FEFF 		bl	xTaskGenericCreate	@
 229:Common/Minimal/death.c **** 
 230:Common/Minimal/death.c **** 		++usCreationCount;
 303              		.loc 1 230 0 discriminator 1
 304 0070 084B     		ldr	r3, .L11+16	@ tmp149,
 305 0072 1B88     		ldrh	r3, [r3, #0]	@ movhi	@ tmp150, usCreationCount
 306 0074 9BB2     		uxth	r3, r3	@ usCreationCount.9, tmp150
 307 0076 03F10103 		add	r3, r3, #1	@ tmp151, usCreationCount.9,
 308 007a 9AB2     		uxth	r2, r3	@ usCreationCount.10, tmp151
 309 007c 054B     		ldr	r3, .L11+16	@ tmp152,
 310 007e 1A80     		strh	r2, [r3, #0]	@ movhi	@ tmp153, usCreationCount
 231:Common/Minimal/death.c **** 	}
 311              		.loc 1 231 0 discriminator 1
 312 0080 CBE7     		b	.L10	@
 313              	.L12:
 314 0082 00BF     		.align	2
 315              	.L11:
 316 0084 00000000 		.word	xCreatedTask
 317 0088 00000000 		.word	vSuicidalTask
 318 008c 08000000 		.word	.LC1
 319 0090 10000000 		.word	.LC2
 320 0094 00000000 		.word	usCreationCount
 321              		.cfi_endproc
 322              	.LFE2:
 323              		.size	vCreateTasks, .-vCreateTasks
 324              		.section	.text.xIsCreateTaskStillRunning,"ax",%progbits
 325              		.align	2
 326              		.global	xIsCreateTaskStillRunning
 327              		.thumb
 328              		.thumb_func
ARM GAS  C:\Users\Grzybek\AppData\Local\Temp\ccIx2jEH.s 			page 11


 329              		.type	xIsCreateTaskStillRunning, %function
 330              	xIsCreateTaskStillRunning:
 331              	.LFB3:
 232:Common/Minimal/death.c **** }
 233:Common/Minimal/death.c **** /*-----------------------------------------------------------*/
 234:Common/Minimal/death.c **** 
 235:Common/Minimal/death.c **** /* This is called to check that the creator task is still running and that there
 236:Common/Minimal/death.c **** are not any more than four extra tasks. */
 237:Common/Minimal/death.c **** portBASE_TYPE xIsCreateTaskStillRunning( void )
 238:Common/Minimal/death.c **** {
 332              		.loc 1 238 0
 333              		.cfi_startproc
 334              		@ args = 0, pretend = 0, frame = 8
 335              		@ frame_needed = 1, uses_anonymous_args = 0
 336 0000 80B5     		push	{r7, lr}	@
 337              	.LCFI9:
 338              		.cfi_def_cfa_offset 8
 339              		.cfi_offset 7, -8
 340              		.cfi_offset 14, -4
 341 0002 82B0     		sub	sp, sp, #8	@,,
 342              	.LCFI10:
 343              		.cfi_def_cfa_offset 16
 344 0004 00AF     		add	r7, sp, #0	@,,
 345              	.LCFI11:
 346              		.cfi_def_cfa_register 7
 239:Common/Minimal/death.c **** static unsigned short usLastCreationCount = 0xfff;
 240:Common/Minimal/death.c **** portBASE_TYPE xReturn = pdTRUE;
 347              		.loc 1 240 0
 348 0006 4FF00103 		mov	r3, #1	@ tmp146,
 349 000a 7B60     		str	r3, [r7, #4]	@ tmp146, xReturn
 241:Common/Minimal/death.c **** static unsigned portBASE_TYPE uxTasksRunningNow;
 242:Common/Minimal/death.c **** 
 243:Common/Minimal/death.c **** 	if( usLastCreationCount == usCreationCount )
 350              		.loc 1 243 0
 351 000c 184B     		ldr	r3, .L19	@ tmp147,
 352 000e 1A88     		ldrh	r2, [r3, #0]	@ usLastCreationCount.0, usLastCreationCount
 353 0010 184B     		ldr	r3, .L19+4	@ tmp148,
 354 0012 1B88     		ldrh	r3, [r3, #0]	@ movhi	@ tmp149, usCreationCount
 355 0014 9BB2     		uxth	r3, r3	@ usCreationCount.1, tmp149
 356 0016 9A42     		cmp	r2, r3	@ usLastCreationCount.0, usCreationCount.1
 357 0018 03D1     		bne	.L14	@,
 244:Common/Minimal/death.c **** 	{
 245:Common/Minimal/death.c **** 		xReturn = pdFALSE;
 358              		.loc 1 245 0
 359 001a 4FF00003 		mov	r3, #0	@ tmp150,
 360 001e 7B60     		str	r3, [r7, #4]	@ tmp150, xReturn
 361 0020 04E0     		b	.L15	@
 362              	.L14:
 246:Common/Minimal/death.c **** 	}
 247:Common/Minimal/death.c **** 	else
 248:Common/Minimal/death.c **** 	{
 249:Common/Minimal/death.c **** 		usLastCreationCount = usCreationCount;
 363              		.loc 1 249 0
 364 0022 144B     		ldr	r3, .L19+4	@ tmp151,
 365 0024 1B88     		ldrh	r3, [r3, #0]	@ movhi	@ tmp152, usCreationCount
 366 0026 9AB2     		uxth	r2, r3	@ usCreationCount.2, tmp152
 367 0028 114B     		ldr	r3, .L19	@ tmp153,
ARM GAS  C:\Users\Grzybek\AppData\Local\Temp\ccIx2jEH.s 			page 12


 368 002a 1A80     		strh	r2, [r3, #0]	@ movhi	@ tmp154, usLastCreationCount
 369              	.L15:
 250:Common/Minimal/death.c **** 	}
 251:Common/Minimal/death.c **** 	
 252:Common/Minimal/death.c **** 	uxTasksRunningNow = ( unsigned portBASE_TYPE ) uxTaskGetNumberOfTasks();
 370              		.loc 1 252 0
 371 002c FFF7FEFF 		bl	uxTaskGetNumberOfTasks	@
 372 0030 0246     		mov	r2, r0	@ uxTasksRunningNow.3,
 373 0032 114B     		ldr	r3, .L19+8	@ tmp155,
 374 0034 1A60     		str	r2, [r3, #0]	@ uxTasksRunningNow.3, uxTasksRunningNow
 253:Common/Minimal/death.c **** 
 254:Common/Minimal/death.c **** 	if( uxTasksRunningNow < uxTasksRunningAtStart )
 375              		.loc 1 254 0
 376 0036 104B     		ldr	r3, .L19+8	@ tmp156,
 377 0038 1A68     		ldr	r2, [r3, #0]	@ uxTasksRunningNow.4, uxTasksRunningNow
 378 003a 104B     		ldr	r3, .L19+12	@ tmp157,
 379 003c 1B68     		ldr	r3, [r3, #0]	@ uxTasksRunningAtStart.5, uxTasksRunningAtStart
 380 003e 9A42     		cmp	r2, r3	@ uxTasksRunningNow.4, uxTasksRunningAtStart.5
 381 0040 03D2     		bcs	.L16	@,
 255:Common/Minimal/death.c **** 	{
 256:Common/Minimal/death.c **** 		xReturn = pdFALSE;
 382              		.loc 1 256 0
 383 0042 4FF00003 		mov	r3, #0	@ tmp158,
 384 0046 7B60     		str	r3, [r7, #4]	@ tmp158, xReturn
 385 0048 0BE0     		b	.L17	@
 386              	.L16:
 257:Common/Minimal/death.c **** 	}
 258:Common/Minimal/death.c **** 	else if( ( uxTasksRunningNow - uxTasksRunningAtStart ) > uxMaxNumberOfExtraTasksRunning )
 387              		.loc 1 258 0
 388 004a 0B4B     		ldr	r3, .L19+8	@ tmp159,
 389 004c 1A68     		ldr	r2, [r3, #0]	@ uxTasksRunningNow.6, uxTasksRunningNow
 390 004e 0B4B     		ldr	r3, .L19+12	@ tmp160,
 391 0050 1B68     		ldr	r3, [r3, #0]	@ uxTasksRunningAtStart.7, uxTasksRunningAtStart
 392 0052 D21A     		subs	r2, r2, r3	@ D.4875, uxTasksRunningNow.6, uxTasksRunningAtStart.7
 393 0054 0A4B     		ldr	r3, .L19+16	@ tmp161,
 394 0056 1B68     		ldr	r3, [r3, #0]	@ uxMaxNumberOfExtraTasksRunning.8, uxMaxNumberOfExtraTasksRunning
 395 0058 9A42     		cmp	r2, r3	@ D.4875, uxMaxNumberOfExtraTasksRunning.8
 396 005a 02D9     		bls	.L17	@,
 259:Common/Minimal/death.c **** 	{
 260:Common/Minimal/death.c **** 		xReturn = pdFALSE;
 397              		.loc 1 260 0
 398 005c 4FF00003 		mov	r3, #0	@ tmp162,
 399 0060 7B60     		str	r3, [r7, #4]	@ tmp162, xReturn
 400              	.L17:
 261:Common/Minimal/death.c **** 	}
 262:Common/Minimal/death.c **** 	else
 263:Common/Minimal/death.c **** 	{
 264:Common/Minimal/death.c **** 		/* Everything is okay. */
 265:Common/Minimal/death.c **** 	}
 266:Common/Minimal/death.c **** 
 267:Common/Minimal/death.c **** 	return xReturn;
 401              		.loc 1 267 0
 402 0062 7B68     		ldr	r3, [r7, #4]	@ D.4880, xReturn
 268:Common/Minimal/death.c **** }
 403              		.loc 1 268 0
 404 0064 1846     		mov	r0, r3	@, <retval>
 405 0066 07F10807 		add	r7, r7, #8	@,,
ARM GAS  C:\Users\Grzybek\AppData\Local\Temp\ccIx2jEH.s 			page 13


 406 006a BD46     		mov	sp, r7
 407 006c 80BD     		pop	{r7, pc}
 408              	.L20:
 409 006e 00BF     		.align	2
 410              	.L19:
 411 0070 00000000 		.word	usLastCreationCount.4855
 412 0074 00000000 		.word	usCreationCount
 413 0078 00000000 		.word	uxTasksRunningNow.4857
 414 007c 00000000 		.word	uxTasksRunningAtStart
 415 0080 00000000 		.word	uxMaxNumberOfExtraTasksRunning
 416              		.cfi_endproc
 417              	.LFE3:
 418              		.size	xIsCreateTaskStillRunning, .-xIsCreateTaskStillRunning
 419              		.section	.data.usLastCreationCount.4855,"aw",%progbits
 420              		.align	1
 421              		.type	usLastCreationCount.4855, %object
 422              		.size	usLastCreationCount.4855, 2
 423              	usLastCreationCount.4855:
 424 0000 FF0F     		.short	4095
 425              		.section	.bss.uxTasksRunningNow.4857,"aw",%nobits
 426              		.align	2
 427              		.type	uxTasksRunningNow.4857, %object
 428              		.size	uxTasksRunningNow.4857, 4
 429              	uxTasksRunningNow.4857:
 430 0000 00000000 		.space	4
 431              		.text
 432              	.Letext0:
 433              		.file 2 "./Source/include/../../Source/portable/GCC/ARM_CM3/portmacro.h"
 434              		.file 3 "./Source/include/task.h"