ARM GAS  C:\Users\Grzybek\AppData\Local\Temp\cclUOO6G.s 			page 1


   1              		.syntax unified
   2              		.cpu cortex-m3
   3              		.fpu softvfp
   4              		.eabi_attribute 20, 1	@ Tag_ABI_FP_denormal
   5              		.eabi_attribute 21, 1	@ Tag_ABI_FP_exceptions
   6              		.eabi_attribute 23, 3	@ Tag_ABI_FP_number_model
   7              		.eabi_attribute 24, 1	@ Tag_ABI_align8_needed
   8              		.eabi_attribute 25, 1	@ Tag_ABI_align8_preserved
   9              		.eabi_attribute 26, 1	@ Tag_ABI_enum_size
  10              		.eabi_attribute 30, 6	@ Tag_ABI_optimization_goals
  11              		.eabi_attribute 34, 1	@ Tag_CPU_unaligned_access
  12              		.eabi_attribute 18, 4	@ Tag_ABI_PCS_wchar_t
  13              		.file	"flash.c"
  14              	@ GNU C (Sourcery CodeBench Lite 2012.09-63) version 4.7.2 (arm-none-eabi)
  15              	@	compiled by GNU C version 4.3.2, GMP version 5.0.5, MPFR version 3.1.1-p2, MPC version 1.0.1
  16              	@ GGC heuristics: --param ggc-min-expand=100 --param ggc-min-heapsize=131072
  17              	@ options passed:  -I . -I ./STCode -I ./Source/include
  18              	@ -I ./Source/portable/GCC/ARM_CM3 -I ./Common/include
  19              	@ -I ./Common/drivers/ST/STM32F10xFWLib/v3_2_0/Libraries/STM32F10x_StdPeriph_Driver/inc
  20              	@ -I ./Common/drivers/ST/STM32F10xFWLib/v3_2_0/Libraries/CMSIS/CM3/CoreSupport
  21              	@ -I ./Common/drivers/ST/STM32F10xFWLib/v3_2_0/Libraries/CMSIS/CM3/DeviceSupport/ST/STM32F10x
  22              	@ -imultilib thumb2
  23              	@ -iprefix c:\codesourcery\sourcery_codebench_lite_for_arm_eabi\bin\../lib/gcc/arm-none-eabi/4.7.2/
  24              	@ -isysroot c:\codesourcery\sourcery_codebench_lite_for_arm_eabi\bin\../arm-none-eabi
  25              	@ -D__USES_INITFINI__ -D STM32F10X_HD -D USE_STDPERIPH_DRIVER
  26              	@ -D VECT_TAB_FLASH -D GCC_ARMCM3 -D inline=
  27              	@ -D PACK_STRUCT_END=__attribute((packed))
  28              	@ -D ALIGN_STRUCT_END=__attribute((aligned(4)))
  29              	@ -D __CS_SOURCERYGXX_MAJ__=2012 -D __CS_SOURCERYGXX_MIN__=9
  30              	@ -D __CS_SOURCERYGXX_REV__=63 Common/Minimal/flash.c -mthumb
  31              	@ -mcpu=cortex-m3 -auxbase-strip Debug/flash.o -g3 -gdwarf-2 -O0 -std=gnu99
  32              	@ -ffunction-sections -fdata-sections -fmessage-length=0 -fverbose-asm
  33              	@ options enabled:  -fauto-inc-dec -fbranch-count-reg -fcommon
  34              	@ -fdata-sections -fdebug-types-section -fdelete-null-pointer-checks
  35              	@ -fdwarf2-cfi-asm -fearly-inlining -feliminate-unused-debug-types
  36              	@ -ffunction-cse -ffunction-sections -fgcse-lm -fgnu-runtime -fident
  37              	@ -finline-atomics -fira-share-save-slots -fira-share-spill-slots -fivopts
  38              	@ -fkeep-static-consts -fleading-underscore -fmath-errno
  39              	@ -fmerge-debug-strings -fmove-loop-invariants -fpeephole
  40              	@ -fprefetch-loop-arrays -freg-struct-return
  41              	@ -fsched-critical-path-heuristic -fsched-dep-count-heuristic
  42              	@ -fsched-group-heuristic -fsched-interblock -fsched-last-insn-heuristic
  43              	@ -fsched-rank-heuristic -fsched-spec -fsched-spec-insn-heuristic
  44              	@ -fsched-stalled-insns-dep -fshow-column -fsigned-zeros
  45              	@ -fsplit-ivs-in-unroller -fstrict-volatile-bitfields -ftrapping-math
  46              	@ -ftree-cselim -ftree-forwprop -ftree-loop-if-convert -ftree-loop-im
  47              	@ -ftree-loop-ivcanon -ftree-loop-optimize -ftree-parallelize-loops=
  48              	@ -ftree-phiprop -ftree-pta -ftree-reassoc -ftree-scev-cprop
  49              	@ -ftree-slp-vectorize -ftree-vect-loop-version -funit-at-a-time
  50              	@ -fverbose-asm -fzero-initialized-in-bss -mfix-cortex-m3-ldrd
  51              	@ -mlittle-endian -msched-prolog -mthumb -munaligned-access
  52              	@ -mvectorize-with-neon-quad
  53              	
  54              		.text
  55              	.Ltext0:
  56              		.cfi_sections	.debug_frame
  57              		.section	.bss.uxFlashTaskNumber,"aw",%nobits
ARM GAS  C:\Users\Grzybek\AppData\Local\Temp\cclUOO6G.s 			page 2


  58              		.align	2
  59              		.type	uxFlashTaskNumber, %object
  60              		.size	uxFlashTaskNumber, 4
  61              	uxFlashTaskNumber:
  62 0000 00000000 		.space	4
  63              		.section	.rodata
  64              		.align	2
  65              	.LC0:
  66 0000 4C454478 		.ascii	"LEDx\000"
  66      00
  67 0005 000000   		.section	.text.vStartLEDFlashTasks,"ax",%progbits
  68              		.align	2
  69              		.global	vStartLEDFlashTasks
  70              		.thumb
  71              		.thumb_func
  72              		.type	vStartLEDFlashTasks, %function
  73              	vStartLEDFlashTasks:
  74              	.LFB0:
  75              		.file 1 "Common/Minimal/flash.c"
   1:Common/Minimal/flash.c **** /*
   2:Common/Minimal/flash.c ****     FreeRTOS V7.3.0 - Copyright (C) 2012 Real Time Engineers Ltd.
   3:Common/Minimal/flash.c **** 
   4:Common/Minimal/flash.c ****     FEATURES AND PORTS ARE ADDED TO FREERTOS ALL THE TIME.  PLEASE VISIT 
   5:Common/Minimal/flash.c ****     http://www.FreeRTOS.org TO ENSURE YOU ARE USING THE LATEST VERSION.
   6:Common/Minimal/flash.c **** 
   7:Common/Minimal/flash.c ****     ***************************************************************************
   8:Common/Minimal/flash.c ****      *                                                                       *
   9:Common/Minimal/flash.c ****      *    FreeRTOS tutorial books are available in pdf and paperback.        *
  10:Common/Minimal/flash.c ****      *    Complete, revised, and edited pdf reference manuals are also       *
  11:Common/Minimal/flash.c ****      *    available.                                                         *
  12:Common/Minimal/flash.c ****      *                                                                       *
  13:Common/Minimal/flash.c ****      *    Purchasing FreeRTOS documentation will not only help you, by       *
  14:Common/Minimal/flash.c ****      *    ensuring you get running as quickly as possible and with an        *
  15:Common/Minimal/flash.c ****      *    in-depth knowledge of how to use FreeRTOS, it will also help       *
  16:Common/Minimal/flash.c ****      *    the FreeRTOS project to continue with its mission of providing     *
  17:Common/Minimal/flash.c ****      *    professional grade, cross platform, de facto standard solutions    *
  18:Common/Minimal/flash.c ****      *    for microcontrollers - completely free of charge!                  *
  19:Common/Minimal/flash.c ****      *                                                                       *
  20:Common/Minimal/flash.c ****      *    >>> See http://www.FreeRTOS.org/Documentation for details. <<<     *
  21:Common/Minimal/flash.c ****      *                                                                       *
  22:Common/Minimal/flash.c ****      *    Thank you for using FreeRTOS, and thank you for your support!      *
  23:Common/Minimal/flash.c ****      *                                                                       *
  24:Common/Minimal/flash.c ****     ***************************************************************************
  25:Common/Minimal/flash.c **** 
  26:Common/Minimal/flash.c **** 
  27:Common/Minimal/flash.c ****     This file is part of the FreeRTOS distribution.
  28:Common/Minimal/flash.c **** 
  29:Common/Minimal/flash.c ****     FreeRTOS is free software; you can redistribute it and/or modify it under
  30:Common/Minimal/flash.c ****     the terms of the GNU General Public License (version 2) as published by the
  31:Common/Minimal/flash.c ****     Free Software Foundation AND MODIFIED BY the FreeRTOS exception.
  32:Common/Minimal/flash.c ****     >>>NOTE<<< The modification to the GPL is included to allow you to
  33:Common/Minimal/flash.c ****     distribute a combined work that includes FreeRTOS without being obliged to
  34:Common/Minimal/flash.c ****     provide the source code for proprietary components outside of the FreeRTOS
  35:Common/Minimal/flash.c ****     kernel.  FreeRTOS is distributed in the hope that it will be useful, but
  36:Common/Minimal/flash.c ****     WITHOUT ANY WARRANTY; without even the implied warranty of MERCHANTABILITY
  37:Common/Minimal/flash.c ****     or FITNESS FOR A PARTICULAR PURPOSE.  See the GNU General Public License for
  38:Common/Minimal/flash.c ****     more details. You should have received a copy of the GNU General Public
ARM GAS  C:\Users\Grzybek\AppData\Local\Temp\cclUOO6G.s 			page 3


  39:Common/Minimal/flash.c ****     License and the FreeRTOS license exception along with FreeRTOS; if not it
  40:Common/Minimal/flash.c ****     can be viewed here: http://www.freertos.org/a00114.html and also obtained
  41:Common/Minimal/flash.c ****     by writing to Richard Barry, contact details for whom are available on the
  42:Common/Minimal/flash.c ****     FreeRTOS WEB site.
  43:Common/Minimal/flash.c **** 
  44:Common/Minimal/flash.c ****     1 tab == 4 spaces!
  45:Common/Minimal/flash.c ****     
  46:Common/Minimal/flash.c ****     ***************************************************************************
  47:Common/Minimal/flash.c ****      *                                                                       *
  48:Common/Minimal/flash.c ****      *    Having a problem?  Start by reading the FAQ "My application does   *
  49:Common/Minimal/flash.c ****      *    not run, what could be wrong?"                                     *
  50:Common/Minimal/flash.c ****      *                                                                       *
  51:Common/Minimal/flash.c ****      *    http://www.FreeRTOS.org/FAQHelp.html                               *
  52:Common/Minimal/flash.c ****      *                                                                       *
  53:Common/Minimal/flash.c ****     ***************************************************************************
  54:Common/Minimal/flash.c **** 
  55:Common/Minimal/flash.c ****     
  56:Common/Minimal/flash.c ****     http://www.FreeRTOS.org - Documentation, training, latest versions, license 
  57:Common/Minimal/flash.c ****     and contact details.  
  58:Common/Minimal/flash.c ****     
  59:Common/Minimal/flash.c ****     http://www.FreeRTOS.org/plus - A selection of FreeRTOS ecosystem products,
  60:Common/Minimal/flash.c ****     including FreeRTOS+Trace - an indispensable productivity tool.
  61:Common/Minimal/flash.c **** 
  62:Common/Minimal/flash.c ****     Real Time Engineers ltd license FreeRTOS to High Integrity Systems, who sell 
  63:Common/Minimal/flash.c ****     the code with commercial support, indemnification, and middleware, under 
  64:Common/Minimal/flash.c ****     the OpenRTOS brand: http://www.OpenRTOS.com.  High Integrity Systems also
  65:Common/Minimal/flash.c ****     provide a safety engineered and independently SIL3 certified version under 
  66:Common/Minimal/flash.c ****     the SafeRTOS brand: http://www.SafeRTOS.com.
  67:Common/Minimal/flash.c **** */
  68:Common/Minimal/flash.c **** 
  69:Common/Minimal/flash.c **** /**
  70:Common/Minimal/flash.c ****  * This version of flash .c is for use on systems that have limited stack space
  71:Common/Minimal/flash.c ****  * and no display facilities.  The complete version can be found in the 
  72:Common/Minimal/flash.c ****  * Demo/Common/Full directory.
  73:Common/Minimal/flash.c ****  * 
  74:Common/Minimal/flash.c ****  * Three tasks are created, each of which flash an LED at a different rate.  The first 
  75:Common/Minimal/flash.c ****  * LED flashes every 200ms, the second every 400ms, the third every 600ms.
  76:Common/Minimal/flash.c ****  *
  77:Common/Minimal/flash.c ****  * The LED flash tasks provide instant visual feedback.  They show that the scheduler 
  78:Common/Minimal/flash.c ****  * is still operational.
  79:Common/Minimal/flash.c ****  *
  80:Common/Minimal/flash.c ****  */
  81:Common/Minimal/flash.c **** 
  82:Common/Minimal/flash.c **** 
  83:Common/Minimal/flash.c **** #include <stdlib.h>
  84:Common/Minimal/flash.c **** 
  85:Common/Minimal/flash.c **** /* Scheduler include files. */
  86:Common/Minimal/flash.c **** #include "FreeRTOS.h"
  87:Common/Minimal/flash.c **** #include "task.h"
  88:Common/Minimal/flash.c **** 
  89:Common/Minimal/flash.c **** /* Demo program include files. */
  90:Common/Minimal/flash.c **** #include "partest.h"
  91:Common/Minimal/flash.c **** #include "flash.h"
  92:Common/Minimal/flash.c **** 
  93:Common/Minimal/flash.c **** #define ledSTACK_SIZE		configMINIMAL_STACK_SIZE
  94:Common/Minimal/flash.c **** #define ledNUMBER_OF_LEDS	( 3 )
  95:Common/Minimal/flash.c **** #define ledFLASH_RATE_BASE	( ( portTickType ) 333 )
ARM GAS  C:\Users\Grzybek\AppData\Local\Temp\cclUOO6G.s 			page 4


  96:Common/Minimal/flash.c **** 
  97:Common/Minimal/flash.c **** /* Variable used by the created tasks to calculate the LED number to use, and
  98:Common/Minimal/flash.c **** the rate at which they should flash the LED. */
  99:Common/Minimal/flash.c **** static volatile unsigned portBASE_TYPE uxFlashTaskNumber = 0;
 100:Common/Minimal/flash.c **** 
 101:Common/Minimal/flash.c **** /* The task that is created three times. */
 102:Common/Minimal/flash.c **** static portTASK_FUNCTION_PROTO( vLEDFlashTask, pvParameters );
 103:Common/Minimal/flash.c **** 
 104:Common/Minimal/flash.c **** /*-----------------------------------------------------------*/
 105:Common/Minimal/flash.c **** 
 106:Common/Minimal/flash.c **** void vStartLEDFlashTasks( unsigned portBASE_TYPE uxPriority )
 107:Common/Minimal/flash.c **** {
  76              		.loc 1 107 0
  77              		.cfi_startproc
  78              		@ args = 0, pretend = 0, frame = 16
  79              		@ frame_needed = 1, uses_anonymous_args = 0
  80 0000 80B5     		push	{r7, lr}	@
  81              	.LCFI0:
  82              		.cfi_def_cfa_offset 8
  83              		.cfi_offset 7, -8
  84              		.cfi_offset 14, -4
  85 0002 88B0     		sub	sp, sp, #32	@,,
  86              	.LCFI1:
  87              		.cfi_def_cfa_offset 40
  88 0004 04AF     		add	r7, sp, #16	@,,
  89              	.LCFI2:
  90              		.cfi_def_cfa 7, 24
  91 0006 7860     		str	r0, [r7, #4]	@ uxPriority, uxPriority
 108:Common/Minimal/flash.c **** signed portBASE_TYPE xLEDTask;
 109:Common/Minimal/flash.c **** 
 110:Common/Minimal/flash.c **** 	/* Create the three tasks. */
 111:Common/Minimal/flash.c **** 	for( xLEDTask = 0; xLEDTask < ledNUMBER_OF_LEDS; ++xLEDTask )
  92              		.loc 1 111 0
  93 0008 4FF00003 		mov	r3, #0	@ tmp134,
  94 000c FB60     		str	r3, [r7, #12]	@ tmp134, xLEDTask
  95 000e 16E0     		b	.L2	@
  96              	.L3:
 112:Common/Minimal/flash.c **** 	{
 113:Common/Minimal/flash.c **** 		/* Spawn the task. */
 114:Common/Minimal/flash.c **** 		xTaskCreate( vLEDFlashTask, ( signed char * ) "LEDx", ledSTACK_SIZE, NULL, uxPriority, ( xTaskHan
  97              		.loc 1 114 0 discriminator 2
  98 0010 7B68     		ldr	r3, [r7, #4]	@ tmp135, uxPriority
  99 0012 0093     		str	r3, [sp, #0]	@ tmp135,
 100 0014 4FF00003 		mov	r3, #0	@ tmp136,
 101 0018 0193     		str	r3, [sp, #4]	@ tmp136,
 102 001a 4FF00003 		mov	r3, #0	@ tmp137,
 103 001e 0293     		str	r3, [sp, #8]	@ tmp137,
 104 0020 4FF00003 		mov	r3, #0	@ tmp138,
 105 0024 0393     		str	r3, [sp, #12]	@ tmp138,
 106 0026 0948     		ldr	r0, .L4	@,
 107 0028 0949     		ldr	r1, .L4+4	@,
 108 002a 4FF08002 		mov	r2, #128	@,
 109 002e 4FF00003 		mov	r3, #0	@,
 110 0032 FFF7FEFF 		bl	xTaskGenericCreate	@
 111:Common/Minimal/flash.c **** 	for( xLEDTask = 0; xLEDTask < ledNUMBER_OF_LEDS; ++xLEDTask )
 111              		.loc 1 111 0 discriminator 2
 112 0036 FB68     		ldr	r3, [r7, #12]	@ tmp140, xLEDTask
ARM GAS  C:\Users\Grzybek\AppData\Local\Temp\cclUOO6G.s 			page 5


 113 0038 03F10103 		add	r3, r3, #1	@ tmp139, tmp140,
 114 003c FB60     		str	r3, [r7, #12]	@ tmp139, xLEDTask
 115              	.L2:
 111:Common/Minimal/flash.c **** 	for( xLEDTask = 0; xLEDTask < ledNUMBER_OF_LEDS; ++xLEDTask )
 116              		.loc 1 111 0 is_stmt 0 discriminator 1
 117 003e FB68     		ldr	r3, [r7, #12]	@ tmp141, xLEDTask
 118 0040 022B     		cmp	r3, #2	@ tmp141,
 119 0042 E5DD     		ble	.L3	@,
 115:Common/Minimal/flash.c **** 	}
 116:Common/Minimal/flash.c **** }
 120              		.loc 1 116 0 is_stmt 1
 121 0044 07F11007 		add	r7, r7, #16	@,,
 122 0048 BD46     		mov	sp, r7
 123 004a 80BD     		pop	{r7, pc}
 124              	.L5:
 125              		.align	2
 126              	.L4:
 127 004c 00000000 		.word	vLEDFlashTask
 128 0050 00000000 		.word	.LC0
 129              		.cfi_endproc
 130              	.LFE0:
 131              		.size	vStartLEDFlashTasks, .-vStartLEDFlashTasks
 132              		.section	.text.vLEDFlashTask,"ax",%progbits
 133              		.align	2
 134              		.thumb
 135              		.thumb_func
 136              		.type	vLEDFlashTask, %function
 137              	vLEDFlashTask:
 138              	.LFB1:
 117:Common/Minimal/flash.c **** /*-----------------------------------------------------------*/
 118:Common/Minimal/flash.c **** 
 119:Common/Minimal/flash.c **** static portTASK_FUNCTION( vLEDFlashTask, pvParameters )
 120:Common/Minimal/flash.c **** {
 139              		.loc 1 120 0
 140              		.cfi_startproc
 141              		@ args = 0, pretend = 0, frame = 24
 142              		@ frame_needed = 1, uses_anonymous_args = 0
 143 0000 80B5     		push	{r7, lr}	@
 144              	.LCFI3:
 145              		.cfi_def_cfa_offset 8
 146              		.cfi_offset 7, -8
 147              		.cfi_offset 14, -4
 148 0002 86B0     		sub	sp, sp, #24	@,,
 149              	.LCFI4:
 150              		.cfi_def_cfa_offset 32
 151 0004 00AF     		add	r7, sp, #0	@,,
 152              	.LCFI5:
 153              		.cfi_def_cfa_register 7
 154 0006 7860     		str	r0, [r7, #4]	@ pvParameters, pvParameters
 121:Common/Minimal/flash.c **** portTickType xFlashRate, xLastFlashTime;
 122:Common/Minimal/flash.c **** unsigned portBASE_TYPE uxLED;
 123:Common/Minimal/flash.c **** 
 124:Common/Minimal/flash.c **** 	/* The parameters are not used. */
 125:Common/Minimal/flash.c **** 	( void ) pvParameters;
 126:Common/Minimal/flash.c **** 
 127:Common/Minimal/flash.c **** 	/* Calculate the LED and flash rate. */
 128:Common/Minimal/flash.c **** 	portENTER_CRITICAL();
ARM GAS  C:\Users\Grzybek\AppData\Local\Temp\cclUOO6G.s 			page 6


 155              		.loc 1 128 0
 156 0008 FFF7FEFF 		bl	vPortEnterCritical	@
 129:Common/Minimal/flash.c **** 	{
 130:Common/Minimal/flash.c **** 		/* See which of the eight LED's we should use. */
 131:Common/Minimal/flash.c **** 		uxLED = uxFlashTaskNumber;
 157              		.loc 1 131 0
 158 000c 164B     		ldr	r3, .L8	@ tmp138,
 159 000e 1B68     		ldr	r3, [r3, #0]	@ tmp139, uxFlashTaskNumber
 160 0010 7B61     		str	r3, [r7, #20]	@ tmp139, uxLED
 132:Common/Minimal/flash.c **** 
 133:Common/Minimal/flash.c **** 		/* Update so the next task uses the next LED. */
 134:Common/Minimal/flash.c **** 		uxFlashTaskNumber++;
 161              		.loc 1 134 0
 162 0012 154B     		ldr	r3, .L8	@ tmp140,
 163 0014 1B68     		ldr	r3, [r3, #0]	@ uxFlashTaskNumber.0, uxFlashTaskNumber
 164 0016 03F10102 		add	r2, r3, #1	@ uxFlashTaskNumber.1, uxFlashTaskNumber.0,
 165 001a 134B     		ldr	r3, .L8	@ tmp141,
 166 001c 1A60     		str	r2, [r3, #0]	@ uxFlashTaskNumber.1, uxFlashTaskNumber
 135:Common/Minimal/flash.c **** 	}
 136:Common/Minimal/flash.c **** 	portEXIT_CRITICAL();
 167              		.loc 1 136 0
 168 001e FFF7FEFF 		bl	vPortExitCritical	@
 137:Common/Minimal/flash.c **** 
 138:Common/Minimal/flash.c **** 	xFlashRate = ledFLASH_RATE_BASE + ( ledFLASH_RATE_BASE * ( portTickType ) uxLED );
 169              		.loc 1 138 0
 170 0022 7B69     		ldr	r3, [r7, #20]	@ tmp142, uxLED
 171 0024 03F10103 		add	r3, r3, #1	@ D.4853, tmp142,
 172 0028 40F24D12 		movw	r2, #333	@ tmp144,
 173 002c 02FB03F3 		mul	r3, r2, r3	@ tmp143, tmp144, D.4853
 174 0030 3B61     		str	r3, [r7, #16]	@ tmp143, xFlashRate
 139:Common/Minimal/flash.c **** 	xFlashRate /= portTICK_RATE_MS;
 140:Common/Minimal/flash.c **** 
 141:Common/Minimal/flash.c **** 	/* We will turn the LED on and off again in the delay period, so each
 142:Common/Minimal/flash.c **** 	delay is only half the total period. */
 143:Common/Minimal/flash.c **** 	xFlashRate /= ( portTickType ) 2;
 175              		.loc 1 143 0
 176 0032 3B69     		ldr	r3, [r7, #16]	@ tmp146, xFlashRate
 177 0034 4FEA5303 		lsr	r3, r3, #1	@ tmp145, tmp146,
 178 0038 3B61     		str	r3, [r7, #16]	@ tmp145, xFlashRate
 144:Common/Minimal/flash.c **** 
 145:Common/Minimal/flash.c **** 	/* We need to initialise xLastFlashTime prior to the first call to 
 146:Common/Minimal/flash.c **** 	vTaskDelayUntil(). */
 147:Common/Minimal/flash.c **** 	xLastFlashTime = xTaskGetTickCount();
 179              		.loc 1 147 0
 180 003a FFF7FEFF 		bl	xTaskGetTickCount	@
 181 003e 0346     		mov	r3, r0	@ xLastFlashTime.2,
 182 0040 FB60     		str	r3, [r7, #12]	@ xLastFlashTime.2, xLastFlashTime
 183              	.L7:
 148:Common/Minimal/flash.c **** 
 149:Common/Minimal/flash.c **** 	for(;;)
 150:Common/Minimal/flash.c **** 	{
 151:Common/Minimal/flash.c **** 		/* Delay for half the flash period then turn the LED on. */
 152:Common/Minimal/flash.c **** 		vTaskDelayUntil( &xLastFlashTime, xFlashRate );
 184              		.loc 1 152 0 discriminator 1
 185 0042 07F10C03 		add	r3, r7, #12	@ tmp147,,
 186 0046 1846     		mov	r0, r3	@, tmp147
 187 0048 3969     		ldr	r1, [r7, #16]	@, xFlashRate
ARM GAS  C:\Users\Grzybek\AppData\Local\Temp\cclUOO6G.s 			page 7


 188 004a FFF7FEFF 		bl	vTaskDelayUntil	@
 153:Common/Minimal/flash.c **** 		vParTestToggleLED( uxLED );
 189              		.loc 1 153 0 discriminator 1
 190 004e 7869     		ldr	r0, [r7, #20]	@, uxLED
 191 0050 FFF7FEFF 		bl	vParTestToggleLED	@
 154:Common/Minimal/flash.c **** 
 155:Common/Minimal/flash.c **** 		/* Delay for half the flash period then turn the LED off. */
 156:Common/Minimal/flash.c **** 		vTaskDelayUntil( &xLastFlashTime, xFlashRate );
 192              		.loc 1 156 0 discriminator 1
 193 0054 07F10C03 		add	r3, r7, #12	@ tmp148,,
 194 0058 1846     		mov	r0, r3	@, tmp148
 195 005a 3969     		ldr	r1, [r7, #16]	@, xFlashRate
 196 005c FFF7FEFF 		bl	vTaskDelayUntil	@
 157:Common/Minimal/flash.c **** 		vParTestToggleLED( uxLED );
 197              		.loc 1 157 0 discriminator 1
 198 0060 7869     		ldr	r0, [r7, #20]	@, uxLED
 199 0062 FFF7FEFF 		bl	vParTestToggleLED	@
 158:Common/Minimal/flash.c **** 	}
 200              		.loc 1 158 0 discriminator 1
 201 0066 ECE7     		b	.L7	@
 202              	.L9:
 203              		.align	2
 204              	.L8:
 205 0068 00000000 		.word	uxFlashTaskNumber
 206              		.cfi_endproc
 207              	.LFE1:
 208              		.size	vLEDFlashTask, .-vLEDFlashTask
 209              		.text
 210              	.Letext0:
 211              		.file 2 "./Source/include/../../Source/portable/GCC/ARM_CM3/portmacro.h"
 212              		.file 3 "./Source/include/task.h"