ARM GAS  C:\Users\Grzybek\AppData\Local\Temp\cckVrGFk.s 			page 1


   1              		.syntax unified
   2              		.cpu cortex-m3
   3              		.fpu softvfp
   4              		.eabi_attribute 20, 1	@ Tag_ABI_FP_denormal
   5              		.eabi_attribute 21, 1	@ Tag_ABI_FP_exceptions
   6              		.eabi_attribute 23, 3	@ Tag_ABI_FP_number_model
   7              		.eabi_attribute 24, 1	@ Tag_ABI_align8_needed
   8              		.eabi_attribute 25, 1	@ Tag_ABI_align8_preserved
   9              		.eabi_attribute 26, 1	@ Tag_ABI_enum_size
  10              		.eabi_attribute 30, 6	@ Tag_ABI_optimization_goals
  11              		.eabi_attribute 34, 1	@ Tag_CPU_unaligned_access
  12              		.eabi_attribute 18, 4	@ Tag_ABI_PCS_wchar_t
  13              		.file	"integer.c"
  14              	@ GNU C (Sourcery CodeBench Lite 2012.09-63) version 4.7.2 (arm-none-eabi)
  15              	@	compiled by GNU C version 4.3.2, GMP version 5.0.5, MPFR version 3.1.1-p2, MPC version 1.0.1
  16              	@ GGC heuristics: --param ggc-min-expand=100 --param ggc-min-heapsize=131072
  17              	@ options passed:  -I . -I ./STCode -I ./Source/include
  18              	@ -I ./Source/portable/GCC/ARM_CM3 -I ./Common/include
  19              	@ -I ./Common/drivers/ST/STM32F10xFWLib/v3_2_0/Libraries/STM32F10x_StdPeriph_Driver/inc
  20              	@ -I ./Common/drivers/ST/STM32F10xFWLib/v3_2_0/Libraries/CMSIS/CM3/CoreSupport
  21              	@ -I ./Common/drivers/ST/STM32F10xFWLib/v3_2_0/Libraries/CMSIS/CM3/DeviceSupport/ST/STM32F10x
  22              	@ -imultilib thumb2
  23              	@ -iprefix c:\codesourcery\sourcery_codebench_lite_for_arm_eabi\bin\../lib/gcc/arm-none-eabi/4.7.2/
  24              	@ -isysroot c:\codesourcery\sourcery_codebench_lite_for_arm_eabi\bin\../arm-none-eabi
  25              	@ -D__USES_INITFINI__ -D STM32F10X_HD -D USE_STDPERIPH_DRIVER
  26              	@ -D VECT_TAB_FLASH -D GCC_ARMCM3 -D inline=
  27              	@ -D PACK_STRUCT_END=__attribute((packed))
  28              	@ -D ALIGN_STRUCT_END=__attribute((aligned(4)))
  29              	@ -D __CS_SOURCERYGXX_MAJ__=2012 -D __CS_SOURCERYGXX_MIN__=9
  30              	@ -D __CS_SOURCERYGXX_REV__=63 Common/Minimal/integer.c -mthumb
  31              	@ -mcpu=cortex-m3 -auxbase-strip Debug/integer.o -g3 -gdwarf-2 -O0
  32              	@ -std=gnu99 -ffunction-sections -fdata-sections -fmessage-length=0
  33              	@ -fverbose-asm
  34              	@ options enabled:  -fauto-inc-dec -fbranch-count-reg -fcommon
  35              	@ -fdata-sections -fdebug-types-section -fdelete-null-pointer-checks
  36              	@ -fdwarf2-cfi-asm -fearly-inlining -feliminate-unused-debug-types
  37              	@ -ffunction-cse -ffunction-sections -fgcse-lm -fgnu-runtime -fident
  38              	@ -finline-atomics -fira-share-save-slots -fira-share-spill-slots -fivopts
  39              	@ -fkeep-static-consts -fleading-underscore -fmath-errno
  40              	@ -fmerge-debug-strings -fmove-loop-invariants -fpeephole
  41              	@ -fprefetch-loop-arrays -freg-struct-return
  42              	@ -fsched-critical-path-heuristic -fsched-dep-count-heuristic
  43              	@ -fsched-group-heuristic -fsched-interblock -fsched-last-insn-heuristic
  44              	@ -fsched-rank-heuristic -fsched-spec -fsched-spec-insn-heuristic
  45              	@ -fsched-stalled-insns-dep -fshow-column -fsigned-zeros
  46              	@ -fsplit-ivs-in-unroller -fstrict-volatile-bitfields -ftrapping-math
  47              	@ -ftree-cselim -ftree-forwprop -ftree-loop-if-convert -ftree-loop-im
  48              	@ -ftree-loop-ivcanon -ftree-loop-optimize -ftree-parallelize-loops=
  49              	@ -ftree-phiprop -ftree-pta -ftree-reassoc -ftree-scev-cprop
  50              	@ -ftree-slp-vectorize -ftree-vect-loop-version -funit-at-a-time
  51              	@ -fverbose-asm -fzero-initialized-in-bss -mfix-cortex-m3-ldrd
  52              	@ -mlittle-endian -msched-prolog -mthumb -munaligned-access
  53              	@ -mvectorize-with-neon-quad
  54              	
  55              		.text
  56              	.Ltext0:
  57              		.cfi_sections	.debug_frame
ARM GAS  C:\Users\Grzybek\AppData\Local\Temp\cckVrGFk.s 			page 2


  58              		.section	.bss.xTaskCheck,"aw",%nobits
  59              		.align	2
  60              		.type	xTaskCheck, %object
  61              		.size	xTaskCheck, 4
  62              	xTaskCheck:
  63 0000 00000000 		.space	4
  64              		.section	.rodata
  65              		.align	2
  66              	.LC0:
  67 0000 496E744D 		.ascii	"IntMath\000"
  67      61746800 
  68              		.section	.text.vStartIntegerMathTasks,"ax",%progbits
  69              		.align	2
  70              		.global	vStartIntegerMathTasks
  71              		.thumb
  72              		.thumb_func
  73              		.type	vStartIntegerMathTasks, %function
  74              	vStartIntegerMathTasks:
  75              	.LFB0:
  76              		.file 1 "Common/Minimal/integer.c"
   1:Common/Minimal/integer.c **** /*
   2:Common/Minimal/integer.c ****     FreeRTOS V7.3.0 - Copyright (C) 2012 Real Time Engineers Ltd.
   3:Common/Minimal/integer.c **** 
   4:Common/Minimal/integer.c ****     FEATURES AND PORTS ARE ADDED TO FREERTOS ALL THE TIME.  PLEASE VISIT 
   5:Common/Minimal/integer.c ****     http://www.FreeRTOS.org TO ENSURE YOU ARE USING THE LATEST VERSION.
   6:Common/Minimal/integer.c **** 
   7:Common/Minimal/integer.c ****     ***************************************************************************
   8:Common/Minimal/integer.c ****      *                                                                       *
   9:Common/Minimal/integer.c ****      *    FreeRTOS tutorial books are available in pdf and paperback.        *
  10:Common/Minimal/integer.c ****      *    Complete, revised, and edited pdf reference manuals are also       *
  11:Common/Minimal/integer.c ****      *    available.                                                         *
  12:Common/Minimal/integer.c ****      *                                                                       *
  13:Common/Minimal/integer.c ****      *    Purchasing FreeRTOS documentation will not only help you, by       *
  14:Common/Minimal/integer.c ****      *    ensuring you get running as quickly as possible and with an        *
  15:Common/Minimal/integer.c ****      *    in-depth knowledge of how to use FreeRTOS, it will also help       *
  16:Common/Minimal/integer.c ****      *    the FreeRTOS project to continue with its mission of providing     *
  17:Common/Minimal/integer.c ****      *    professional grade, cross platform, de facto standard solutions    *
  18:Common/Minimal/integer.c ****      *    for microcontrollers - completely free of charge!                  *
  19:Common/Minimal/integer.c ****      *                                                                       *
  20:Common/Minimal/integer.c ****      *    >>> See http://www.FreeRTOS.org/Documentation for details. <<<     *
  21:Common/Minimal/integer.c ****      *                                                                       *
  22:Common/Minimal/integer.c ****      *    Thank you for using FreeRTOS, and thank you for your support!      *
  23:Common/Minimal/integer.c ****      *                                                                       *
  24:Common/Minimal/integer.c ****     ***************************************************************************
  25:Common/Minimal/integer.c **** 
  26:Common/Minimal/integer.c **** 
  27:Common/Minimal/integer.c ****     This file is part of the FreeRTOS distribution.
  28:Common/Minimal/integer.c **** 
  29:Common/Minimal/integer.c ****     FreeRTOS is free software; you can redistribute it and/or modify it under
  30:Common/Minimal/integer.c ****     the terms of the GNU General Public License (version 2) as published by the
  31:Common/Minimal/integer.c ****     Free Software Foundation AND MODIFIED BY the FreeRTOS exception.
  32:Common/Minimal/integer.c ****     >>>NOTE<<< The modification to the GPL is included to allow you to
  33:Common/Minimal/integer.c ****     distribute a combined work that includes FreeRTOS without being obliged to
  34:Common/Minimal/integer.c ****     provide the source code for proprietary components outside of the FreeRTOS
  35:Common/Minimal/integer.c ****     kernel.  FreeRTOS is distributed in the hope that it will be useful, but
  36:Common/Minimal/integer.c ****     WITHOUT ANY WARRANTY; without even the implied warranty of MERCHANTABILITY
  37:Common/Minimal/integer.c ****     or FITNESS FOR A PARTICULAR PURPOSE.  See the GNU General Public License for
ARM GAS  C:\Users\Grzybek\AppData\Local\Temp\cckVrGFk.s 			page 3


  38:Common/Minimal/integer.c ****     more details. You should have received a copy of the GNU General Public
  39:Common/Minimal/integer.c ****     License and the FreeRTOS license exception along with FreeRTOS; if not it
  40:Common/Minimal/integer.c ****     can be viewed here: http://www.freertos.org/a00114.html and also obtained
  41:Common/Minimal/integer.c ****     by writing to Richard Barry, contact details for whom are available on the
  42:Common/Minimal/integer.c ****     FreeRTOS WEB site.
  43:Common/Minimal/integer.c **** 
  44:Common/Minimal/integer.c ****     1 tab == 4 spaces!
  45:Common/Minimal/integer.c ****     
  46:Common/Minimal/integer.c ****     ***************************************************************************
  47:Common/Minimal/integer.c ****      *                                                                       *
  48:Common/Minimal/integer.c ****      *    Having a problem?  Start by reading the FAQ "My application does   *
  49:Common/Minimal/integer.c ****      *    not run, what could be wrong?"                                     *
  50:Common/Minimal/integer.c ****      *                                                                       *
  51:Common/Minimal/integer.c ****      *    http://www.FreeRTOS.org/FAQHelp.html                               *
  52:Common/Minimal/integer.c ****      *                                                                       *
  53:Common/Minimal/integer.c ****     ***************************************************************************
  54:Common/Minimal/integer.c **** 
  55:Common/Minimal/integer.c ****     
  56:Common/Minimal/integer.c ****     http://www.FreeRTOS.org - Documentation, training, latest versions, license 
  57:Common/Minimal/integer.c ****     and contact details.  
  58:Common/Minimal/integer.c ****     
  59:Common/Minimal/integer.c ****     http://www.FreeRTOS.org/plus - A selection of FreeRTOS ecosystem products,
  60:Common/Minimal/integer.c ****     including FreeRTOS+Trace - an indispensable productivity tool.
  61:Common/Minimal/integer.c **** 
  62:Common/Minimal/integer.c ****     Real Time Engineers ltd license FreeRTOS to High Integrity Systems, who sell 
  63:Common/Minimal/integer.c ****     the code with commercial support, indemnification, and middleware, under 
  64:Common/Minimal/integer.c ****     the OpenRTOS brand: http://www.OpenRTOS.com.  High Integrity Systems also
  65:Common/Minimal/integer.c ****     provide a safety engineered and independently SIL3 certified version under 
  66:Common/Minimal/integer.c ****     the SafeRTOS brand: http://www.SafeRTOS.com.
  67:Common/Minimal/integer.c **** */
  68:Common/Minimal/integer.c **** 
  69:Common/Minimal/integer.c **** /*
  70:Common/Minimal/integer.c ****  * This version of integer. c is for use on systems that have limited stack
  71:Common/Minimal/integer.c ****  * space and no display facilities.  The complete version can be found in
  72:Common/Minimal/integer.c ****  * the Demo/Common/Full directory.
  73:Common/Minimal/integer.c ****  *
  74:Common/Minimal/integer.c ****  * As with the full version, the tasks created in this file are a good test 
  75:Common/Minimal/integer.c ****  * of the scheduler context switch mechanism.  The processor has to access 
  76:Common/Minimal/integer.c ****  * 32bit variables in two or four chunks (depending on the processor).  The low 
  77:Common/Minimal/integer.c ****  * priority of these tasks means there is a high probability that a context 
  78:Common/Minimal/integer.c ****  * switch will occur mid calculation.  See flop. c documentation for 
  79:Common/Minimal/integer.c ****  * more information.
  80:Common/Minimal/integer.c ****  *
  81:Common/Minimal/integer.c ****  */
  82:Common/Minimal/integer.c **** 
  83:Common/Minimal/integer.c **** /*
  84:Common/Minimal/integer.c **** Changes from V1.2.1
  85:Common/Minimal/integer.c **** 
  86:Common/Minimal/integer.c **** 	+ The constants used in the calculations are larger to ensure the
  87:Common/Minimal/integer.c **** 	  optimiser does not truncate them to 16 bits.
  88:Common/Minimal/integer.c **** 
  89:Common/Minimal/integer.c **** Changes from V1.2.3
  90:Common/Minimal/integer.c **** 
  91:Common/Minimal/integer.c **** 	+ uxTaskCheck is now just used as a boolean.  Instead of incrementing
  92:Common/Minimal/integer.c **** 	  the variable each cycle of the task, the variable is simply set to
  93:Common/Minimal/integer.c **** 	  true.  sAreIntegerMathsTaskStillRunning() sets it back to false and
  94:Common/Minimal/integer.c **** 	  expects it to have been set back to true by the time it is called
ARM GAS  C:\Users\Grzybek\AppData\Local\Temp\cckVrGFk.s 			page 4


  95:Common/Minimal/integer.c **** 	  again.
  96:Common/Minimal/integer.c **** 	+ A division has been included in the calculation.
  97:Common/Minimal/integer.c **** */
  98:Common/Minimal/integer.c **** 
  99:Common/Minimal/integer.c **** #include <stdlib.h>
 100:Common/Minimal/integer.c **** 
 101:Common/Minimal/integer.c **** /* Scheduler include files. */
 102:Common/Minimal/integer.c **** #include "FreeRTOS.h"
 103:Common/Minimal/integer.c **** #include "task.h"
 104:Common/Minimal/integer.c **** 
 105:Common/Minimal/integer.c **** /* Demo program include files. */
 106:Common/Minimal/integer.c **** #include "integer.h"
 107:Common/Minimal/integer.c **** 
 108:Common/Minimal/integer.c **** /* The constants used in the calculation. */
 109:Common/Minimal/integer.c **** #define intgCONST1				( ( long ) 123 )
 110:Common/Minimal/integer.c **** #define intgCONST2				( ( long ) 234567 )
 111:Common/Minimal/integer.c **** #define intgCONST3				( ( long ) -3 )
 112:Common/Minimal/integer.c **** #define intgCONST4				( ( long ) 7 )
 113:Common/Minimal/integer.c **** #define intgEXPECTED_ANSWER		( ( ( intgCONST1 + intgCONST2 ) * intgCONST3 ) / intgCONST4 )
 114:Common/Minimal/integer.c **** 
 115:Common/Minimal/integer.c **** #define intgSTACK_SIZE			configMINIMAL_STACK_SIZE
 116:Common/Minimal/integer.c **** 
 117:Common/Minimal/integer.c **** /* As this is the minimal version, we will only create one task. */
 118:Common/Minimal/integer.c **** #define intgNUMBER_OF_TASKS		( 1 )
 119:Common/Minimal/integer.c **** 
 120:Common/Minimal/integer.c **** /* The task function.  Repeatedly performs a 32 bit calculation, checking the
 121:Common/Minimal/integer.c **** result against the expected result.  If the result is incorrect then the
 122:Common/Minimal/integer.c **** context switch must have caused some corruption. */
 123:Common/Minimal/integer.c **** static portTASK_FUNCTION_PROTO( vCompeteingIntMathTask, pvParameters );
 124:Common/Minimal/integer.c **** 
 125:Common/Minimal/integer.c **** /* Variables that are set to true within the calculation task to indicate
 126:Common/Minimal/integer.c **** that the task is still executing.  The check task sets the variable back to
 127:Common/Minimal/integer.c **** false, flagging an error if the variable is still false the next time it
 128:Common/Minimal/integer.c **** is called. */
 129:Common/Minimal/integer.c **** static volatile signed portBASE_TYPE xTaskCheck[ intgNUMBER_OF_TASKS ] = { ( signed portBASE_TYPE )
 130:Common/Minimal/integer.c **** 
 131:Common/Minimal/integer.c **** /*-----------------------------------------------------------*/
 132:Common/Minimal/integer.c **** 
 133:Common/Minimal/integer.c **** void vStartIntegerMathTasks( unsigned portBASE_TYPE uxPriority )
 134:Common/Minimal/integer.c **** {
  77              		.loc 1 134 0
  78              		.cfi_startproc
  79              		@ args = 0, pretend = 0, frame = 16
  80              		@ frame_needed = 1, uses_anonymous_args = 0
  81 0000 80B5     		push	{r7, lr}	@
  82              	.LCFI0:
  83              		.cfi_def_cfa_offset 8
  84              		.cfi_offset 7, -8
  85              		.cfi_offset 14, -4
  86 0002 88B0     		sub	sp, sp, #32	@,,
  87              	.LCFI1:
  88              		.cfi_def_cfa_offset 40
  89 0004 04AF     		add	r7, sp, #16	@,,
  90              	.LCFI2:
  91              		.cfi_def_cfa 7, 24
  92 0006 7860     		str	r0, [r7, #4]	@ uxPriority, uxPriority
 135:Common/Minimal/integer.c **** short sTask;
ARM GAS  C:\Users\Grzybek\AppData\Local\Temp\cckVrGFk.s 			page 5


 136:Common/Minimal/integer.c **** 
 137:Common/Minimal/integer.c **** 	for( sTask = 0; sTask < intgNUMBER_OF_TASKS; sTask++ )
  93              		.loc 1 137 0
  94 0008 4FF00003 		mov	r3, #0	@ tmp137,
  95 000c FB81     		strh	r3, [r7, #14]	@ movhi	@ tmp136, sTask
  96 000e 1AE0     		b	.L2	@
  97              	.L3:
 138:Common/Minimal/integer.c **** 	{
 139:Common/Minimal/integer.c **** 		xTaskCreate( vCompeteingIntMathTask, ( signed char * ) "IntMath", intgSTACK_SIZE, ( void * ) &( x
  98              		.loc 1 139 0 discriminator 2
  99 0010 B7F90E30 		ldrsh	r3, [r7, #14]	@ D.4872, sTask
 100 0014 4FEA8302 		lsl	r2, r3, #2	@ tmp138, D.4872,
 101 0018 0F4B     		ldr	r3, .L4	@ tmp139,
 102 001a D318     		adds	r3, r2, r3	@ D.4873, tmp138, tmp139
 103 001c 7A68     		ldr	r2, [r7, #4]	@ tmp140, uxPriority
 104 001e 0092     		str	r2, [sp, #0]	@ tmp140,
 105 0020 4FF00002 		mov	r2, #0	@ tmp141,
 106 0024 0192     		str	r2, [sp, #4]	@ tmp141,
 107 0026 4FF00002 		mov	r2, #0	@ tmp142,
 108 002a 0292     		str	r2, [sp, #8]	@ tmp142,
 109 002c 4FF00002 		mov	r2, #0	@ tmp143,
 110 0030 0392     		str	r2, [sp, #12]	@ tmp143,
 111 0032 0A48     		ldr	r0, .L4+4	@,
 112 0034 0A49     		ldr	r1, .L4+8	@,
 113 0036 4FF08002 		mov	r2, #128	@,
 114 003a FFF7FEFF 		bl	xTaskGenericCreate	@
 137:Common/Minimal/integer.c **** 	for( sTask = 0; sTask < intgNUMBER_OF_TASKS; sTask++ )
 115              		.loc 1 137 0 discriminator 2
 116 003e FB89     		ldrh	r3, [r7, #14]	@ movhi	@ tmp144, sTask
 117 0040 03F10103 		add	r3, r3, #1	@ tmp145, tmp144,
 118 0044 FB81     		strh	r3, [r7, #14]	@ movhi	@ tmp146, sTask
 119              	.L2:
 137:Common/Minimal/integer.c **** 	for( sTask = 0; sTask < intgNUMBER_OF_TASKS; sTask++ )
 120              		.loc 1 137 0 is_stmt 0 discriminator 1
 121 0046 B7F90E30 		ldrsh	r3, [r7, #14]	@ tmp147, sTask
 122 004a 002B     		cmp	r3, #0	@ tmp147,
 123 004c E0DD     		ble	.L3	@,
 140:Common/Minimal/integer.c **** 	}
 141:Common/Minimal/integer.c **** }
 124              		.loc 1 141 0 is_stmt 1
 125 004e 07F11007 		add	r7, r7, #16	@,,
 126 0052 BD46     		mov	sp, r7
 127 0054 80BD     		pop	{r7, pc}
 128              	.L5:
 129 0056 00BF     		.align	2
 130              	.L4:
 131 0058 00000000 		.word	xTaskCheck
 132 005c 00000000 		.word	vCompeteingIntMathTask
 133 0060 00000000 		.word	.LC0
 134              		.cfi_endproc
 135              	.LFE0:
 136              		.size	vStartIntegerMathTasks, .-vStartIntegerMathTasks
 137              		.section	.text.vCompeteingIntMathTask,"ax",%progbits
 138              		.align	2
 139              		.thumb
 140              		.thumb_func
 141              		.type	vCompeteingIntMathTask, %function
ARM GAS  C:\Users\Grzybek\AppData\Local\Temp\cckVrGFk.s 			page 6


 142              	vCompeteingIntMathTask:
 143              	.LFB1:
 142:Common/Minimal/integer.c **** /*-----------------------------------------------------------*/
 143:Common/Minimal/integer.c **** 
 144:Common/Minimal/integer.c **** static portTASK_FUNCTION( vCompeteingIntMathTask, pvParameters )
 145:Common/Minimal/integer.c **** {
 144              		.loc 1 145 0
 145              		.cfi_startproc
 146              		@ args = 0, pretend = 0, frame = 24
 147              		@ frame_needed = 1, uses_anonymous_args = 0
 148 0000 80B5     		push	{r7, lr}	@
 149              	.LCFI3:
 150              		.cfi_def_cfa_offset 8
 151              		.cfi_offset 7, -8
 152              		.cfi_offset 14, -4
 153 0002 86B0     		sub	sp, sp, #24	@,,
 154              	.LCFI4:
 155              		.cfi_def_cfa_offset 32
 156 0004 00AF     		add	r7, sp, #0	@,,
 157              	.LCFI5:
 158              		.cfi_def_cfa_register 7
 159 0006 7860     		str	r0, [r7, #4]	@ pvParameters, pvParameters
 146:Common/Minimal/integer.c **** /* These variables are all effectively set to constants so they are volatile to
 147:Common/Minimal/integer.c **** ensure the compiler does not just get rid of them. */
 148:Common/Minimal/integer.c **** volatile long lValue;
 149:Common/Minimal/integer.c **** short sError = pdFALSE;
 160              		.loc 1 149 0
 161 0008 4FF00003 		mov	r3, #0	@ tmp142,
 162 000c FB82     		strh	r3, [r7, #22]	@ movhi	@ tmp141, sError
 150:Common/Minimal/integer.c **** volatile signed portBASE_TYPE *pxTaskHasExecuted;
 151:Common/Minimal/integer.c **** 
 152:Common/Minimal/integer.c **** 	/* Set a pointer to the variable we are going to set to true each
 153:Common/Minimal/integer.c **** 	iteration.  This is also a good test of the parameter passing mechanism
 154:Common/Minimal/integer.c **** 	within each port. */
 155:Common/Minimal/integer.c **** 	pxTaskHasExecuted = ( volatile signed portBASE_TYPE * ) pvParameters;
 163              		.loc 1 155 0
 164 000e 7B68     		ldr	r3, [r7, #4]	@ tmp143, pvParameters
 165 0010 3B61     		str	r3, [r7, #16]	@ tmp143, pxTaskHasExecuted
 166 0012 00E0     		b	.L9	@
 167              	.L10:
 156:Common/Minimal/integer.c **** 
 157:Common/Minimal/integer.c **** 	/* Keep performing a calculation and checking the result against a constant. */
 158:Common/Minimal/integer.c **** 	for( ;; )
 159:Common/Minimal/integer.c **** 	{
 160:Common/Minimal/integer.c **** 		/* Perform the calculation.  This will store partial value in
 161:Common/Minimal/integer.c **** 		registers, resulting in a good test of the context switch mechanism. */
 162:Common/Minimal/integer.c **** 		lValue = intgCONST1;
 163:Common/Minimal/integer.c **** 		lValue += intgCONST2;
 164:Common/Minimal/integer.c **** 
 165:Common/Minimal/integer.c **** 		/* Yield in case cooperative scheduling is being used. */
 166:Common/Minimal/integer.c **** 		#if configUSE_PREEMPTION == 0
 167:Common/Minimal/integer.c **** 		{
 168:Common/Minimal/integer.c **** 			taskYIELD();
 169:Common/Minimal/integer.c **** 		}
 170:Common/Minimal/integer.c **** 		#endif
 171:Common/Minimal/integer.c **** 
 172:Common/Minimal/integer.c **** 		/* Finish off the calculation. */
ARM GAS  C:\Users\Grzybek\AppData\Local\Temp\cckVrGFk.s 			page 7


 173:Common/Minimal/integer.c **** 		lValue *= intgCONST3;
 174:Common/Minimal/integer.c **** 		lValue /= intgCONST4;
 175:Common/Minimal/integer.c **** 
 176:Common/Minimal/integer.c **** 		/* If the calculation is found to be incorrect we stop setting the 
 177:Common/Minimal/integer.c **** 		TaskHasExecuted variable so the check task can see an error has 
 178:Common/Minimal/integer.c **** 		occurred. */
 179:Common/Minimal/integer.c **** 		if( lValue != intgEXPECTED_ANSWER ) /*lint !e774 volatile used to prevent this being optimised ou
 180:Common/Minimal/integer.c **** 		{
 181:Common/Minimal/integer.c **** 			sError = pdTRUE;
 182:Common/Minimal/integer.c **** 		}
 183:Common/Minimal/integer.c **** 
 184:Common/Minimal/integer.c **** 		if( sError == pdFALSE )
 185:Common/Minimal/integer.c **** 		{
 186:Common/Minimal/integer.c **** 			/* We have not encountered any errors, so set the flag that show
 187:Common/Minimal/integer.c **** 			we are still executing.  This will be periodically cleared by
 188:Common/Minimal/integer.c **** 			the check task. */
 189:Common/Minimal/integer.c **** 			portENTER_CRITICAL();
 190:Common/Minimal/integer.c **** 				*pxTaskHasExecuted = pdTRUE;
 191:Common/Minimal/integer.c **** 			portEXIT_CRITICAL();
 192:Common/Minimal/integer.c **** 		}
 193:Common/Minimal/integer.c **** 
 194:Common/Minimal/integer.c **** 		/* Yield in case cooperative scheduling is being used. */
 195:Common/Minimal/integer.c **** 		#if configUSE_PREEMPTION == 0
 196:Common/Minimal/integer.c **** 		{
 197:Common/Minimal/integer.c **** 			taskYIELD();
 198:Common/Minimal/integer.c **** 		}
 199:Common/Minimal/integer.c **** 		#endif
 200:Common/Minimal/integer.c **** 	}
 168              		.loc 1 200 0
 169 0014 00BF     		nop
 170              	.L9:
 162:Common/Minimal/integer.c **** 		lValue = intgCONST1;
 171              		.loc 1 162 0
 172 0016 4FF07B03 		mov	r3, #123	@ tmp144,
 173 001a FB60     		str	r3, [r7, #12]	@ tmp144, lValue
 163:Common/Minimal/integer.c **** 		lValue += intgCONST2;
 174              		.loc 1 163 0
 175 001c FB68     		ldr	r3, [r7, #12]	@ lValue.0, lValue
 176 001e 03F56533 		add	r3, r3, #234496	@ lValue.1, lValue.0,
 177 0022 03F14703 		add	r3, r3, #71	@ lValue.1, lValue.1,
 178 0026 FB60     		str	r3, [r7, #12]	@ lValue.1, lValue
 173:Common/Minimal/integer.c **** 		lValue *= intgCONST3;
 179              		.loc 1 173 0
 180 0028 FB68     		ldr	r3, [r7, #12]	@ lValue.2, lValue
 181 002a 1A46     		mov	r2, r3	@ tmp145, lValue.2
 182 002c 4FEA8303 		lsl	r3, r3, #2	@ tmp146, lValue.2,
 183 0030 D31A     		subs	r3, r2, r3	@ lValue.3, tmp145, tmp146
 184 0032 FB60     		str	r3, [r7, #12]	@ lValue.3, lValue
 174:Common/Minimal/integer.c **** 		lValue /= intgCONST4;
 185              		.loc 1 174 0
 186 0034 FB68     		ldr	r3, [r7, #12]	@ lValue.4, lValue
 187 0036 0F4A     		ldr	r2, .L11	@ tmp148,
 188 0038 82FB0312 		smull	r1, r2, r2, r3	@, tmp147, tmp148, lValue.4
 189 003c D218     		adds	r2, r2, r3	@ tmp149, tmp147, lValue.4
 190 003e 4FEAA202 		asr	r2, r2, #2	@ tmp150, tmp149,
 191 0042 4FEAE373 		asr	r3, r3, #31	@ tmp151, lValue.4,
 192 0046 D31A     		subs	r3, r2, r3	@ lValue.5, tmp150, tmp151
ARM GAS  C:\Users\Grzybek\AppData\Local\Temp\cckVrGFk.s 			page 8


 193 0048 FB60     		str	r3, [r7, #12]	@ lValue.5, lValue
 179:Common/Minimal/integer.c **** 		if( lValue != intgEXPECTED_ANSWER ) /*lint !e774 volatile used to prevent this being optimised ou
 194              		.loc 1 179 0
 195 004a FA68     		ldr	r2, [r7, #12]	@ lValue.6, lValue
 196 004c 0A4B     		ldr	r3, .L11+4	@ tmp152,
 197 004e 9A42     		cmp	r2, r3	@ lValue.6, tmp152
 198 0050 02D0     		beq	.L7	@,
 181:Common/Minimal/integer.c **** 			sError = pdTRUE;
 199              		.loc 1 181 0
 200 0052 4FF00103 		mov	r3, #1	@ tmp154,
 201 0056 FB82     		strh	r3, [r7, #22]	@ movhi	@ tmp153, sError
 202              	.L7:
 184:Common/Minimal/integer.c **** 		if( sError == pdFALSE )
 203              		.loc 1 184 0
 204 0058 B7F91630 		ldrsh	r3, [r7, #22]	@ tmp155, sError
 205 005c 002B     		cmp	r3, #0	@ tmp155,
 206 005e D9D1     		bne	.L10	@,
 189:Common/Minimal/integer.c **** 			portENTER_CRITICAL();
 207              		.loc 1 189 0
 208 0060 FFF7FEFF 		bl	vPortEnterCritical	@
 190:Common/Minimal/integer.c **** 				*pxTaskHasExecuted = pdTRUE;
 209              		.loc 1 190 0
 210 0064 3B69     		ldr	r3, [r7, #16]	@ tmp156, pxTaskHasExecuted
 211 0066 4FF00102 		mov	r2, #1	@ tmp157,
 212 006a 1A60     		str	r2, [r3, #0]	@ tmp157, *pxTaskHasExecuted_5
 191:Common/Minimal/integer.c **** 			portEXIT_CRITICAL();
 213              		.loc 1 191 0
 214 006c FFF7FEFF 		bl	vPortExitCritical	@
 215              		.loc 1 200 0
 216 0070 D0E7     		b	.L10	@
 217              	.L12:
 218 0072 00BF     		.align	2
 219              	.L11:
 220 0074 93244992 		.word	-1840700269
 221 0078 1B77FEFF 		.word	-100581
 222              		.cfi_endproc
 223              	.LFE1:
 224              		.size	vCompeteingIntMathTask, .-vCompeteingIntMathTask
 225              		.section	.text.xAreIntegerMathsTaskStillRunning,"ax",%progbits
 226              		.align	2
 227              		.global	xAreIntegerMathsTaskStillRunning
 228              		.thumb
 229              		.thumb_func
 230              		.type	xAreIntegerMathsTaskStillRunning, %function
 231              	xAreIntegerMathsTaskStillRunning:
 232              	.LFB2:
 201:Common/Minimal/integer.c **** }
 202:Common/Minimal/integer.c **** /*-----------------------------------------------------------*/
 203:Common/Minimal/integer.c **** 
 204:Common/Minimal/integer.c **** /* This is called to check that all the created tasks are still running. */
 205:Common/Minimal/integer.c **** portBASE_TYPE xAreIntegerMathsTaskStillRunning( void )
 206:Common/Minimal/integer.c **** {
 233              		.loc 1 206 0
 234              		.cfi_startproc
 235              		@ args = 0, pretend = 0, frame = 8
 236              		@ frame_needed = 1, uses_anonymous_args = 0
 237              		@ link register save eliminated.
ARM GAS  C:\Users\Grzybek\AppData\Local\Temp\cckVrGFk.s 			page 9


 238 0000 80B4     		push	{r7}	@
 239              	.LCFI6:
 240              		.cfi_def_cfa_offset 4
 241              		.cfi_offset 7, -4
 242 0002 83B0     		sub	sp, sp, #12	@,,
 243              	.LCFI7:
 244              		.cfi_def_cfa_offset 16
 245 0004 00AF     		add	r7, sp, #0	@,,
 246              	.LCFI8:
 247              		.cfi_def_cfa_register 7
 207:Common/Minimal/integer.c **** portBASE_TYPE xReturn = pdTRUE;
 248              		.loc 1 207 0
 249 0006 4FF00103 		mov	r3, #1	@ tmp139,
 250 000a 7B60     		str	r3, [r7, #4]	@ tmp139, xReturn
 208:Common/Minimal/integer.c **** short sTask;
 209:Common/Minimal/integer.c **** 
 210:Common/Minimal/integer.c **** 	/* Check the maths tasks are still running by ensuring their check variables 
 211:Common/Minimal/integer.c **** 	are still being set to true. */
 212:Common/Minimal/integer.c **** 	for( sTask = 0; sTask < intgNUMBER_OF_TASKS; sTask++ )
 251              		.loc 1 212 0
 252 000c 4FF00003 		mov	r3, #0	@ tmp141,
 253 0010 7B80     		strh	r3, [r7, #2]	@ movhi	@ tmp140, sTask
 254 0012 14E0     		b	.L14	@
 255              	.L16:
 213:Common/Minimal/integer.c **** 	{
 214:Common/Minimal/integer.c **** 		if( xTaskCheck[ sTask ] == pdFALSE )
 256              		.loc 1 214 0
 257 0014 B7F90220 		ldrsh	r2, [r7, #2]	@ D.4854, sTask
 258 0018 0E4B     		ldr	r3, .L18	@ tmp142,
 259 001a 53F82230 		ldr	r3, [r3, r2, lsl #2]	@ D.4855, xTaskCheck
 260 001e 002B     		cmp	r3, #0	@ D.4855,
 261 0020 02D1     		bne	.L15	@,
 215:Common/Minimal/integer.c **** 		{
 216:Common/Minimal/integer.c **** 			/* The check has not incremented so an error exists. */
 217:Common/Minimal/integer.c **** 			xReturn = pdFALSE;
 262              		.loc 1 217 0
 263 0022 4FF00003 		mov	r3, #0	@ tmp143,
 264 0026 7B60     		str	r3, [r7, #4]	@ tmp143, xReturn
 265              	.L15:
 218:Common/Minimal/integer.c **** 		}
 219:Common/Minimal/integer.c **** 
 220:Common/Minimal/integer.c **** 		/* Reset the check variable so we can tell if it has been set by
 221:Common/Minimal/integer.c **** 		the next time around. */
 222:Common/Minimal/integer.c **** 		xTaskCheck[ sTask ] = pdFALSE;
 266              		.loc 1 222 0
 267 0028 B7F90220 		ldrsh	r2, [r7, #2]	@ D.4858, sTask
 268 002c 094B     		ldr	r3, .L18	@ tmp144,
 269 002e 4FF00001 		mov	r1, #0	@ tmp145,
 270 0032 43F82210 		str	r1, [r3, r2, lsl #2]	@ tmp145, xTaskCheck
 212:Common/Minimal/integer.c **** 	for( sTask = 0; sTask < intgNUMBER_OF_TASKS; sTask++ )
 271              		.loc 1 212 0
 272 0036 7B88     		ldrh	r3, [r7, #2]	@ movhi	@ tmp146, sTask
 273 0038 03F10103 		add	r3, r3, #1	@ tmp147, tmp146,
 274 003c 7B80     		strh	r3, [r7, #2]	@ movhi	@ tmp148, sTask
 275              	.L14:
 212:Common/Minimal/integer.c **** 	for( sTask = 0; sTask < intgNUMBER_OF_TASKS; sTask++ )
 276              		.loc 1 212 0 is_stmt 0 discriminator 1
ARM GAS  C:\Users\Grzybek\AppData\Local\Temp\cckVrGFk.s 			page 10


 277 003e B7F90230 		ldrsh	r3, [r7, #2]	@ tmp149, sTask
 278 0042 002B     		cmp	r3, #0	@ tmp149,
 279 0044 E6DD     		ble	.L16	@,
 223:Common/Minimal/integer.c **** 	}
 224:Common/Minimal/integer.c **** 
 225:Common/Minimal/integer.c **** 	return xReturn;
 280              		.loc 1 225 0 is_stmt 1
 281 0046 7B68     		ldr	r3, [r7, #4]	@ D.4859, xReturn
 226:Common/Minimal/integer.c **** }
 282              		.loc 1 226 0
 283 0048 1846     		mov	r0, r3	@, <retval>
 284 004a 07F10C07 		add	r7, r7, #12	@,,
 285 004e BD46     		mov	sp, r7
 286 0050 80BC     		pop	{r7}
 287 0052 7047     		bx	lr
 288              	.L19:
 289              		.align	2
 290              	.L18:
 291 0054 00000000 		.word	xTaskCheck
 292              		.cfi_endproc
 293              	.LFE2:
 294              		.size	xAreIntegerMathsTaskStillRunning, .-xAreIntegerMathsTaskStillRunning
 295              		.text
 296              	.Letext0:
 297              		.file 2 "./Source/include/task.h"