ARM GAS  C:\Users\Grzybek\AppData\Local\Temp\ccBL9yEH.s 			page 1


   1              		.syntax unified
   2              		.cpu cortex-m3
   3              		.fpu softvfp
   4              		.eabi_attribute 20, 1	@ Tag_ABI_FP_denormal
   5              		.eabi_attribute 21, 1	@ Tag_ABI_FP_exceptions
   6              		.eabi_attribute 23, 3	@ Tag_ABI_FP_number_model
   7              		.eabi_attribute 24, 1	@ Tag_ABI_align8_needed
   8              		.eabi_attribute 25, 1	@ Tag_ABI_align8_preserved
   9              		.eabi_attribute 26, 1	@ Tag_ABI_enum_size
  10              		.eabi_attribute 30, 6	@ Tag_ABI_optimization_goals
  11              		.eabi_attribute 34, 1	@ Tag_CPU_unaligned_access
  12              		.eabi_attribute 18, 4	@ Tag_ABI_PCS_wchar_t
  13              		.file	"PollQ.c"
  14              	@ GNU C (Sourcery CodeBench Lite 2012.09-63) version 4.7.2 (arm-none-eabi)
  15              	@	compiled by GNU C version 4.3.2, GMP version 5.0.5, MPFR version 3.1.1-p2, MPC version 1.0.1
  16              	@ GGC heuristics: --param ggc-min-expand=100 --param ggc-min-heapsize=131072
  17              	@ options passed:  -I . -I ./STCode -I ./Source/include
  18              	@ -I ./Source/portable/GCC/ARM_CM3 -I ./Common/include
  19              	@ -I ./Common/drivers/ST/STM32F10xFWLib/v3_2_0/Libraries/STM32F10x_StdPeriph_Driver/inc
  20              	@ -I ./Common/drivers/ST/STM32F10xFWLib/v3_2_0/Libraries/CMSIS/CM3/CoreSupport
  21              	@ -I ./Common/drivers/ST/STM32F10xFWLib/v3_2_0/Libraries/CMSIS/CM3/DeviceSupport/ST/STM32F10x
  22              	@ -imultilib thumb2
  23              	@ -iprefix c:\codesourcery\sourcery_codebench_lite_for_arm_eabi\bin\../lib/gcc/arm-none-eabi/4.7.2/
  24              	@ -isysroot c:\codesourcery\sourcery_codebench_lite_for_arm_eabi\bin\../arm-none-eabi
  25              	@ -D__USES_INITFINI__ -D STM32F10X_HD -D USE_STDPERIPH_DRIVER
  26              	@ -D VECT_TAB_FLASH -D GCC_ARMCM3 -D inline=
  27              	@ -D PACK_STRUCT_END=__attribute((packed))
  28              	@ -D ALIGN_STRUCT_END=__attribute((aligned(4)))
  29              	@ -D __CS_SOURCERYGXX_MAJ__=2012 -D __CS_SOURCERYGXX_MIN__=9
  30              	@ -D __CS_SOURCERYGXX_REV__=63 Common/Minimal/PollQ.c -mthumb
  31              	@ -mcpu=cortex-m3 -auxbase-strip Debug/PollQ.o -g3 -gdwarf-2 -O0 -std=gnu99
  32              	@ -ffunction-sections -fdata-sections -fmessage-length=0 -fverbose-asm
  33              	@ options enabled:  -fauto-inc-dec -fbranch-count-reg -fcommon
  34              	@ -fdata-sections -fdebug-types-section -fdelete-null-pointer-checks
  35              	@ -fdwarf2-cfi-asm -fearly-inlining -feliminate-unused-debug-types
  36              	@ -ffunction-cse -ffunction-sections -fgcse-lm -fgnu-runtime -fident
  37              	@ -finline-atomics -fira-share-save-slots -fira-share-spill-slots -fivopts
  38              	@ -fkeep-static-consts -fleading-underscore -fmath-errno
  39              	@ -fmerge-debug-strings -fmove-loop-invariants -fpeephole
  40              	@ -fprefetch-loop-arrays -freg-struct-return
  41              	@ -fsched-critical-path-heuristic -fsched-dep-count-heuristic
  42              	@ -fsched-group-heuristic -fsched-interblock -fsched-last-insn-heuristic
  43              	@ -fsched-rank-heuristic -fsched-spec -fsched-spec-insn-heuristic
  44              	@ -fsched-stalled-insns-dep -fshow-column -fsigned-zeros
  45              	@ -fsplit-ivs-in-unroller -fstrict-volatile-bitfields -ftrapping-math
  46              	@ -ftree-cselim -ftree-forwprop -ftree-loop-if-convert -ftree-loop-im
  47              	@ -ftree-loop-ivcanon -ftree-loop-optimize -ftree-parallelize-loops=
  48              	@ -ftree-phiprop -ftree-pta -ftree-reassoc -ftree-scev-cprop
  49              	@ -ftree-slp-vectorize -ftree-vect-loop-version -funit-at-a-time
  50              	@ -fverbose-asm -fzero-initialized-in-bss -mfix-cortex-m3-ldrd
  51              	@ -mlittle-endian -msched-prolog -mthumb -munaligned-access
  52              	@ -mvectorize-with-neon-quad
  53              	
  54              		.text
  55              	.Ltext0:
  56              		.cfi_sections	.debug_frame
  57              		.section	.bss.xPollingConsumerCount,"aw",%nobits
ARM GAS  C:\Users\Grzybek\AppData\Local\Temp\ccBL9yEH.s 			page 2


  58              		.align	2
  59              		.type	xPollingConsumerCount, %object
  60              		.size	xPollingConsumerCount, 4
  61              	xPollingConsumerCount:
  62 0000 00000000 		.space	4
  63              		.section	.bss.xPollingProducerCount,"aw",%nobits
  64              		.align	2
  65              		.type	xPollingProducerCount, %object
  66              		.size	xPollingProducerCount, 4
  67              	xPollingProducerCount:
  68 0000 00000000 		.space	4
  69              		.section	.rodata
  70              		.align	2
  71              	.LC0:
  72 0000 51436F6E 		.ascii	"QConsNB\000"
  72      734E4200 
  73              		.align	2
  74              	.LC1:
  75 0008 5150726F 		.ascii	"QProdNB\000"
  75      644E4200 
  76              		.section	.text.vStartPolledQueueTasks,"ax",%progbits
  77              		.align	2
  78              		.global	vStartPolledQueueTasks
  79              		.thumb
  80              		.thumb_func
  81              		.type	vStartPolledQueueTasks, %function
  82              	vStartPolledQueueTasks:
  83              	.LFB0:
  84              		.file 1 "Common/Minimal/PollQ.c"
   1:Common/Minimal/PollQ.c **** /*
   2:Common/Minimal/PollQ.c ****     FreeRTOS V7.3.0 - Copyright (C) 2012 Real Time Engineers Ltd.
   3:Common/Minimal/PollQ.c **** 
   4:Common/Minimal/PollQ.c ****     FEATURES AND PORTS ARE ADDED TO FREERTOS ALL THE TIME.  PLEASE VISIT 
   5:Common/Minimal/PollQ.c ****     http://www.FreeRTOS.org TO ENSURE YOU ARE USING THE LATEST VERSION.
   6:Common/Minimal/PollQ.c **** 
   7:Common/Minimal/PollQ.c ****     ***************************************************************************
   8:Common/Minimal/PollQ.c ****      *                                                                       *
   9:Common/Minimal/PollQ.c ****      *    FreeRTOS tutorial books are available in pdf and paperback.        *
  10:Common/Minimal/PollQ.c ****      *    Complete, revised, and edited pdf reference manuals are also       *
  11:Common/Minimal/PollQ.c ****      *    available.                                                         *
  12:Common/Minimal/PollQ.c ****      *                                                                       *
  13:Common/Minimal/PollQ.c ****      *    Purchasing FreeRTOS documentation will not only help you, by       *
  14:Common/Minimal/PollQ.c ****      *    ensuring you get running as quickly as possible and with an        *
  15:Common/Minimal/PollQ.c ****      *    in-depth knowledge of how to use FreeRTOS, it will also help       *
  16:Common/Minimal/PollQ.c ****      *    the FreeRTOS project to continue with its mission of providing     *
  17:Common/Minimal/PollQ.c ****      *    professional grade, cross platform, de facto standard solutions    *
  18:Common/Minimal/PollQ.c ****      *    for microcontrollers - completely free of charge!                  *
  19:Common/Minimal/PollQ.c ****      *                                                                       *
  20:Common/Minimal/PollQ.c ****      *    >>> See http://www.FreeRTOS.org/Documentation for details. <<<     *
  21:Common/Minimal/PollQ.c ****      *                                                                       *
  22:Common/Minimal/PollQ.c ****      *    Thank you for using FreeRTOS, and thank you for your support!      *
  23:Common/Minimal/PollQ.c ****      *                                                                       *
  24:Common/Minimal/PollQ.c ****     ***************************************************************************
  25:Common/Minimal/PollQ.c **** 
  26:Common/Minimal/PollQ.c **** 
  27:Common/Minimal/PollQ.c ****     This file is part of the FreeRTOS distribution.
  28:Common/Minimal/PollQ.c **** 
ARM GAS  C:\Users\Grzybek\AppData\Local\Temp\ccBL9yEH.s 			page 3


  29:Common/Minimal/PollQ.c ****     FreeRTOS is free software; you can redistribute it and/or modify it under
  30:Common/Minimal/PollQ.c ****     the terms of the GNU General Public License (version 2) as published by the
  31:Common/Minimal/PollQ.c ****     Free Software Foundation AND MODIFIED BY the FreeRTOS exception.
  32:Common/Minimal/PollQ.c ****     >>>NOTE<<< The modification to the GPL is included to allow you to
  33:Common/Minimal/PollQ.c ****     distribute a combined work that includes FreeRTOS without being obliged to
  34:Common/Minimal/PollQ.c ****     provide the source code for proprietary components outside of the FreeRTOS
  35:Common/Minimal/PollQ.c ****     kernel.  FreeRTOS is distributed in the hope that it will be useful, but
  36:Common/Minimal/PollQ.c ****     WITHOUT ANY WARRANTY; without even the implied warranty of MERCHANTABILITY
  37:Common/Minimal/PollQ.c ****     or FITNESS FOR A PARTICULAR PURPOSE.  See the GNU General Public License for
  38:Common/Minimal/PollQ.c ****     more details. You should have received a copy of the GNU General Public
  39:Common/Minimal/PollQ.c ****     License and the FreeRTOS license exception along with FreeRTOS; if not it
  40:Common/Minimal/PollQ.c ****     can be viewed here: http://www.freertos.org/a00114.html and also obtained
  41:Common/Minimal/PollQ.c ****     by writing to Richard Barry, contact details for whom are available on the
  42:Common/Minimal/PollQ.c ****     FreeRTOS WEB site.
  43:Common/Minimal/PollQ.c **** 
  44:Common/Minimal/PollQ.c ****     1 tab == 4 spaces!
  45:Common/Minimal/PollQ.c ****     
  46:Common/Minimal/PollQ.c ****     ***************************************************************************
  47:Common/Minimal/PollQ.c ****      *                                                                       *
  48:Common/Minimal/PollQ.c ****      *    Having a problem?  Start by reading the FAQ "My application does   *
  49:Common/Minimal/PollQ.c ****      *    not run, what could be wrong?"                                     *
  50:Common/Minimal/PollQ.c ****      *                                                                       *
  51:Common/Minimal/PollQ.c ****      *    http://www.FreeRTOS.org/FAQHelp.html                               *
  52:Common/Minimal/PollQ.c ****      *                                                                       *
  53:Common/Minimal/PollQ.c ****     ***************************************************************************
  54:Common/Minimal/PollQ.c **** 
  55:Common/Minimal/PollQ.c ****     
  56:Common/Minimal/PollQ.c ****     http://www.FreeRTOS.org - Documentation, training, latest versions, license 
  57:Common/Minimal/PollQ.c ****     and contact details.  
  58:Common/Minimal/PollQ.c ****     
  59:Common/Minimal/PollQ.c ****     http://www.FreeRTOS.org/plus - A selection of FreeRTOS ecosystem products,
  60:Common/Minimal/PollQ.c ****     including FreeRTOS+Trace - an indispensable productivity tool.
  61:Common/Minimal/PollQ.c **** 
  62:Common/Minimal/PollQ.c ****     Real Time Engineers ltd license FreeRTOS to High Integrity Systems, who sell 
  63:Common/Minimal/PollQ.c ****     the code with commercial support, indemnification, and middleware, under 
  64:Common/Minimal/PollQ.c ****     the OpenRTOS brand: http://www.OpenRTOS.com.  High Integrity Systems also
  65:Common/Minimal/PollQ.c ****     provide a safety engineered and independently SIL3 certified version under 
  66:Common/Minimal/PollQ.c ****     the SafeRTOS brand: http://www.SafeRTOS.com.
  67:Common/Minimal/PollQ.c **** */
  68:Common/Minimal/PollQ.c **** 
  69:Common/Minimal/PollQ.c **** /*
  70:Common/Minimal/PollQ.c ****  * This version of PollQ. c is for use on systems that have limited stack
  71:Common/Minimal/PollQ.c ****  * space and no display facilities.  The complete version can be found in
  72:Common/Minimal/PollQ.c ****  * the Demo/Common/Full directory.
  73:Common/Minimal/PollQ.c ****  *
  74:Common/Minimal/PollQ.c ****  * Creates two tasks that communicate over a single queue.  One task acts as a
  75:Common/Minimal/PollQ.c ****  * producer, the other a consumer.
  76:Common/Minimal/PollQ.c ****  *
  77:Common/Minimal/PollQ.c ****  * The producer loops for three iteration, posting an incrementing number onto the
  78:Common/Minimal/PollQ.c ****  * queue each cycle.  It then delays for a fixed period before doing exactly the
  79:Common/Minimal/PollQ.c ****  * same again.
  80:Common/Minimal/PollQ.c ****  *
  81:Common/Minimal/PollQ.c ****  * The consumer loops emptying the queue.  Each item removed from the queue is
  82:Common/Minimal/PollQ.c ****  * checked to ensure it contains the expected value.  When the queue is empty it
  83:Common/Minimal/PollQ.c ****  * blocks for a fixed period, then does the same again.
  84:Common/Minimal/PollQ.c ****  *
  85:Common/Minimal/PollQ.c ****  * All queue access is performed without blocking.  The consumer completely empties
ARM GAS  C:\Users\Grzybek\AppData\Local\Temp\ccBL9yEH.s 			page 4


  86:Common/Minimal/PollQ.c ****  * the queue each time it runs so the producer should never find the queue full.
  87:Common/Minimal/PollQ.c ****  *
  88:Common/Minimal/PollQ.c ****  * An error is flagged if the consumer obtains an unexpected value or the producer
  89:Common/Minimal/PollQ.c ****  * find the queue is full.
  90:Common/Minimal/PollQ.c ****  */
  91:Common/Minimal/PollQ.c **** 
  92:Common/Minimal/PollQ.c **** /*
  93:Common/Minimal/PollQ.c **** Changes from V2.0.0
  94:Common/Minimal/PollQ.c **** 
  95:Common/Minimal/PollQ.c **** 	+ Delay periods are now specified using variables and constants of
  96:Common/Minimal/PollQ.c **** 	  portTickType rather than unsigned long.
  97:Common/Minimal/PollQ.c **** */
  98:Common/Minimal/PollQ.c **** 
  99:Common/Minimal/PollQ.c **** #include <stdlib.h>
 100:Common/Minimal/PollQ.c **** 
 101:Common/Minimal/PollQ.c **** /* Scheduler include files. */
 102:Common/Minimal/PollQ.c **** #include "FreeRTOS.h"
 103:Common/Minimal/PollQ.c **** #include "task.h"
 104:Common/Minimal/PollQ.c **** #include "queue.h"
 105:Common/Minimal/PollQ.c **** 
 106:Common/Minimal/PollQ.c **** /* Demo program include files. */
 107:Common/Minimal/PollQ.c **** #include "PollQ.h"
 108:Common/Minimal/PollQ.c **** 
 109:Common/Minimal/PollQ.c **** #define pollqSTACK_SIZE			configMINIMAL_STACK_SIZE
 110:Common/Minimal/PollQ.c **** #define pollqQUEUE_SIZE			( 10 )
 111:Common/Minimal/PollQ.c **** #define pollqPRODUCER_DELAY		( ( portTickType ) 200 / portTICK_RATE_MS )
 112:Common/Minimal/PollQ.c **** #define pollqCONSUMER_DELAY		( pollqPRODUCER_DELAY - ( portTickType ) ( 20 / portTICK_RATE_MS ) )
 113:Common/Minimal/PollQ.c **** #define pollqNO_DELAY			( ( portTickType ) 0 )
 114:Common/Minimal/PollQ.c **** #define pollqVALUES_TO_PRODUCE	( ( signed portBASE_TYPE ) 3 )
 115:Common/Minimal/PollQ.c **** #define pollqINITIAL_VALUE		( ( signed portBASE_TYPE ) 0 )
 116:Common/Minimal/PollQ.c **** 
 117:Common/Minimal/PollQ.c **** /* The task that posts the incrementing number onto the queue. */
 118:Common/Minimal/PollQ.c **** static portTASK_FUNCTION_PROTO( vPolledQueueProducer, pvParameters );
 119:Common/Minimal/PollQ.c **** 
 120:Common/Minimal/PollQ.c **** /* The task that empties the queue. */
 121:Common/Minimal/PollQ.c **** static portTASK_FUNCTION_PROTO( vPolledQueueConsumer, pvParameters );
 122:Common/Minimal/PollQ.c **** 
 123:Common/Minimal/PollQ.c **** /* Variables that are used to check that the tasks are still running with no
 124:Common/Minimal/PollQ.c **** errors. */
 125:Common/Minimal/PollQ.c **** static volatile signed portBASE_TYPE xPollingConsumerCount = pollqINITIAL_VALUE, xPollingProducerCo
 126:Common/Minimal/PollQ.c **** 
 127:Common/Minimal/PollQ.c **** /*-----------------------------------------------------------*/
 128:Common/Minimal/PollQ.c **** 
 129:Common/Minimal/PollQ.c **** void vStartPolledQueueTasks( unsigned portBASE_TYPE uxPriority )
 130:Common/Minimal/PollQ.c **** {
  85              		.loc 1 130 0
  86              		.cfi_startproc
  87              		@ args = 0, pretend = 0, frame = 8
  88              		@ frame_needed = 1, uses_anonymous_args = 0
  89 0000 80B5     		push	{r7, lr}	@
  90              	.LCFI0:
  91              		.cfi_def_cfa_offset 8
  92              		.cfi_offset 7, -8
  93              		.cfi_offset 14, -4
  94 0002 86B0     		sub	sp, sp, #24	@,,
  95              	.LCFI1:
  96              		.cfi_def_cfa_offset 32
ARM GAS  C:\Users\Grzybek\AppData\Local\Temp\ccBL9yEH.s 			page 5


  97 0004 04AF     		add	r7, sp, #16	@,,
  98              	.LCFI2:
  99              		.cfi_def_cfa 7, 16
 100 0006 7860     		str	r0, [r7, #4]	@ uxPriority, uxPriority
 131:Common/Minimal/PollQ.c **** static xQueueHandle xPolledQueue;
 132:Common/Minimal/PollQ.c **** 
 133:Common/Minimal/PollQ.c **** 	/* Create the queue used by the producer and consumer. */
 134:Common/Minimal/PollQ.c **** 	xPolledQueue = xQueueCreate( pollqQUEUE_SIZE, ( unsigned portBASE_TYPE ) sizeof( unsigned short ) 
 101              		.loc 1 134 0
 102 0008 4FF00A00 		mov	r0, #10	@,
 103 000c 4FF00201 		mov	r1, #2	@,
 104 0010 4FF00002 		mov	r2, #0	@,
 105 0014 FFF7FEFF 		bl	xQueueGenericCreate	@
 106 0018 0246     		mov	r2, r0	@ xPolledQueue.9,
 107 001a 154B     		ldr	r3, .L2	@ tmp135,
 108 001c 1A60     		str	r2, [r3, #0]	@ xPolledQueue.9, xPolledQueue
 135:Common/Minimal/PollQ.c **** 
 136:Common/Minimal/PollQ.c **** 	/* vQueueAddToRegistry() adds the queue to the queue registry, if one is
 137:Common/Minimal/PollQ.c **** 	in use.  The queue registry is provided as a means for kernel aware 
 138:Common/Minimal/PollQ.c **** 	debuggers to locate queues and has no purpose if a kernel aware debugger
 139:Common/Minimal/PollQ.c **** 	is not being used.  The call to vQueueAddToRegistry() will be removed
 140:Common/Minimal/PollQ.c **** 	by the pre-processor if configQUEUE_REGISTRY_SIZE is not defined or is 
 141:Common/Minimal/PollQ.c **** 	defined to be less than 1. */
 142:Common/Minimal/PollQ.c **** 	vQueueAddToRegistry( xPolledQueue, ( signed char * ) "Poll_Test_Queue" );
 143:Common/Minimal/PollQ.c **** 
 144:Common/Minimal/PollQ.c **** 	/* Spawn the producer and consumer. */
 145:Common/Minimal/PollQ.c **** 	xTaskCreate( vPolledQueueConsumer, ( signed char * ) "QConsNB", pollqSTACK_SIZE, ( void * ) &xPoll
 109              		.loc 1 145 0
 110 001e 7B68     		ldr	r3, [r7, #4]	@ tmp136, uxPriority
 111 0020 0093     		str	r3, [sp, #0]	@ tmp136,
 112 0022 4FF00003 		mov	r3, #0	@ tmp137,
 113 0026 0193     		str	r3, [sp, #4]	@ tmp137,
 114 0028 4FF00003 		mov	r3, #0	@ tmp138,
 115 002c 0293     		str	r3, [sp, #8]	@ tmp138,
 116 002e 4FF00003 		mov	r3, #0	@ tmp139,
 117 0032 0393     		str	r3, [sp, #12]	@ tmp139,
 118 0034 0F48     		ldr	r0, .L2+4	@,
 119 0036 1049     		ldr	r1, .L2+8	@,
 120 0038 4FF08002 		mov	r2, #128	@,
 121 003c 0C4B     		ldr	r3, .L2	@,
 122 003e FFF7FEFF 		bl	xTaskGenericCreate	@
 146:Common/Minimal/PollQ.c **** 	xTaskCreate( vPolledQueueProducer, ( signed char * ) "QProdNB", pollqSTACK_SIZE, ( void * ) &xPoll
 123              		.loc 1 146 0
 124 0042 7B68     		ldr	r3, [r7, #4]	@ tmp140, uxPriority
 125 0044 0093     		str	r3, [sp, #0]	@ tmp140,
 126 0046 4FF00003 		mov	r3, #0	@ tmp141,
 127 004a 0193     		str	r3, [sp, #4]	@ tmp141,
 128 004c 4FF00003 		mov	r3, #0	@ tmp142,
 129 0050 0293     		str	r3, [sp, #8]	@ tmp142,
 130 0052 4FF00003 		mov	r3, #0	@ tmp143,
 131 0056 0393     		str	r3, [sp, #12]	@ tmp143,
 132 0058 0848     		ldr	r0, .L2+12	@,
 133 005a 0949     		ldr	r1, .L2+16	@,
 134 005c 4FF08002 		mov	r2, #128	@,
 135 0060 034B     		ldr	r3, .L2	@,
 136 0062 FFF7FEFF 		bl	xTaskGenericCreate	@
 147:Common/Minimal/PollQ.c **** }
ARM GAS  C:\Users\Grzybek\AppData\Local\Temp\ccBL9yEH.s 			page 6


 137              		.loc 1 147 0
 138 0066 07F10807 		add	r7, r7, #8	@,,
 139 006a BD46     		mov	sp, r7
 140 006c 80BD     		pop	{r7, pc}
 141              	.L3:
 142 006e 00BF     		.align	2
 143              	.L2:
 144 0070 00000000 		.word	xPolledQueue.4913
 145 0074 00000000 		.word	vPolledQueueConsumer
 146 0078 00000000 		.word	.LC0
 147 007c 00000000 		.word	vPolledQueueProducer
 148 0080 08000000 		.word	.LC1
 149              		.cfi_endproc
 150              	.LFE0:
 151              		.size	vStartPolledQueueTasks, .-vStartPolledQueueTasks
 152              		.section	.text.vPolledQueueProducer,"ax",%progbits
 153              		.align	2
 154              		.thumb
 155              		.thumb_func
 156              		.type	vPolledQueueProducer, %function
 157              	vPolledQueueProducer:
 158              	.LFB1:
 148:Common/Minimal/PollQ.c **** /*-----------------------------------------------------------*/
 149:Common/Minimal/PollQ.c **** 
 150:Common/Minimal/PollQ.c **** static portTASK_FUNCTION( vPolledQueueProducer, pvParameters )
 151:Common/Minimal/PollQ.c **** {
 159              		.loc 1 151 0
 160              		.cfi_startproc
 161              		@ args = 0, pretend = 0, frame = 24
 162              		@ frame_needed = 1, uses_anonymous_args = 0
 163 0000 80B5     		push	{r7, lr}	@
 164              	.LCFI3:
 165              		.cfi_def_cfa_offset 8
 166              		.cfi_offset 7, -8
 167              		.cfi_offset 14, -4
 168 0002 86B0     		sub	sp, sp, #24	@,,
 169              	.LCFI4:
 170              		.cfi_def_cfa_offset 32
 171 0004 00AF     		add	r7, sp, #0	@,,
 172              	.LCFI5:
 173              		.cfi_def_cfa_register 7
 174 0006 7860     		str	r0, [r7, #4]	@ pvParameters, pvParameters
 152:Common/Minimal/PollQ.c **** unsigned short usValue = ( unsigned short ) 0;
 175              		.loc 1 152 0
 176 0008 4FF00003 		mov	r3, #0	@ tmp141,
 177 000c FB81     		strh	r3, [r7, #14]	@ movhi	@ tmp140, usValue
 153:Common/Minimal/PollQ.c **** signed portBASE_TYPE xError = pdFALSE, xLoop;
 178              		.loc 1 153 0
 179 000e 4FF00003 		mov	r3, #0	@ tmp142,
 180 0012 7B61     		str	r3, [r7, #20]	@ tmp142, xError
 181              	.L10:
 154:Common/Minimal/PollQ.c **** 
 155:Common/Minimal/PollQ.c **** 	for( ;; )
 156:Common/Minimal/PollQ.c **** 	{		
 157:Common/Minimal/PollQ.c **** 		for( xLoop = 0; xLoop < pollqVALUES_TO_PRODUCE; xLoop++ )
 182              		.loc 1 157 0
 183 0014 4FF00003 		mov	r3, #0	@ tmp143,
ARM GAS  C:\Users\Grzybek\AppData\Local\Temp\ccBL9yEH.s 			page 7


 184 0018 3B61     		str	r3, [r7, #16]	@ tmp143, xLoop
 185 001a 28E0     		b	.L5	@
 186              	.L9:
 158:Common/Minimal/PollQ.c **** 		{
 159:Common/Minimal/PollQ.c **** 			/* Send an incrementing number on the queue without blocking. */
 160:Common/Minimal/PollQ.c **** 			if( xQueueSend( *( ( xQueueHandle * ) pvParameters ), ( void * ) &usValue, pollqNO_DELAY ) != pd
 187              		.loc 1 160 0
 188 001c 7B68     		ldr	r3, [r7, #4]	@ tmp144, pvParameters
 189 001e 1A68     		ldr	r2, [r3, #0]	@ D.4963, MEM[(void * *)pvParameters_7(D)]
 190 0020 07F10E03 		add	r3, r7, #14	@ tmp145,,
 191 0024 1046     		mov	r0, r2	@, D.4963
 192 0026 1946     		mov	r1, r3	@, tmp145
 193 0028 4FF00002 		mov	r2, #0	@,
 194 002c 4FF00003 		mov	r3, #0	@,
 195 0030 FFF7FEFF 		bl	xQueueGenericSend	@
 196 0034 0346     		mov	r3, r0	@ D.4964,
 197 0036 012B     		cmp	r3, #1	@ D.4964,
 198 0038 03D0     		beq	.L6	@,
 161:Common/Minimal/PollQ.c **** 			{
 162:Common/Minimal/PollQ.c **** 				/* We should never find the queue full so if we get here there
 163:Common/Minimal/PollQ.c **** 				has been an error. */
 164:Common/Minimal/PollQ.c **** 				xError = pdTRUE;
 199              		.loc 1 164 0
 200 003a 4FF00103 		mov	r3, #1	@ tmp146,
 201 003e 7B61     		str	r3, [r7, #20]	@ tmp146, xError
 202 0040 11E0     		b	.L7	@
 203              	.L6:
 165:Common/Minimal/PollQ.c **** 			}
 166:Common/Minimal/PollQ.c **** 			else
 167:Common/Minimal/PollQ.c **** 			{
 168:Common/Minimal/PollQ.c **** 				if( xError == pdFALSE )
 204              		.loc 1 168 0
 205 0042 7B69     		ldr	r3, [r7, #20]	@ tmp147, xError
 206 0044 002B     		cmp	r3, #0	@ tmp147,
 207 0046 09D1     		bne	.L8	@,
 169:Common/Minimal/PollQ.c **** 				{
 170:Common/Minimal/PollQ.c **** 					/* If an error has ever been recorded we stop incrementing the
 171:Common/Minimal/PollQ.c **** 					check variable. */
 172:Common/Minimal/PollQ.c **** 					portENTER_CRITICAL();
 208              		.loc 1 172 0
 209 0048 FFF7FEFF 		bl	vPortEnterCritical	@
 173:Common/Minimal/PollQ.c **** 						xPollingProducerCount++;
 210              		.loc 1 173 0
 211 004c 0C4B     		ldr	r3, .L11	@ tmp148,
 212 004e 1B68     		ldr	r3, [r3, #0]	@ xPollingProducerCount.5, xPollingProducerCount
 213 0050 03F10102 		add	r2, r3, #1	@ xPollingProducerCount.6, xPollingProducerCount.5,
 214 0054 0A4B     		ldr	r3, .L11	@ tmp149,
 215 0056 1A60     		str	r2, [r3, #0]	@ xPollingProducerCount.6, xPollingProducerCount
 174:Common/Minimal/PollQ.c **** 					portEXIT_CRITICAL();
 216              		.loc 1 174 0
 217 0058 FFF7FEFF 		bl	vPortExitCritical	@
 218              	.L8:
 175:Common/Minimal/PollQ.c **** 				}
 176:Common/Minimal/PollQ.c **** 
 177:Common/Minimal/PollQ.c **** 				/* Update the value we are going to post next time around. */
 178:Common/Minimal/PollQ.c **** 				usValue++;
 219              		.loc 1 178 0
ARM GAS  C:\Users\Grzybek\AppData\Local\Temp\ccBL9yEH.s 			page 8


 220 005c FB89     		ldrh	r3, [r7, #14]	@ usValue.7, usValue
 221 005e 03F10103 		add	r3, r3, #1	@ tmp150, usValue.7,
 222 0062 9BB2     		uxth	r3, r3	@ usValue.8, tmp150
 223 0064 FB81     		strh	r3, [r7, #14]	@ movhi	@ tmp151, usValue
 224              	.L7:
 157:Common/Minimal/PollQ.c **** 		for( xLoop = 0; xLoop < pollqVALUES_TO_PRODUCE; xLoop++ )
 225              		.loc 1 157 0
 226 0066 3B69     		ldr	r3, [r7, #16]	@ tmp153, xLoop
 227 0068 03F10103 		add	r3, r3, #1	@ tmp152, tmp153,
 228 006c 3B61     		str	r3, [r7, #16]	@ tmp152, xLoop
 229              	.L5:
 157:Common/Minimal/PollQ.c **** 		for( xLoop = 0; xLoop < pollqVALUES_TO_PRODUCE; xLoop++ )
 230              		.loc 1 157 0 is_stmt 0 discriminator 1
 231 006e 3B69     		ldr	r3, [r7, #16]	@ tmp154, xLoop
 232 0070 022B     		cmp	r3, #2	@ tmp154,
 233 0072 D3DD     		ble	.L9	@,
 179:Common/Minimal/PollQ.c **** 			}
 180:Common/Minimal/PollQ.c **** 		}
 181:Common/Minimal/PollQ.c **** 
 182:Common/Minimal/PollQ.c **** 		/* Wait before we start posting again to ensure the consumer runs and
 183:Common/Minimal/PollQ.c **** 		empties the queue. */
 184:Common/Minimal/PollQ.c **** 		vTaskDelay( pollqPRODUCER_DELAY );
 234              		.loc 1 184 0 is_stmt 1
 235 0074 4FF0C800 		mov	r0, #200	@,
 236 0078 FFF7FEFF 		bl	vTaskDelay	@
 185:Common/Minimal/PollQ.c **** 	}
 237              		.loc 1 185 0
 238 007c CAE7     		b	.L10	@
 239              	.L12:
 240 007e 00BF     		.align	2
 241              	.L11:
 242 0080 00000000 		.word	xPollingProducerCount
 243              		.cfi_endproc
 244              	.LFE1:
 245              		.size	vPolledQueueProducer, .-vPolledQueueProducer
 246              		.section	.text.vPolledQueueConsumer,"ax",%progbits
 247              		.align	2
 248              		.thumb
 249              		.thumb_func
 250              		.type	vPolledQueueConsumer, %function
 251              	vPolledQueueConsumer:
 252              	.LFB2:
 186:Common/Minimal/PollQ.c **** }  /*lint !e818 Function prototype must conform to API. */
 187:Common/Minimal/PollQ.c **** /*-----------------------------------------------------------*/
 188:Common/Minimal/PollQ.c **** 
 189:Common/Minimal/PollQ.c **** static portTASK_FUNCTION( vPolledQueueConsumer, pvParameters )
 190:Common/Minimal/PollQ.c **** {
 253              		.loc 1 190 0
 254              		.cfi_startproc
 255              		@ args = 0, pretend = 0, frame = 24
 256              		@ frame_needed = 1, uses_anonymous_args = 0
 257 0000 80B5     		push	{r7, lr}	@
 258              	.LCFI6:
 259              		.cfi_def_cfa_offset 8
 260              		.cfi_offset 7, -8
 261              		.cfi_offset 14, -4
 262 0002 86B0     		sub	sp, sp, #24	@,,
ARM GAS  C:\Users\Grzybek\AppData\Local\Temp\ccBL9yEH.s 			page 9


 263              	.LCFI7:
 264              		.cfi_def_cfa_offset 32
 265 0004 00AF     		add	r7, sp, #0	@,,
 266              	.LCFI8:
 267              		.cfi_def_cfa_register 7
 268 0006 7860     		str	r0, [r7, #4]	@ pvParameters, pvParameters
 191:Common/Minimal/PollQ.c **** unsigned short usData, usExpectedValue = ( unsigned short ) 0;
 269              		.loc 1 191 0
 270 0008 4FF00003 		mov	r3, #0	@ tmp142,
 271 000c FB82     		strh	r3, [r7, #22]	@ movhi	@ tmp141, usExpectedValue
 192:Common/Minimal/PollQ.c **** signed portBASE_TYPE xError = pdFALSE;
 272              		.loc 1 192 0
 273 000e 4FF00003 		mov	r3, #0	@ tmp143,
 274 0012 3B61     		str	r3, [r7, #16]	@ tmp143, xError
 193:Common/Minimal/PollQ.c **** 
 194:Common/Minimal/PollQ.c **** 	for( ;; )
 195:Common/Minimal/PollQ.c **** 	{		
 196:Common/Minimal/PollQ.c **** 		/* Loop until the queue is empty. */
 197:Common/Minimal/PollQ.c **** 		while( uxQueueMessagesWaiting( *( ( xQueueHandle * ) pvParameters ) ) )
 275              		.loc 1 197 0
 276 0014 29E0     		b	.L14	@
 277              	.L17:
 198:Common/Minimal/PollQ.c **** 		{
 199:Common/Minimal/PollQ.c **** 			if( xQueueReceive( *( ( xQueueHandle * ) pvParameters ), &usData, pollqNO_DELAY ) == pdPASS )
 278              		.loc 1 199 0
 279 0016 7B68     		ldr	r3, [r7, #4]	@ tmp144, pvParameters
 280 0018 1A68     		ldr	r2, [r3, #0]	@ D.4949, MEM[(void * *)pvParameters_9(D)]
 281 001a 07F10E03 		add	r3, r7, #14	@ tmp145,,
 282 001e 1046     		mov	r0, r2	@, D.4949
 283 0020 1946     		mov	r1, r3	@, tmp145
 284 0022 4FF00002 		mov	r2, #0	@,
 285 0026 4FF00003 		mov	r3, #0	@,
 286 002a FFF7FEFF 		bl	xQueueGenericReceive	@
 287 002e 0346     		mov	r3, r0	@ D.4950,
 288 0030 012B     		cmp	r3, #1	@ D.4950,
 289 0032 1AD1     		bne	.L14	@,
 200:Common/Minimal/PollQ.c **** 			{
 201:Common/Minimal/PollQ.c **** 				if( usData != usExpectedValue )
 290              		.loc 1 201 0
 291 0034 FB89     		ldrh	r3, [r7, #14]	@ usData.2, usData
 292 0036 FA8A     		ldrh	r2, [r7, #22]	@ tmp146, usExpectedValue
 293 0038 9A42     		cmp	r2, r3	@ tmp146, usData.2
 294 003a 05D0     		beq	.L15	@,
 202:Common/Minimal/PollQ.c **** 				{
 203:Common/Minimal/PollQ.c **** 					/* This is not what we expected to receive so an error has
 204:Common/Minimal/PollQ.c **** 					occurred. */
 205:Common/Minimal/PollQ.c **** 					xError = pdTRUE;
 295              		.loc 1 205 0
 296 003c 4FF00103 		mov	r3, #1	@ tmp147,
 297 0040 3B61     		str	r3, [r7, #16]	@ tmp147, xError
 206:Common/Minimal/PollQ.c **** 
 207:Common/Minimal/PollQ.c **** 					/* Catch-up to the value we received so our next expected
 208:Common/Minimal/PollQ.c **** 					value should again be correct. */
 209:Common/Minimal/PollQ.c **** 					usExpectedValue = usData;
 298              		.loc 1 209 0
 299 0042 FB89     		ldrh	r3, [r7, #14]	@ movhi	@ tmp148, usData
 300 0044 FB82     		strh	r3, [r7, #22]	@ movhi	@ tmp148, usExpectedValue
ARM GAS  C:\Users\Grzybek\AppData\Local\Temp\ccBL9yEH.s 			page 10


 301 0046 0CE0     		b	.L16	@
 302              	.L15:
 210:Common/Minimal/PollQ.c **** 				}
 211:Common/Minimal/PollQ.c **** 				else
 212:Common/Minimal/PollQ.c **** 				{
 213:Common/Minimal/PollQ.c **** 					if( xError == pdFALSE )
 303              		.loc 1 213 0
 304 0048 3B69     		ldr	r3, [r7, #16]	@ tmp149, xError
 305 004a 002B     		cmp	r3, #0	@ tmp149,
 306 004c 09D1     		bne	.L16	@,
 214:Common/Minimal/PollQ.c **** 					{
 215:Common/Minimal/PollQ.c **** 						/* Only increment the check variable if no errors have
 216:Common/Minimal/PollQ.c **** 						occurred. */
 217:Common/Minimal/PollQ.c **** 						portENTER_CRITICAL();
 307              		.loc 1 217 0
 308 004e FFF7FEFF 		bl	vPortEnterCritical	@
 218:Common/Minimal/PollQ.c **** 							xPollingConsumerCount++;
 309              		.loc 1 218 0
 310 0052 0D4B     		ldr	r3, .L19	@ tmp150,
 311 0054 1B68     		ldr	r3, [r3, #0]	@ xPollingConsumerCount.3, xPollingConsumerCount
 312 0056 03F10102 		add	r2, r3, #1	@ xPollingConsumerCount.4, xPollingConsumerCount.3,
 313 005a 0B4B     		ldr	r3, .L19	@ tmp151,
 314 005c 1A60     		str	r2, [r3, #0]	@ xPollingConsumerCount.4, xPollingConsumerCount
 219:Common/Minimal/PollQ.c **** 						portEXIT_CRITICAL();
 315              		.loc 1 219 0
 316 005e FFF7FEFF 		bl	vPortExitCritical	@
 317              	.L16:
 220:Common/Minimal/PollQ.c **** 					}
 221:Common/Minimal/PollQ.c **** 				}
 222:Common/Minimal/PollQ.c **** 
 223:Common/Minimal/PollQ.c **** 				/* Next time round we would expect the number to be one higher. */
 224:Common/Minimal/PollQ.c **** 				usExpectedValue++;
 318              		.loc 1 224 0
 319 0062 FB8A     		ldrh	r3, [r7, #22]	@ movhi	@ tmp152, usExpectedValue
 320 0064 03F10103 		add	r3, r3, #1	@ tmp153, tmp152,
 321 0068 FB82     		strh	r3, [r7, #22]	@ movhi	@ tmp154, usExpectedValue
 322              	.L14:
 197:Common/Minimal/PollQ.c **** 		while( uxQueueMessagesWaiting( *( ( xQueueHandle * ) pvParameters ) ) )
 323              		.loc 1 197 0 discriminator 1
 324 006a 7B68     		ldr	r3, [r7, #4]	@ tmp155, pvParameters
 325 006c 1B68     		ldr	r3, [r3, #0]	@ D.4961, MEM[(void * *)pvParameters_9(D)]
 326 006e 1846     		mov	r0, r3	@, D.4961
 327 0070 FFF7FEFF 		bl	uxQueueMessagesWaiting	@
 328 0074 0346     		mov	r3, r0	@ D.4962,
 329 0076 002B     		cmp	r3, #0	@ D.4962,
 330 0078 CDD1     		bne	.L17	@,
 225:Common/Minimal/PollQ.c **** 			}
 226:Common/Minimal/PollQ.c **** 		}
 227:Common/Minimal/PollQ.c **** 
 228:Common/Minimal/PollQ.c **** 		/* Now the queue is empty we block, allowing the producer to place more
 229:Common/Minimal/PollQ.c **** 		items in the queue. */
 230:Common/Minimal/PollQ.c **** 		vTaskDelay( pollqCONSUMER_DELAY );
 331              		.loc 1 230 0
 332 007a 4FF0B400 		mov	r0, #180	@,
 333 007e FFF7FEFF 		bl	vTaskDelay	@
 231:Common/Minimal/PollQ.c **** 	}
 334              		.loc 1 231 0
ARM GAS  C:\Users\Grzybek\AppData\Local\Temp\ccBL9yEH.s 			page 11


 335 0082 00BF     		nop
 197:Common/Minimal/PollQ.c **** 		while( uxQueueMessagesWaiting( *( ( xQueueHandle * ) pvParameters ) ) )
 336              		.loc 1 197 0
 337 0084 F1E7     		b	.L14	@
 338              	.L20:
 339 0086 00BF     		.align	2
 340              	.L19:
 341 0088 00000000 		.word	xPollingConsumerCount
 342              		.cfi_endproc
 343              	.LFE2:
 344              		.size	vPolledQueueConsumer, .-vPolledQueueConsumer
 345              		.section	.text.xArePollingQueuesStillRunning,"ax",%progbits
 346              		.align	2
 347              		.global	xArePollingQueuesStillRunning
 348              		.thumb
 349              		.thumb_func
 350              		.type	xArePollingQueuesStillRunning, %function
 351              	xArePollingQueuesStillRunning:
 352              	.LFB3:
 232:Common/Minimal/PollQ.c **** } /*lint !e818 Function prototype must conform to API. */
 233:Common/Minimal/PollQ.c **** /*-----------------------------------------------------------*/
 234:Common/Minimal/PollQ.c **** 
 235:Common/Minimal/PollQ.c **** /* This is called to check that all the created tasks are still running with no errors. */
 236:Common/Minimal/PollQ.c **** portBASE_TYPE xArePollingQueuesStillRunning( void )
 237:Common/Minimal/PollQ.c **** {
 353              		.loc 1 237 0
 354              		.cfi_startproc
 355              		@ args = 0, pretend = 0, frame = 8
 356              		@ frame_needed = 1, uses_anonymous_args = 0
 357              		@ link register save eliminated.
 358 0000 80B4     		push	{r7}	@
 359              	.LCFI9:
 360              		.cfi_def_cfa_offset 4
 361              		.cfi_offset 7, -4
 362 0002 83B0     		sub	sp, sp, #12	@,,
 363              	.LCFI10:
 364              		.cfi_def_cfa_offset 16
 365 0004 00AF     		add	r7, sp, #0	@,,
 366              	.LCFI11:
 367              		.cfi_def_cfa_register 7
 238:Common/Minimal/PollQ.c **** portBASE_TYPE xReturn;
 239:Common/Minimal/PollQ.c **** 
 240:Common/Minimal/PollQ.c **** 	/* Check both the consumer and producer poll count to check they have both
 241:Common/Minimal/PollQ.c **** 	been changed since out last trip round.  We do not need a critical section
 242:Common/Minimal/PollQ.c **** 	around the check variables as this is called from a higher priority than
 243:Common/Minimal/PollQ.c **** 	the other tasks that access the same variables. */
 244:Common/Minimal/PollQ.c **** 	if( ( xPollingConsumerCount == pollqINITIAL_VALUE ) ||
 368              		.loc 1 244 0
 369 0006 0F4B     		ldr	r3, .L26	@ tmp138,
 370 0008 1B68     		ldr	r3, [r3, #0]	@ xPollingConsumerCount.0, xPollingConsumerCount
 371 000a 002B     		cmp	r3, #0	@ xPollingConsumerCount.0,
 372 000c 03D0     		beq	.L22	@,
 245:Common/Minimal/PollQ.c **** 		( xPollingProducerCount == pollqINITIAL_VALUE )
 373              		.loc 1 245 0 discriminator 1
 374 000e 0E4B     		ldr	r3, .L26+4	@ tmp139,
 375 0010 1B68     		ldr	r3, [r3, #0]	@ xPollingProducerCount.1, xPollingProducerCount
 244:Common/Minimal/PollQ.c **** 	if( ( xPollingConsumerCount == pollqINITIAL_VALUE ) ||
ARM GAS  C:\Users\Grzybek\AppData\Local\Temp\ccBL9yEH.s 			page 12


 376              		.loc 1 244 0 discriminator 1
 377 0012 002B     		cmp	r3, #0	@ xPollingProducerCount.1,
 378 0014 03D1     		bne	.L23	@,
 379              	.L22:
 246:Common/Minimal/PollQ.c **** 	  )
 247:Common/Minimal/PollQ.c **** 	{
 248:Common/Minimal/PollQ.c **** 		xReturn = pdFALSE;
 380              		.loc 1 248 0
 381 0016 4FF00003 		mov	r3, #0	@ tmp140,
 382 001a 7B60     		str	r3, [r7, #4]	@ tmp140, xReturn
 383 001c 02E0     		b	.L24	@
 384              	.L23:
 249:Common/Minimal/PollQ.c **** 	}
 250:Common/Minimal/PollQ.c **** 	else
 251:Common/Minimal/PollQ.c **** 	{
 252:Common/Minimal/PollQ.c **** 		xReturn = pdTRUE;
 385              		.loc 1 252 0
 386 001e 4FF00103 		mov	r3, #1	@ tmp141,
 387 0022 7B60     		str	r3, [r7, #4]	@ tmp141, xReturn
 388              	.L24:
 253:Common/Minimal/PollQ.c **** 	}
 254:Common/Minimal/PollQ.c **** 
 255:Common/Minimal/PollQ.c **** 	/* Set the check variables back down so we know if they have been
 256:Common/Minimal/PollQ.c **** 	incremented the next time around. */
 257:Common/Minimal/PollQ.c **** 	xPollingConsumerCount = pollqINITIAL_VALUE;
 389              		.loc 1 257 0
 390 0024 074B     		ldr	r3, .L26	@ tmp142,
 391 0026 4FF00002 		mov	r2, #0	@ tmp143,
 392 002a 1A60     		str	r2, [r3, #0]	@ tmp143, xPollingConsumerCount
 258:Common/Minimal/PollQ.c **** 	xPollingProducerCount = pollqINITIAL_VALUE;
 393              		.loc 1 258 0
 394 002c 064B     		ldr	r3, .L26+4	@ tmp144,
 395 002e 4FF00002 		mov	r2, #0	@ tmp145,
 396 0032 1A60     		str	r2, [r3, #0]	@ tmp145, xPollingProducerCount
 259:Common/Minimal/PollQ.c **** 
 260:Common/Minimal/PollQ.c **** 	return xReturn;
 397              		.loc 1 260 0
 398 0034 7B68     		ldr	r3, [r7, #4]	@ D.4947, xReturn
 261:Common/Minimal/PollQ.c **** }
 399              		.loc 1 261 0
 400 0036 1846     		mov	r0, r3	@, <retval>
 401 0038 07F10C07 		add	r7, r7, #12	@,,
 402 003c BD46     		mov	sp, r7
 403 003e 80BC     		pop	{r7}
 404 0040 7047     		bx	lr
 405              	.L27:
 406 0042 00BF     		.align	2
 407              	.L26:
 408 0044 00000000 		.word	xPollingConsumerCount
 409 0048 00000000 		.word	xPollingProducerCount
 410              		.cfi_endproc
 411              	.LFE3:
 412              		.size	xArePollingQueuesStillRunning, .-xArePollingQueuesStillRunning
 413              		.section	.bss.xPolledQueue.4913,"aw",%nobits
 414              		.align	2
 415              		.type	xPolledQueue.4913, %object
 416              		.size	xPolledQueue.4913, 4
ARM GAS  C:\Users\Grzybek\AppData\Local\Temp\ccBL9yEH.s 			page 13


 417              	xPolledQueue.4913:
 418 0000 00000000 		.space	4
 419              		.text
 420              	.Letext0:
 421              		.file 2 "./Source/include/../../Source/portable/GCC/ARM_CM3/portmacro.h"
 422              		.file 3 "./Source/include/task.h"
 423              		.file 4 "./Source/include/queue.h"