ARM GAS  C:\Users\Grzybek\AppData\Local\Temp\ccm6R5xc.s 			page 1


   1              		.syntax unified
   2              		.cpu cortex-m3
   3              		.fpu softvfp
   4              		.eabi_attribute 20, 1	@ Tag_ABI_FP_denormal
   5              		.eabi_attribute 21, 1	@ Tag_ABI_FP_exceptions
   6              		.eabi_attribute 23, 3	@ Tag_ABI_FP_number_model
   7              		.eabi_attribute 24, 1	@ Tag_ABI_align8_needed
   8              		.eabi_attribute 25, 1	@ Tag_ABI_align8_preserved
   9              		.eabi_attribute 26, 1	@ Tag_ABI_enum_size
  10              		.eabi_attribute 30, 6	@ Tag_ABI_optimization_goals
  11              		.eabi_attribute 34, 1	@ Tag_CPU_unaligned_access
  12              		.eabi_attribute 18, 4	@ Tag_ABI_PCS_wchar_t
  13              		.file	"port.c"
  14              	@ GNU C (Sourcery CodeBench Lite 2012.09-63) version 4.7.2 (arm-none-eabi)
  15              	@	compiled by GNU C version 4.3.2, GMP version 5.0.5, MPFR version 3.1.1-p2, MPC version 1.0.1
  16              	@ GGC heuristics: --param ggc-min-expand=100 --param ggc-min-heapsize=131072
  17              	@ options passed:  -I . -I ./STCode -I ./Source/include
  18              	@ -I ./Source/portable/GCC/ARM_CM3 -I ./Common/include
  19              	@ -I ./Common/drivers/ST/STM32F10xFWLib/v3_2_0/Libraries/STM32F10x_StdPeriph_Driver/inc
  20              	@ -I ./Common/drivers/ST/STM32F10xFWLib/v3_2_0/Libraries/CMSIS/CM3/CoreSupport
  21              	@ -I ./Common/drivers/ST/STM32F10xFWLib/v3_2_0/Libraries/CMSIS/CM3/DeviceSupport/ST/STM32F10x
  22              	@ -imultilib thumb2
  23              	@ -iprefix c:\codesourcery\sourcery_codebench_lite_for_arm_eabi\bin\../lib/gcc/arm-none-eabi/4.7.2/
  24              	@ -isysroot c:\codesourcery\sourcery_codebench_lite_for_arm_eabi\bin\../arm-none-eabi
  25              	@ -D__USES_INITFINI__ -D STM32F10X_HD -D USE_STDPERIPH_DRIVER
  26              	@ -D VECT_TAB_FLASH -D GCC_ARMCM3 -D inline=
  27              	@ -D PACK_STRUCT_END=__attribute((packed))
  28              	@ -D ALIGN_STRUCT_END=__attribute((aligned(4)))
  29              	@ -D __CS_SOURCERYGXX_MAJ__=2012 -D __CS_SOURCERYGXX_MIN__=9
  30              	@ -D __CS_SOURCERYGXX_REV__=63 Source/portable/GCC/ARM_CM3/port.c -mthumb
  31              	@ -mcpu=cortex-m3 -auxbase-strip Debug/port.o -g3 -gdwarf-2 -O0 -std=gnu99
  32              	@ -ffunction-sections -fdata-sections -fmessage-length=0 -fverbose-asm
  33              	@ options enabled:  -fauto-inc-dec -fbranch-count-reg -fcommon
  34              	@ -fdata-sections -fdebug-types-section -fdelete-null-pointer-checks
  35              	@ -fdwarf2-cfi-asm -fearly-inlining -feliminate-unused-debug-types
  36              	@ -ffunction-cse -ffunction-sections -fgcse-lm -fgnu-runtime -fident
  37              	@ -finline-atomics -fira-share-save-slots -fira-share-spill-slots -fivopts
  38              	@ -fkeep-static-consts -fleading-underscore -fmath-errno
  39              	@ -fmerge-debug-strings -fmove-loop-invariants -fpeephole
  40              	@ -fprefetch-loop-arrays -freg-struct-return
  41              	@ -fsched-critical-path-heuristic -fsched-dep-count-heuristic
  42              	@ -fsched-group-heuristic -fsched-interblock -fsched-last-insn-heuristic
  43              	@ -fsched-rank-heuristic -fsched-spec -fsched-spec-insn-heuristic
  44              	@ -fsched-stalled-insns-dep -fshow-column -fsigned-zeros
  45              	@ -fsplit-ivs-in-unroller -fstrict-volatile-bitfields -ftrapping-math
  46              	@ -ftree-cselim -ftree-forwprop -ftree-loop-if-convert -ftree-loop-im
  47              	@ -ftree-loop-ivcanon -ftree-loop-optimize -ftree-parallelize-loops=
  48              	@ -ftree-phiprop -ftree-pta -ftree-reassoc -ftree-scev-cprop
  49              	@ -ftree-slp-vectorize -ftree-vect-loop-version -funit-at-a-time
  50              	@ -fverbose-asm -fzero-initialized-in-bss -mfix-cortex-m3-ldrd
  51              	@ -mlittle-endian -msched-prolog -mthumb -munaligned-access
  52              	@ -mvectorize-with-neon-quad
  53              	
  54              		.text
  55              	.Ltext0:
  56              		.cfi_sections	.debug_frame
  57              		.global	ulKernelPriority
ARM GAS  C:\Users\Grzybek\AppData\Local\Temp\ccm6R5xc.s 			page 2


  58              		.section	.rodata.ulKernelPriority,"a",%progbits
  59              		.align	2
  60              		.type	ulKernelPriority, %object
  61              		.size	ulKernelPriority, 4
  62              	ulKernelPriority:
  63 0000 FF000000 		.word	255
  64              		.section	.data.uxCriticalNesting,"aw",%progbits
  65              		.align	2
  66              		.type	uxCriticalNesting, %object
  67              		.size	uxCriticalNesting, 4
  68              	uxCriticalNesting:
  69 0000 AAAAAAAA 		.word	-1431655766
  70              		.section	.text.pxPortInitialiseStack,"ax",%progbits
  71              		.align	2
  72              		.global	pxPortInitialiseStack
  73              		.thumb
  74              		.thumb_func
  75              		.type	pxPortInitialiseStack, %function
  76              	pxPortInitialiseStack:
  77              	.LFB0:
  78              		.file 1 "Source/portable/GCC/ARM_CM3/port.c"
   1:Source/portable/GCC/ARM_CM3/port.c **** /*
   2:Source/portable/GCC/ARM_CM3/port.c ****     FreeRTOS V7.3.0 - Copyright (C) 2012 Real Time Engineers Ltd.
   3:Source/portable/GCC/ARM_CM3/port.c **** 
   4:Source/portable/GCC/ARM_CM3/port.c ****     FEATURES AND PORTS ARE ADDED TO FREERTOS ALL THE TIME.  PLEASE VISIT 
   5:Source/portable/GCC/ARM_CM3/port.c ****     http://www.FreeRTOS.org TO ENSURE YOU ARE USING THE LATEST VERSION.
   6:Source/portable/GCC/ARM_CM3/port.c **** 
   7:Source/portable/GCC/ARM_CM3/port.c ****     ***************************************************************************
   8:Source/portable/GCC/ARM_CM3/port.c ****      *                                                                       *
   9:Source/portable/GCC/ARM_CM3/port.c ****      *    FreeRTOS tutorial books are available in pdf and paperback.        *
  10:Source/portable/GCC/ARM_CM3/port.c ****      *    Complete, revised, and edited pdf reference manuals are also       *
  11:Source/portable/GCC/ARM_CM3/port.c ****      *    available.                                                         *
  12:Source/portable/GCC/ARM_CM3/port.c ****      *                                                                       *
  13:Source/portable/GCC/ARM_CM3/port.c ****      *    Purchasing FreeRTOS documentation will not only help you, by       *
  14:Source/portable/GCC/ARM_CM3/port.c ****      *    ensuring you get running as quickly as possible and with an        *
  15:Source/portable/GCC/ARM_CM3/port.c ****      *    in-depth knowledge of how to use FreeRTOS, it will also help       *
  16:Source/portable/GCC/ARM_CM3/port.c ****      *    the FreeRTOS project to continue with its mission of providing     *
  17:Source/portable/GCC/ARM_CM3/port.c ****      *    professional grade, cross platform, de facto standard solutions    *
  18:Source/portable/GCC/ARM_CM3/port.c ****      *    for microcontrollers - completely free of charge!                  *
  19:Source/portable/GCC/ARM_CM3/port.c ****      *                                                                       *
  20:Source/portable/GCC/ARM_CM3/port.c ****      *    >>> See http://www.FreeRTOS.org/Documentation for details. <<<     *
  21:Source/portable/GCC/ARM_CM3/port.c ****      *                                                                       *
  22:Source/portable/GCC/ARM_CM3/port.c ****      *    Thank you for using FreeRTOS, and thank you for your support!      *
  23:Source/portable/GCC/ARM_CM3/port.c ****      *                                                                       *
  24:Source/portable/GCC/ARM_CM3/port.c ****     ***************************************************************************
  25:Source/portable/GCC/ARM_CM3/port.c **** 
  26:Source/portable/GCC/ARM_CM3/port.c **** 
  27:Source/portable/GCC/ARM_CM3/port.c ****     This file is part of the FreeRTOS distribution.
  28:Source/portable/GCC/ARM_CM3/port.c **** 
  29:Source/portable/GCC/ARM_CM3/port.c ****     FreeRTOS is free software; you can redistribute it and/or modify it under
  30:Source/portable/GCC/ARM_CM3/port.c ****     the terms of the GNU General Public License (version 2) as published by the
  31:Source/portable/GCC/ARM_CM3/port.c ****     Free Software Foundation AND MODIFIED BY the FreeRTOS exception.
  32:Source/portable/GCC/ARM_CM3/port.c ****     >>>NOTE<<< The modification to the GPL is included to allow you to
  33:Source/portable/GCC/ARM_CM3/port.c ****     distribute a combined work that includes FreeRTOS without being obliged to
  34:Source/portable/GCC/ARM_CM3/port.c ****     provide the source code for proprietary components outside of the FreeRTOS
  35:Source/portable/GCC/ARM_CM3/port.c ****     kernel.  FreeRTOS is distributed in the hope that it will be useful, but
  36:Source/portable/GCC/ARM_CM3/port.c ****     WITHOUT ANY WARRANTY; without even the implied warranty of MERCHANTABILITY
ARM GAS  C:\Users\Grzybek\AppData\Local\Temp\ccm6R5xc.s 			page 3


  37:Source/portable/GCC/ARM_CM3/port.c ****     or FITNESS FOR A PARTICULAR PURPOSE.  See the GNU General Public License for
  38:Source/portable/GCC/ARM_CM3/port.c ****     more details. You should have received a copy of the GNU General Public
  39:Source/portable/GCC/ARM_CM3/port.c ****     License and the FreeRTOS license exception along with FreeRTOS; if not it
  40:Source/portable/GCC/ARM_CM3/port.c ****     can be viewed here: http://www.freertos.org/a00114.html and also obtained
  41:Source/portable/GCC/ARM_CM3/port.c ****     by writing to Richard Barry, contact details for whom are available on the
  42:Source/portable/GCC/ARM_CM3/port.c ****     FreeRTOS WEB site.
  43:Source/portable/GCC/ARM_CM3/port.c **** 
  44:Source/portable/GCC/ARM_CM3/port.c ****     1 tab == 4 spaces!
  45:Source/portable/GCC/ARM_CM3/port.c ****     
  46:Source/portable/GCC/ARM_CM3/port.c ****     ***************************************************************************
  47:Source/portable/GCC/ARM_CM3/port.c ****      *                                                                       *
  48:Source/portable/GCC/ARM_CM3/port.c ****      *    Having a problem?  Start by reading the FAQ "My application does   *
  49:Source/portable/GCC/ARM_CM3/port.c ****      *    not run, what could be wrong?"                                     *
  50:Source/portable/GCC/ARM_CM3/port.c ****      *                                                                       *
  51:Source/portable/GCC/ARM_CM3/port.c ****      *    http://www.FreeRTOS.org/FAQHelp.html                               *
  52:Source/portable/GCC/ARM_CM3/port.c ****      *                                                                       *
  53:Source/portable/GCC/ARM_CM3/port.c ****     ***************************************************************************
  54:Source/portable/GCC/ARM_CM3/port.c **** 
  55:Source/portable/GCC/ARM_CM3/port.c ****     
  56:Source/portable/GCC/ARM_CM3/port.c ****     http://www.FreeRTOS.org - Documentation, training, latest versions, license 
  57:Source/portable/GCC/ARM_CM3/port.c ****     and contact details.  
  58:Source/portable/GCC/ARM_CM3/port.c ****     
  59:Source/portable/GCC/ARM_CM3/port.c ****     http://www.FreeRTOS.org/plus - A selection of FreeRTOS ecosystem products,
  60:Source/portable/GCC/ARM_CM3/port.c ****     including FreeRTOS+Trace - an indispensable productivity tool.
  61:Source/portable/GCC/ARM_CM3/port.c **** 
  62:Source/portable/GCC/ARM_CM3/port.c ****     Real Time Engineers ltd license FreeRTOS to High Integrity Systems, who sell 
  63:Source/portable/GCC/ARM_CM3/port.c ****     the code with commercial support, indemnification, and middleware, under 
  64:Source/portable/GCC/ARM_CM3/port.c ****     the OpenRTOS brand: http://www.OpenRTOS.com.  High Integrity Systems also
  65:Source/portable/GCC/ARM_CM3/port.c ****     provide a safety engineered and independently SIL3 certified version under 
  66:Source/portable/GCC/ARM_CM3/port.c ****     the SafeRTOS brand: http://www.SafeRTOS.com.
  67:Source/portable/GCC/ARM_CM3/port.c **** */
  68:Source/portable/GCC/ARM_CM3/port.c **** 
  69:Source/portable/GCC/ARM_CM3/port.c **** /*-----------------------------------------------------------
  70:Source/portable/GCC/ARM_CM3/port.c ****  * Implementation of functions defined in portable.h for the ARM CM3 port.
  71:Source/portable/GCC/ARM_CM3/port.c ****  *----------------------------------------------------------*/
  72:Source/portable/GCC/ARM_CM3/port.c **** 
  73:Source/portable/GCC/ARM_CM3/port.c **** /* Scheduler includes. */
  74:Source/portable/GCC/ARM_CM3/port.c **** #include "FreeRTOS.h"
  75:Source/portable/GCC/ARM_CM3/port.c **** #include "task.h"
  76:Source/portable/GCC/ARM_CM3/port.c **** 
  77:Source/portable/GCC/ARM_CM3/port.c **** /* For backward compatibility, ensure configKERNEL_INTERRUPT_PRIORITY is
  78:Source/portable/GCC/ARM_CM3/port.c **** defined.  The value should also ensure backward compatibility.
  79:Source/portable/GCC/ARM_CM3/port.c **** FreeRTOS.org versions prior to V4.4.0 did not include this definition. */
  80:Source/portable/GCC/ARM_CM3/port.c **** #ifndef configKERNEL_INTERRUPT_PRIORITY
  81:Source/portable/GCC/ARM_CM3/port.c **** 	#define configKERNEL_INTERRUPT_PRIORITY 255
  82:Source/portable/GCC/ARM_CM3/port.c **** #endif
  83:Source/portable/GCC/ARM_CM3/port.c **** 
  84:Source/portable/GCC/ARM_CM3/port.c **** #ifndef configSYSTICK_CLOCK_HZ
  85:Source/portable/GCC/ARM_CM3/port.c **** 	#define configSYSTICK_CLOCK_HZ configCPU_CLOCK_HZ
  86:Source/portable/GCC/ARM_CM3/port.c **** #endif
  87:Source/portable/GCC/ARM_CM3/port.c **** 
  88:Source/portable/GCC/ARM_CM3/port.c **** /* Constants required to manipulate the core.  Registers first... */
  89:Source/portable/GCC/ARM_CM3/port.c **** #define portNVIC_SYSTICK_CTRL_REG			( * ( ( volatile unsigned long * ) 0xe000e010 ) )
  90:Source/portable/GCC/ARM_CM3/port.c **** #define portNVIC_SYSTICK_LOAD_REG			( * ( ( volatile unsigned long * ) 0xe000e014 ) )
  91:Source/portable/GCC/ARM_CM3/port.c **** #define portNVIC_SYSTICK_CURRENT_VALUE_REG	( * ( ( volatile unsigned long * ) 0xe000e018 ) )
  92:Source/portable/GCC/ARM_CM3/port.c **** #define portNVIC_INT_CTRL_REG				( * ( ( volatile unsigned long * ) 0xe000ed04 ) )
  93:Source/portable/GCC/ARM_CM3/port.c **** #define portNVIC_SYSPRI2_REG				( * ( ( volatile unsigned long * ) 0xe000ed20 ) )
ARM GAS  C:\Users\Grzybek\AppData\Local\Temp\ccm6R5xc.s 			page 4


  94:Source/portable/GCC/ARM_CM3/port.c **** /* ...then bits in the registers. */
  95:Source/portable/GCC/ARM_CM3/port.c **** #define portNVIC_SYSTICK_CLK_BIT			( 1UL << 2UL )
  96:Source/portable/GCC/ARM_CM3/port.c **** #define portNVIC_SYSTICK_INT_BIT			( 1UL << 1UL )
  97:Source/portable/GCC/ARM_CM3/port.c **** #define portNVIC_SYSTICK_ENABLE_BIT			( 1UL << 0UL )
  98:Source/portable/GCC/ARM_CM3/port.c **** #define portNVIC_SYSTICK_COUNT_FLAG_BIT		( 1UL << 16UL )
  99:Source/portable/GCC/ARM_CM3/port.c **** #define portNVIC_PENDSVSET_BIT				( 1UL << 28UL )
 100:Source/portable/GCC/ARM_CM3/port.c **** #define portNVIC_PENDSVCLEAR_BIT 			( 1UL << 27UL )
 101:Source/portable/GCC/ARM_CM3/port.c **** #define portNVIC_PEND_SYSTICK_CLEAR_BIT		( 1UL << 25UL )
 102:Source/portable/GCC/ARM_CM3/port.c **** 
 103:Source/portable/GCC/ARM_CM3/port.c **** #define portNVIC_PENDSV_PRI				( ( ( unsigned long ) configKERNEL_INTERRUPT_PRIORITY ) << 16UL )
 104:Source/portable/GCC/ARM_CM3/port.c **** #define portNVIC_SYSTICK_PRI			( ( ( unsigned long ) configKERNEL_INTERRUPT_PRIORITY ) << 24UL )
 105:Source/portable/GCC/ARM_CM3/port.c **** 
 106:Source/portable/GCC/ARM_CM3/port.c **** /* Constants required to set up the initial stack. */
 107:Source/portable/GCC/ARM_CM3/port.c **** #define portINITIAL_XPSR			( 0x01000000 )
 108:Source/portable/GCC/ARM_CM3/port.c **** 
 109:Source/portable/GCC/ARM_CM3/port.c **** /* The priority used by the kernel is assigned to a variable to make access
 110:Source/portable/GCC/ARM_CM3/port.c **** from inline assembler easier. */
 111:Source/portable/GCC/ARM_CM3/port.c **** const unsigned long ulKernelPriority = configKERNEL_INTERRUPT_PRIORITY;
 112:Source/portable/GCC/ARM_CM3/port.c **** 
 113:Source/portable/GCC/ARM_CM3/port.c **** /* Each task maintains its own interrupt status in the critical nesting
 114:Source/portable/GCC/ARM_CM3/port.c **** variable. */
 115:Source/portable/GCC/ARM_CM3/port.c **** static unsigned portBASE_TYPE uxCriticalNesting = 0xaaaaaaaa;
 116:Source/portable/GCC/ARM_CM3/port.c **** 
 117:Source/portable/GCC/ARM_CM3/port.c **** /*
 118:Source/portable/GCC/ARM_CM3/port.c ****  * Setup the timer to generate the tick interrupts.  The implementation in this
 119:Source/portable/GCC/ARM_CM3/port.c ****  * file is weak to allow application writers to change the timer used to 
 120:Source/portable/GCC/ARM_CM3/port.c ****  * generate the tick interrupt.
 121:Source/portable/GCC/ARM_CM3/port.c ****  */
 122:Source/portable/GCC/ARM_CM3/port.c **** void vPortSetupTimerInterrupt( void );
 123:Source/portable/GCC/ARM_CM3/port.c **** 
 124:Source/portable/GCC/ARM_CM3/port.c **** /*
 125:Source/portable/GCC/ARM_CM3/port.c ****  * Exception handlers.
 126:Source/portable/GCC/ARM_CM3/port.c ****  */
 127:Source/portable/GCC/ARM_CM3/port.c **** void xPortPendSVHandler( void ) __attribute__ (( naked ));
 128:Source/portable/GCC/ARM_CM3/port.c **** void xPortSysTickHandler( void );
 129:Source/portable/GCC/ARM_CM3/port.c **** void vPortSVCHandler( void ) __attribute__ (( naked ));
 130:Source/portable/GCC/ARM_CM3/port.c **** 
 131:Source/portable/GCC/ARM_CM3/port.c **** /*
 132:Source/portable/GCC/ARM_CM3/port.c ****  * Start first task is a separate function so it can be tested in isolation.
 133:Source/portable/GCC/ARM_CM3/port.c ****  */
 134:Source/portable/GCC/ARM_CM3/port.c **** static void prvPortStartFirstTask( void ) __attribute__ (( naked ));
 135:Source/portable/GCC/ARM_CM3/port.c **** 
 136:Source/portable/GCC/ARM_CM3/port.c **** /*-----------------------------------------------------------*/
 137:Source/portable/GCC/ARM_CM3/port.c **** 
 138:Source/portable/GCC/ARM_CM3/port.c **** /*
 139:Source/portable/GCC/ARM_CM3/port.c ****  * The number of SysTick increments that make up one tick period.
 140:Source/portable/GCC/ARM_CM3/port.c ****  */
 141:Source/portable/GCC/ARM_CM3/port.c **** #if configUSE_TICKLESS_IDLE == 1
 142:Source/portable/GCC/ARM_CM3/port.c **** 	static unsigned long ulTimerReloadValueForOneTick = 0;
 143:Source/portable/GCC/ARM_CM3/port.c **** #endif
 144:Source/portable/GCC/ARM_CM3/port.c **** 
 145:Source/portable/GCC/ARM_CM3/port.c **** /*
 146:Source/portable/GCC/ARM_CM3/port.c ****  * The maximum number of tick periods that can be suppressed is limited by the
 147:Source/portable/GCC/ARM_CM3/port.c ****  * 24 bit resolution of the SysTick timer.
 148:Source/portable/GCC/ARM_CM3/port.c ****  */
 149:Source/portable/GCC/ARM_CM3/port.c **** #if configUSE_TICKLESS_IDLE == 1
 150:Source/portable/GCC/ARM_CM3/port.c **** 	static unsigned long xMaximumPossibleSuppressedTicks = 0;
ARM GAS  C:\Users\Grzybek\AppData\Local\Temp\ccm6R5xc.s 			page 5


 151:Source/portable/GCC/ARM_CM3/port.c **** #endif /* configUSE_TICKLESS_IDLE */
 152:Source/portable/GCC/ARM_CM3/port.c **** 
 153:Source/portable/GCC/ARM_CM3/port.c **** /*
 154:Source/portable/GCC/ARM_CM3/port.c ****  * Compensate for the CPU cycles that pass while the SysTick is stopped (low
 155:Source/portable/GCC/ARM_CM3/port.c ****  * power functionality only.
 156:Source/portable/GCC/ARM_CM3/port.c ****  */
 157:Source/portable/GCC/ARM_CM3/port.c **** #if configUSE_TICKLESS_IDLE == 1
 158:Source/portable/GCC/ARM_CM3/port.c **** 	static unsigned long ulStoppedTimerCompensation = 0;
 159:Source/portable/GCC/ARM_CM3/port.c **** #endif /* configUSE_TICKLESS_IDLE */
 160:Source/portable/GCC/ARM_CM3/port.c **** 
 161:Source/portable/GCC/ARM_CM3/port.c **** /*-----------------------------------------------------------*/
 162:Source/portable/GCC/ARM_CM3/port.c **** 
 163:Source/portable/GCC/ARM_CM3/port.c **** /*
 164:Source/portable/GCC/ARM_CM3/port.c ****  * See header file for description.
 165:Source/portable/GCC/ARM_CM3/port.c ****  */
 166:Source/portable/GCC/ARM_CM3/port.c **** portSTACK_TYPE *pxPortInitialiseStack( portSTACK_TYPE *pxTopOfStack, pdTASK_CODE pxCode, void *pvPa
 167:Source/portable/GCC/ARM_CM3/port.c **** {
  79              		.loc 1 167 0
  80              		.cfi_startproc
  81              		@ args = 0, pretend = 0, frame = 16
  82              		@ frame_needed = 1, uses_anonymous_args = 0
  83              		@ link register save eliminated.
  84 0000 80B4     		push	{r7}	@
  85              	.LCFI0:
  86              		.cfi_def_cfa_offset 4
  87              		.cfi_offset 7, -4
  88 0002 85B0     		sub	sp, sp, #20	@,,
  89              	.LCFI1:
  90              		.cfi_def_cfa_offset 24
  91 0004 00AF     		add	r7, sp, #0	@,,
  92              	.LCFI2:
  93              		.cfi_def_cfa_register 7
  94 0006 F860     		str	r0, [r7, #12]	@ pxTopOfStack, pxTopOfStack
  95 0008 B960     		str	r1, [r7, #8]	@ pxCode, pxCode
  96 000a 7A60     		str	r2, [r7, #4]	@ pvParameters, pvParameters
 168:Source/portable/GCC/ARM_CM3/port.c **** 	/* Simulate the stack frame as it would be created by a context switch
 169:Source/portable/GCC/ARM_CM3/port.c **** 	interrupt. */
 170:Source/portable/GCC/ARM_CM3/port.c **** 	pxTopOfStack--; /* Offset added to account for the way the MCU uses the stack on entry/exit of int
  97              		.loc 1 170 0
  98 000c FB68     		ldr	r3, [r7, #12]	@ tmp139, pxTopOfStack
  99 000e A3F10403 		sub	r3, r3, #4	@ tmp138, tmp139,
 100 0012 FB60     		str	r3, [r7, #12]	@ tmp138, pxTopOfStack
 171:Source/portable/GCC/ARM_CM3/port.c **** 	*pxTopOfStack = portINITIAL_XPSR;	/* xPSR */
 101              		.loc 1 171 0
 102 0014 FB68     		ldr	r3, [r7, #12]	@ tmp140, pxTopOfStack
 103 0016 4FF08072 		mov	r2, #16777216	@ tmp141,
 104 001a 1A60     		str	r2, [r3, #0]	@ tmp141, *pxTopOfStack_2
 172:Source/portable/GCC/ARM_CM3/port.c **** 	pxTopOfStack--;
 105              		.loc 1 172 0
 106 001c FB68     		ldr	r3, [r7, #12]	@ tmp143, pxTopOfStack
 107 001e A3F10403 		sub	r3, r3, #4	@ tmp142, tmp143,
 108 0022 FB60     		str	r3, [r7, #12]	@ tmp142, pxTopOfStack
 173:Source/portable/GCC/ARM_CM3/port.c **** 	*pxTopOfStack = ( portSTACK_TYPE ) pxCode;	/* PC */
 109              		.loc 1 173 0
 110 0024 BA68     		ldr	r2, [r7, #8]	@ pxCode.5, pxCode
 111 0026 FB68     		ldr	r3, [r7, #12]	@ tmp144, pxTopOfStack
 112 0028 1A60     		str	r2, [r3, #0]	@ pxCode.5, *pxTopOfStack_3
ARM GAS  C:\Users\Grzybek\AppData\Local\Temp\ccm6R5xc.s 			page 6


 174:Source/portable/GCC/ARM_CM3/port.c **** 	pxTopOfStack--;
 113              		.loc 1 174 0
 114 002a FB68     		ldr	r3, [r7, #12]	@ tmp146, pxTopOfStack
 115 002c A3F10403 		sub	r3, r3, #4	@ tmp145, tmp146,
 116 0030 FB60     		str	r3, [r7, #12]	@ tmp145, pxTopOfStack
 175:Source/portable/GCC/ARM_CM3/port.c **** 	*pxTopOfStack = 0;	/* LR */
 117              		.loc 1 175 0
 118 0032 FB68     		ldr	r3, [r7, #12]	@ tmp147, pxTopOfStack
 119 0034 4FF00002 		mov	r2, #0	@ tmp148,
 120 0038 1A60     		str	r2, [r3, #0]	@ tmp148, *pxTopOfStack_6
 176:Source/portable/GCC/ARM_CM3/port.c **** 	pxTopOfStack -= 5;	/* R12, R3, R2 and R1. */
 121              		.loc 1 176 0
 122 003a FB68     		ldr	r3, [r7, #12]	@ tmp150, pxTopOfStack
 123 003c A3F11403 		sub	r3, r3, #20	@ tmp149, tmp150,
 124 0040 FB60     		str	r3, [r7, #12]	@ tmp149, pxTopOfStack
 177:Source/portable/GCC/ARM_CM3/port.c **** 	*pxTopOfStack = ( portSTACK_TYPE ) pvParameters;	/* R0 */
 125              		.loc 1 177 0
 126 0042 7A68     		ldr	r2, [r7, #4]	@ pvParameters.6, pvParameters
 127 0044 FB68     		ldr	r3, [r7, #12]	@ tmp151, pxTopOfStack
 128 0046 1A60     		str	r2, [r3, #0]	@ pvParameters.6, *pxTopOfStack_7
 178:Source/portable/GCC/ARM_CM3/port.c **** 	pxTopOfStack -= 8;	/* R11, R10, R9, R8, R7, R6, R5 and R4. */
 129              		.loc 1 178 0
 130 0048 FB68     		ldr	r3, [r7, #12]	@ tmp153, pxTopOfStack
 131 004a A3F12003 		sub	r3, r3, #32	@ tmp152, tmp153,
 132 004e FB60     		str	r3, [r7, #12]	@ tmp152, pxTopOfStack
 179:Source/portable/GCC/ARM_CM3/port.c **** 
 180:Source/portable/GCC/ARM_CM3/port.c **** 	return pxTopOfStack;
 133              		.loc 1 180 0
 134 0050 FB68     		ldr	r3, [r7, #12]	@ D.4324, pxTopOfStack
 181:Source/portable/GCC/ARM_CM3/port.c **** }
 135              		.loc 1 181 0
 136 0052 1846     		mov	r0, r3	@, <retval>
 137 0054 07F11407 		add	r7, r7, #20	@,,
 138 0058 BD46     		mov	sp, r7
 139 005a 80BC     		pop	{r7}
 140 005c 7047     		bx	lr
 141              		.cfi_endproc
 142              	.LFE0:
 143              		.size	pxPortInitialiseStack, .-pxPortInitialiseStack
 144 005e 00BF     		.section	.text.vPortSVCHandler,"ax",%progbits
 145              		.align	2
 146              		.global	vPortSVCHandler
 147              		.thumb
 148              		.thumb_func
 149              		.type	vPortSVCHandler, %function
 150              	vPortSVCHandler:
 151              	.LFB1:
 182:Source/portable/GCC/ARM_CM3/port.c **** /*-----------------------------------------------------------*/
 183:Source/portable/GCC/ARM_CM3/port.c **** 
 184:Source/portable/GCC/ARM_CM3/port.c **** void vPortSVCHandler( void )
 185:Source/portable/GCC/ARM_CM3/port.c **** {
 152              		.loc 1 185 0
 153              		.cfi_startproc
 154              		@ Naked Function: prologue and epilogue provided by programmer.
 155              		@ args = 0, pretend = 0, frame = 0
 156              		@ frame_needed = 1, uses_anonymous_args = 0
 186:Source/portable/GCC/ARM_CM3/port.c **** 	__asm volatile (
ARM GAS  C:\Users\Grzybek\AppData\Local\Temp\ccm6R5xc.s 			page 7


 157              		.loc 1 186 0
 158              	@ 186 "Source/portable/GCC/ARM_CM3/port.c" 1
 159 0000 064B     			ldr	r3, pxCurrentTCBConst2		
 160 0002 1968     		ldr r1, [r3]					
 161 0004 0868     		ldr r0, [r1]					
 162 0006 B0E8F00F 		ldmia r0!, {r4-r11}				
 163 000a 80F30988 		msr psp, r0						
 164 000e 4FF00000 		mov r0, #0 						
 165 0012 80F31188 		msr	basepri, r0					
 166 0016 4EF00D0E 		orr r14, #0xd					
 167 001a 7047     		bx r14							
 168              										
 169              		.align 2						
 170 001c 00000000 	pxCurrentTCBConst2: .word pxCurrentTCB				
 171              	
 172              	@ 0 "" 2
 187:Source/portable/GCC/ARM_CM3/port.c **** 					"	ldr	r3, pxCurrentTCBConst2		\n" /* Restore the context. */
 188:Source/portable/GCC/ARM_CM3/port.c **** 					"	ldr r1, [r3]					\n" /* Use pxCurrentTCBConst to get the pxCurrentTCB address. */
 189:Source/portable/GCC/ARM_CM3/port.c **** 					"	ldr r0, [r1]					\n" /* The first item in pxCurrentTCB is the task top of stack. */
 190:Source/portable/GCC/ARM_CM3/port.c **** 					"	ldmia r0!, {r4-r11}				\n" /* Pop the registers that are not automatically saved on exceptio
 191:Source/portable/GCC/ARM_CM3/port.c **** 					"	msr psp, r0						\n" /* Restore the task stack pointer. */
 192:Source/portable/GCC/ARM_CM3/port.c **** 					"	mov r0, #0 						\n"
 193:Source/portable/GCC/ARM_CM3/port.c **** 					"	msr	basepri, r0					\n"
 194:Source/portable/GCC/ARM_CM3/port.c **** 					"	orr r14, #0xd					\n"
 195:Source/portable/GCC/ARM_CM3/port.c **** 					"	bx r14							\n"
 196:Source/portable/GCC/ARM_CM3/port.c **** 					"									\n"
 197:Source/portable/GCC/ARM_CM3/port.c **** 					"	.align 2						\n"
 198:Source/portable/GCC/ARM_CM3/port.c **** 					"pxCurrentTCBConst2: .word pxCurrentTCB				\n"
 199:Source/portable/GCC/ARM_CM3/port.c **** 				);
 200:Source/portable/GCC/ARM_CM3/port.c **** }
 173              		.loc 1 200 0
 174              		.thumb
 175              		.cfi_endproc
 176              	.LFE1:
 177              		.size	vPortSVCHandler, .-vPortSVCHandler
 178              		.section	.text.prvPortStartFirstTask,"ax",%progbits
 179              		.align	2
 180              		.thumb
 181              		.thumb_func
 182              		.type	prvPortStartFirstTask, %function
 183              	prvPortStartFirstTask:
 184              	.LFB2:
 201:Source/portable/GCC/ARM_CM3/port.c **** /*-----------------------------------------------------------*/
 202:Source/portable/GCC/ARM_CM3/port.c **** 
 203:Source/portable/GCC/ARM_CM3/port.c **** static void prvPortStartFirstTask( void )
 204:Source/portable/GCC/ARM_CM3/port.c **** {
 185              		.loc 1 204 0
 186              		.cfi_startproc
 187              		@ Naked Function: prologue and epilogue provided by programmer.
 188              		@ args = 0, pretend = 0, frame = 0
 189              		@ frame_needed = 1, uses_anonymous_args = 0
 205:Source/portable/GCC/ARM_CM3/port.c **** 	__asm volatile(
 190              		.loc 1 205 0
 191              	@ 205 "Source/portable/GCC/ARM_CM3/port.c" 1
 192 0000 0348     		 ldr r0, =0xE000ED08 	
 193 0002 0068     	 ldr r0, [r0] 			
 194 0004 0068     	 ldr r0, [r0] 			
ARM GAS  C:\Users\Grzybek\AppData\Local\Temp\ccm6R5xc.s 			page 8


 195 0006 80F30888 	 msr msp, r0			
 196 000a 62B6     	 cpsie i				
 197 000c 00DF     	 svc 0					
 198 000e 00BF     	 nop					
 199              	
 200              	@ 0 "" 2
 206:Source/portable/GCC/ARM_CM3/port.c **** 					" ldr r0, =0xE000ED08 	\n" /* Use the NVIC offset register to locate the stack. */
 207:Source/portable/GCC/ARM_CM3/port.c **** 					" ldr r0, [r0] 			\n"
 208:Source/portable/GCC/ARM_CM3/port.c **** 					" ldr r0, [r0] 			\n"
 209:Source/portable/GCC/ARM_CM3/port.c **** 					" msr msp, r0			\n" /* Set the msp back to the start of the stack. */
 210:Source/portable/GCC/ARM_CM3/port.c **** 					" cpsie i				\n" /* Globally enable interrupts. */
 211:Source/portable/GCC/ARM_CM3/port.c **** 					" svc 0					\n" /* System call to start first task. */
 212:Source/portable/GCC/ARM_CM3/port.c **** 					" nop					\n"
 213:Source/portable/GCC/ARM_CM3/port.c **** 				);
 214:Source/portable/GCC/ARM_CM3/port.c **** }
 201              		.loc 1 214 0
 202              		.thumb
 203              		.cfi_endproc
 204              	.LFE2:
 205              		.size	prvPortStartFirstTask, .-prvPortStartFirstTask
 206              		.section	.text.xPortStartScheduler,"ax",%progbits
 207              		.align	2
 208              		.global	xPortStartScheduler
 209              		.thumb
 210              		.thumb_func
 211              		.type	xPortStartScheduler, %function
 212              	xPortStartScheduler:
 213              	.LFB3:
 215:Source/portable/GCC/ARM_CM3/port.c **** /*-----------------------------------------------------------*/
 216:Source/portable/GCC/ARM_CM3/port.c **** 
 217:Source/portable/GCC/ARM_CM3/port.c **** /*
 218:Source/portable/GCC/ARM_CM3/port.c ****  * See header file for description.
 219:Source/portable/GCC/ARM_CM3/port.c ****  */
 220:Source/portable/GCC/ARM_CM3/port.c **** portBASE_TYPE xPortStartScheduler( void )
 221:Source/portable/GCC/ARM_CM3/port.c **** {
 214              		.loc 1 221 0
 215              		.cfi_startproc
 216              		@ args = 0, pretend = 0, frame = 0
 217              		@ frame_needed = 1, uses_anonymous_args = 0
 218 0000 80B5     		push	{r7, lr}	@
 219              	.LCFI3:
 220              		.cfi_def_cfa_offset 8
 221              		.cfi_offset 7, -8
 222              		.cfi_offset 14, -4
 223 0002 00AF     		add	r7, sp, #0	@,,
 224              	.LCFI4:
 225              		.cfi_def_cfa_register 7
 222:Source/portable/GCC/ARM_CM3/port.c **** 	/* configMAX_SYSCALL_INTERRUPT_PRIORITY must not be set to 0.
 223:Source/portable/GCC/ARM_CM3/port.c **** 	See http://www.FreeRTOS.org/RTOS-Cortex-M3-M4.html */
 224:Source/portable/GCC/ARM_CM3/port.c **** 	configASSERT( configMAX_SYSCALL_INTERRUPT_PRIORITY );
 225:Source/portable/GCC/ARM_CM3/port.c **** 
 226:Source/portable/GCC/ARM_CM3/port.c **** 	/* Make PendSV, CallSV and SysTick the same priroity as the kernel. */
 227:Source/portable/GCC/ARM_CM3/port.c **** 	portNVIC_SYSPRI2_REG |= portNVIC_PENDSV_PRI;
 226              		.loc 1 227 0
 227 0004 0B4B     		ldr	r3, .L7	@ D.4312,
 228 0006 0B4A     		ldr	r2, .L7	@ D.4313,
 229 0008 1268     		ldr	r2, [r2, #0]	@ D.4314, *D.4313_2
ARM GAS  C:\Users\Grzybek\AppData\Local\Temp\ccm6R5xc.s 			page 9


 230 000a 42F47F02 		orr	r2, r2, #16711680	@ D.4315, D.4314,
 231 000e 1A60     		str	r2, [r3, #0]	@ D.4315, *D.4312_1
 228:Source/portable/GCC/ARM_CM3/port.c **** 	portNVIC_SYSPRI2_REG |= portNVIC_SYSTICK_PRI;
 232              		.loc 1 228 0
 233 0010 084B     		ldr	r3, .L7	@ D.4316,
 234 0012 084A     		ldr	r2, .L7	@ D.4317,
 235 0014 1268     		ldr	r2, [r2, #0]	@ D.4318, *D.4317_6
 236 0016 42F07F42 		orr	r2, r2, #-16777216	@ D.4319, D.4318,
 237 001a 1A60     		str	r2, [r3, #0]	@ D.4319, *D.4316_5
 229:Source/portable/GCC/ARM_CM3/port.c **** 
 230:Source/portable/GCC/ARM_CM3/port.c **** 	/* Start the timer that generates the tick ISR.  Interrupts are disabled
 231:Source/portable/GCC/ARM_CM3/port.c **** 	here already. */
 232:Source/portable/GCC/ARM_CM3/port.c **** 	vPortSetupTimerInterrupt();
 238              		.loc 1 232 0
 239 001c FFF7FEFF 		bl	vPortSetupTimerInterrupt	@
 233:Source/portable/GCC/ARM_CM3/port.c **** 
 234:Source/portable/GCC/ARM_CM3/port.c **** 	/* Initialise the critical nesting count ready for the first task. */
 235:Source/portable/GCC/ARM_CM3/port.c **** 	uxCriticalNesting = 0;
 240              		.loc 1 235 0
 241 0020 054B     		ldr	r3, .L7+4	@ tmp144,
 242 0022 4FF00002 		mov	r2, #0	@ tmp145,
 243 0026 1A60     		str	r2, [r3, #0]	@ tmp145, uxCriticalNesting
 236:Source/portable/GCC/ARM_CM3/port.c **** 
 237:Source/portable/GCC/ARM_CM3/port.c **** 	/* Start the first task. */
 238:Source/portable/GCC/ARM_CM3/port.c **** 	prvPortStartFirstTask();
 244              		.loc 1 238 0
 245 0028 FFF7FEFF 		bl	prvPortStartFirstTask	@
 239:Source/portable/GCC/ARM_CM3/port.c **** 
 240:Source/portable/GCC/ARM_CM3/port.c **** 	/* Should not get here! */
 241:Source/portable/GCC/ARM_CM3/port.c **** 	return 0;
 246              		.loc 1 241 0
 247 002c 4FF00003 		mov	r3, #0	@ D.4320,
 242:Source/portable/GCC/ARM_CM3/port.c **** }
 248              		.loc 1 242 0
 249 0030 1846     		mov	r0, r3	@, <retval>
 250 0032 80BD     		pop	{r7, pc}	@
 251              	.L8:
 252              		.align	2
 253              	.L7:
 254 0034 20ED00E0 		.word	-536810208
 255 0038 00000000 		.word	uxCriticalNesting
 256              		.cfi_endproc
 257              	.LFE3:
 258              		.size	xPortStartScheduler, .-xPortStartScheduler
 259              		.section	.text.vPortEndScheduler,"ax",%progbits
 260              		.align	2
 261              		.global	vPortEndScheduler
 262              		.thumb
 263              		.thumb_func
 264              		.type	vPortEndScheduler, %function
 265              	vPortEndScheduler:
 266              	.LFB4:
 243:Source/portable/GCC/ARM_CM3/port.c **** /*-----------------------------------------------------------*/
 244:Source/portable/GCC/ARM_CM3/port.c **** 
 245:Source/portable/GCC/ARM_CM3/port.c **** void vPortEndScheduler( void )
 246:Source/portable/GCC/ARM_CM3/port.c **** {
 267              		.loc 1 246 0
ARM GAS  C:\Users\Grzybek\AppData\Local\Temp\ccm6R5xc.s 			page 10


 268              		.cfi_startproc
 269              		@ args = 0, pretend = 0, frame = 0
 270              		@ frame_needed = 1, uses_anonymous_args = 0
 271              		@ link register save eliminated.
 272 0000 80B4     		push	{r7}	@
 273              	.LCFI5:
 274              		.cfi_def_cfa_offset 4
 275              		.cfi_offset 7, -4
 276 0002 00AF     		add	r7, sp, #0	@,,
 277              	.LCFI6:
 278              		.cfi_def_cfa_register 7
 247:Source/portable/GCC/ARM_CM3/port.c **** 	/* It is unlikely that the CM3 port will require this function as there
 248:Source/portable/GCC/ARM_CM3/port.c **** 	is nothing to return to.  */
 249:Source/portable/GCC/ARM_CM3/port.c **** }
 279              		.loc 1 249 0
 280 0004 BD46     		mov	sp, r7
 281 0006 80BC     		pop	{r7}
 282 0008 7047     		bx	lr
 283              		.cfi_endproc
 284              	.LFE4:
 285              		.size	vPortEndScheduler, .-vPortEndScheduler
 286 000a 00BF     		.section	.text.vPortYieldFromISR,"ax",%progbits
 287              		.align	2
 288              		.global	vPortYieldFromISR
 289              		.thumb
 290              		.thumb_func
 291              		.type	vPortYieldFromISR, %function
 292              	vPortYieldFromISR:
 293              	.LFB5:
 250:Source/portable/GCC/ARM_CM3/port.c **** /*-----------------------------------------------------------*/
 251:Source/portable/GCC/ARM_CM3/port.c **** 
 252:Source/portable/GCC/ARM_CM3/port.c **** void vPortYieldFromISR( void )
 253:Source/portable/GCC/ARM_CM3/port.c **** {
 294              		.loc 1 253 0
 295              		.cfi_startproc
 296              		@ args = 0, pretend = 0, frame = 0
 297              		@ frame_needed = 1, uses_anonymous_args = 0
 298              		@ link register save eliminated.
 299 0000 80B4     		push	{r7}	@
 300              	.LCFI7:
 301              		.cfi_def_cfa_offset 4
 302              		.cfi_offset 7, -4
 303 0002 00AF     		add	r7, sp, #0	@,,
 304              	.LCFI8:
 305              		.cfi_def_cfa_register 7
 254:Source/portable/GCC/ARM_CM3/port.c **** 	/* Set a PendSV to request a context switch. */
 255:Source/portable/GCC/ARM_CM3/port.c **** 	portNVIC_INT_CTRL_REG = portNVIC_PENDSVSET_BIT;
 306              		.loc 1 255 0
 307 0004 034B     		ldr	r3, .L11	@ D.4311,
 308 0006 4FF08052 		mov	r2, #268435456	@ tmp135,
 309 000a 1A60     		str	r2, [r3, #0]	@ tmp135, *D.4311_1
 256:Source/portable/GCC/ARM_CM3/port.c **** }
 310              		.loc 1 256 0
 311 000c BD46     		mov	sp, r7
 312 000e 80BC     		pop	{r7}
 313 0010 7047     		bx	lr
 314              	.L12:
ARM GAS  C:\Users\Grzybek\AppData\Local\Temp\ccm6R5xc.s 			page 11


 315 0012 00BF     		.align	2
 316              	.L11:
 317 0014 04ED00E0 		.word	-536810236
 318              		.cfi_endproc
 319              	.LFE5:
 320              		.size	vPortYieldFromISR, .-vPortYieldFromISR
 321              		.section	.text.vPortEnterCritical,"ax",%progbits
 322              		.align	2
 323              		.global	vPortEnterCritical
 324              		.thumb
 325              		.thumb_func
 326              		.type	vPortEnterCritical, %function
 327              	vPortEnterCritical:
 328              	.LFB6:
 257:Source/portable/GCC/ARM_CM3/port.c **** /*-----------------------------------------------------------*/
 258:Source/portable/GCC/ARM_CM3/port.c **** 
 259:Source/portable/GCC/ARM_CM3/port.c **** void vPortEnterCritical( void )
 260:Source/portable/GCC/ARM_CM3/port.c **** {
 329              		.loc 1 260 0
 330              		.cfi_startproc
 331              		@ args = 0, pretend = 0, frame = 0
 332              		@ frame_needed = 1, uses_anonymous_args = 0
 333 0000 80B5     		push	{r7, lr}	@
 334              	.LCFI9:
 335              		.cfi_def_cfa_offset 8
 336              		.cfi_offset 7, -8
 337              		.cfi_offset 14, -4
 338 0002 00AF     		add	r7, sp, #0	@,,
 339              	.LCFI10:
 340              		.cfi_def_cfa_register 7
 261:Source/portable/GCC/ARM_CM3/port.c **** 	portDISABLE_INTERRUPTS();
 341              		.loc 1 261 0
 342 0004 FFF7FEFF 		bl	ulPortSetInterruptMask	@
 262:Source/portable/GCC/ARM_CM3/port.c **** 	uxCriticalNesting++;
 343              		.loc 1 262 0
 344 0008 034B     		ldr	r3, .L14	@ tmp136,
 345 000a 1B68     		ldr	r3, [r3, #0]	@ uxCriticalNesting.3, uxCriticalNesting
 346 000c 03F10102 		add	r2, r3, #1	@ uxCriticalNesting.4, uxCriticalNesting.3,
 347 0010 014B     		ldr	r3, .L14	@ tmp137,
 348 0012 1A60     		str	r2, [r3, #0]	@ uxCriticalNesting.4, uxCriticalNesting
 263:Source/portable/GCC/ARM_CM3/port.c **** }
 349              		.loc 1 263 0
 350 0014 80BD     		pop	{r7, pc}	@
 351              	.L15:
 352 0016 00BF     		.align	2
 353              	.L14:
 354 0018 00000000 		.word	uxCriticalNesting
 355              		.cfi_endproc
 356              	.LFE6:
 357              		.size	vPortEnterCritical, .-vPortEnterCritical
 358              		.section	.text.vPortExitCritical,"ax",%progbits
 359              		.align	2
 360              		.global	vPortExitCritical
 361              		.thumb
 362              		.thumb_func
 363              		.type	vPortExitCritical, %function
 364              	vPortExitCritical:
ARM GAS  C:\Users\Grzybek\AppData\Local\Temp\ccm6R5xc.s 			page 12


 365              	.LFB7:
 264:Source/portable/GCC/ARM_CM3/port.c **** /*-----------------------------------------------------------*/
 265:Source/portable/GCC/ARM_CM3/port.c **** 
 266:Source/portable/GCC/ARM_CM3/port.c **** void vPortExitCritical( void )
 267:Source/portable/GCC/ARM_CM3/port.c **** {
 366              		.loc 1 267 0
 367              		.cfi_startproc
 368              		@ args = 0, pretend = 0, frame = 0
 369              		@ frame_needed = 1, uses_anonymous_args = 0
 370 0000 80B5     		push	{r7, lr}	@
 371              	.LCFI11:
 372              		.cfi_def_cfa_offset 8
 373              		.cfi_offset 7, -8
 374              		.cfi_offset 14, -4
 375 0002 00AF     		add	r7, sp, #0	@,,
 376              	.LCFI12:
 377              		.cfi_def_cfa_register 7
 268:Source/portable/GCC/ARM_CM3/port.c **** 	uxCriticalNesting--;
 378              		.loc 1 268 0
 379 0004 074B     		ldr	r3, .L18	@ tmp137,
 380 0006 1B68     		ldr	r3, [r3, #0]	@ uxCriticalNesting.0, uxCriticalNesting
 381 0008 03F1FF32 		add	r2, r3, #-1	@ uxCriticalNesting.1, uxCriticalNesting.0,
 382 000c 054B     		ldr	r3, .L18	@ tmp138,
 383 000e 1A60     		str	r2, [r3, #0]	@ uxCriticalNesting.1, uxCriticalNesting
 269:Source/portable/GCC/ARM_CM3/port.c **** 	if( uxCriticalNesting == 0 )
 384              		.loc 1 269 0
 385 0010 044B     		ldr	r3, .L18	@ tmp139,
 386 0012 1B68     		ldr	r3, [r3, #0]	@ uxCriticalNesting.2, uxCriticalNesting
 387 0014 002B     		cmp	r3, #0	@ uxCriticalNesting.2,
 388 0016 03D1     		bne	.L16	@,
 270:Source/portable/GCC/ARM_CM3/port.c **** 	{
 271:Source/portable/GCC/ARM_CM3/port.c **** 		portENABLE_INTERRUPTS();
 389              		.loc 1 271 0
 390 0018 4FF00000 		mov	r0, #0	@,
 391 001c FFF7FEFF 		bl	vPortClearInterruptMask	@
 392              	.L16:
 272:Source/portable/GCC/ARM_CM3/port.c **** 	}
 273:Source/portable/GCC/ARM_CM3/port.c **** }
 393              		.loc 1 273 0
 394 0020 80BD     		pop	{r7, pc}	@
 395              	.L19:
 396 0022 00BF     		.align	2
 397              	.L18:
 398 0024 00000000 		.word	uxCriticalNesting
 399              		.cfi_endproc
 400              	.LFE7:
 401              		.size	vPortExitCritical, .-vPortExitCritical
 402              		.section	.text.ulPortSetInterruptMask,"ax",%progbits
 403              		.align	2
 404              		.global	ulPortSetInterruptMask
 405              		.thumb
 406              		.thumb_func
 407              		.type	ulPortSetInterruptMask, %function
 408              	ulPortSetInterruptMask:
 409              	.LFB8:
 274:Source/portable/GCC/ARM_CM3/port.c **** /*-----------------------------------------------------------*/
 275:Source/portable/GCC/ARM_CM3/port.c **** 
ARM GAS  C:\Users\Grzybek\AppData\Local\Temp\ccm6R5xc.s 			page 13


 276:Source/portable/GCC/ARM_CM3/port.c **** __attribute__(( naked )) unsigned long ulPortSetInterruptMask( void )
 277:Source/portable/GCC/ARM_CM3/port.c **** {
 410              		.loc 1 277 0
 411              		.cfi_startproc
 412              		@ Naked Function: prologue and epilogue provided by programmer.
 413              		@ args = 0, pretend = 0, frame = 0
 414              		@ frame_needed = 1, uses_anonymous_args = 0
 278:Source/portable/GCC/ARM_CM3/port.c **** 	__asm volatile														\
 415              		.loc 1 278 0
 416              	@ 278 "Source/portable/GCC/ARM_CM3/port.c" 1
 417 0000 EFF31180 			mrs r0, basepri											
 418 0004 4FF0BF01 		mov r1, #191													@
 419 0008 81F31188 		msr basepri, r1											
 420 000c 7047     		bx lr													
 421              	
 422              	@ 0 "" 2
 279:Source/portable/GCC/ARM_CM3/port.c **** 	(																	\
 280:Source/portable/GCC/ARM_CM3/port.c **** 		"	mrs r0, basepri											\n" \
 281:Source/portable/GCC/ARM_CM3/port.c **** 		"	mov r1, %0												\n"	\
 282:Source/portable/GCC/ARM_CM3/port.c **** 		"	msr basepri, r1											\n" \
 283:Source/portable/GCC/ARM_CM3/port.c **** 		"	bx lr													\n" \
 284:Source/portable/GCC/ARM_CM3/port.c **** 		:: "i" ( configMAX_SYSCALL_INTERRUPT_PRIORITY ) : "r0", "r1"	\
 285:Source/portable/GCC/ARM_CM3/port.c **** 	);
 286:Source/portable/GCC/ARM_CM3/port.c **** 
 287:Source/portable/GCC/ARM_CM3/port.c **** 	/* This return will not be reached but is necessary to prevent compiler
 288:Source/portable/GCC/ARM_CM3/port.c **** 	warnings. */
 289:Source/portable/GCC/ARM_CM3/port.c **** 	return 0;
 423              		.loc 1 289 0
 424              		.thumb
 425 000e 4FF00003 		mov	r3, #0	@ D.4302,
 290:Source/portable/GCC/ARM_CM3/port.c **** }
 426              		.loc 1 290 0
 427 0012 1846     		mov	r0, r3	@, <retval>
 428              		.cfi_endproc
 429              	.LFE8:
 430              		.size	ulPortSetInterruptMask, .-ulPortSetInterruptMask
 431              		.section	.text.vPortClearInterruptMask,"ax",%progbits
 432              		.align	2
 433              		.global	vPortClearInterruptMask
 434              		.thumb
 435              		.thumb_func
 436              		.type	vPortClearInterruptMask, %function
 437              	vPortClearInterruptMask:
 438              	.LFB9:
 291:Source/portable/GCC/ARM_CM3/port.c **** /*-----------------------------------------------------------*/
 292:Source/portable/GCC/ARM_CM3/port.c **** 
 293:Source/portable/GCC/ARM_CM3/port.c **** __attribute__(( naked )) void vPortClearInterruptMask( unsigned long ulNewMaskValue )
 294:Source/portable/GCC/ARM_CM3/port.c **** {
 439              		.loc 1 294 0
 440              		.cfi_startproc
 441              		@ Naked Function: prologue and epilogue provided by programmer.
 442              		@ args = 0, pretend = 0, frame = 0
 443              		@ frame_needed = 1, uses_anonymous_args = 0
 295:Source/portable/GCC/ARM_CM3/port.c **** 	__asm volatile													\
 444              		.loc 1 295 0
 445              	@ 295 "Source/portable/GCC/ARM_CM3/port.c" 1
 446 0000 80F31188 			msr basepri, r0										
ARM GAS  C:\Users\Grzybek\AppData\Local\Temp\ccm6R5xc.s 			page 14


 447 0004 7047     		bx lr												
 448              	
 449              	@ 0 "" 2
 296:Source/portable/GCC/ARM_CM3/port.c **** 	(																\
 297:Source/portable/GCC/ARM_CM3/port.c **** 		"	msr basepri, r0										\n"	\
 298:Source/portable/GCC/ARM_CM3/port.c **** 		"	bx lr												\n" \
 299:Source/portable/GCC/ARM_CM3/port.c **** 		:::"r0"														\
 300:Source/portable/GCC/ARM_CM3/port.c **** 	);
 301:Source/portable/GCC/ARM_CM3/port.c **** 	
 302:Source/portable/GCC/ARM_CM3/port.c **** 	/* Just to avoid compiler warnings. */
 303:Source/portable/GCC/ARM_CM3/port.c **** 	( void ) ulNewMaskValue;
 304:Source/portable/GCC/ARM_CM3/port.c **** }
 450              		.loc 1 304 0
 451              		.thumb
 452              		.cfi_endproc
 453              	.LFE9:
 454              		.size	vPortClearInterruptMask, .-vPortClearInterruptMask
 455 0006 00BF     		.section	.text.xPortPendSVHandler,"ax",%progbits
 456              		.align	2
 457              		.global	xPortPendSVHandler
 458              		.thumb
 459              		.thumb_func
 460              		.type	xPortPendSVHandler, %function
 461              	xPortPendSVHandler:
 462              	.LFB10:
 305:Source/portable/GCC/ARM_CM3/port.c **** /*-----------------------------------------------------------*/
 306:Source/portable/GCC/ARM_CM3/port.c **** 
 307:Source/portable/GCC/ARM_CM3/port.c **** void xPortPendSVHandler( void )
 308:Source/portable/GCC/ARM_CM3/port.c **** {
 463              		.loc 1 308 0
 464              		.cfi_startproc
 465              		@ Naked Function: prologue and epilogue provided by programmer.
 466              		@ args = 0, pretend = 0, frame = 0
 467              		@ frame_needed = 1, uses_anonymous_args = 0
 309:Source/portable/GCC/ARM_CM3/port.c **** 	/* This is a naked function. */
 310:Source/portable/GCC/ARM_CM3/port.c **** 
 311:Source/portable/GCC/ARM_CM3/port.c **** 	__asm volatile
 468              		.loc 1 311 0
 469              	@ 311 "Source/portable/GCC/ARM_CM3/port.c" 1
 470 0000 EFF30980 			mrs r0, psp							
 471              											
 472 0004 0C4B     		ldr	r3, pxCurrentTCBConst			
 473 0006 1A68     		ldr	r2, [r3]						
 474              											
 475 0008 20E9F00F 		stmdb r0!, {r4-r11}					
 476 000c 1060     		str r0, [r2]						
 477              											
 478 000e 2DE90840 		stmdb sp!, {r3, r14}				
 479 0012 4FF0BF00 		mov r0, #191								@
 480 0016 80F31188 		msr basepri, r0						
 481 001a FFF7FEFF 		bl vTaskSwitchContext				
 482 001e 4FF00000 		mov r0, #0							
 483 0022 80F31188 		msr basepri, r0						
 484 0026 BDE80840 		ldmia sp!, {r3, r14}				
 485              											
 486 002a 1968     		ldr r1, [r3]						
 487 002c 0868     		ldr r0, [r1]						
ARM GAS  C:\Users\Grzybek\AppData\Local\Temp\ccm6R5xc.s 			page 15


 488 002e B0E8F00F 		ldmia r0!, {r4-r11}					
 489 0032 80F30988 		msr psp, r0							
 490 0036 7047     		bx r14								
 491              											
 492              		.align 2							
 493 0038 00000000 	pxCurrentTCBConst: .word pxCurrentTCB	
 494              	
 495              	@ 0 "" 2
 312:Source/portable/GCC/ARM_CM3/port.c **** 	(
 313:Source/portable/GCC/ARM_CM3/port.c **** 	"	mrs r0, psp							\n"
 314:Source/portable/GCC/ARM_CM3/port.c **** 	"										\n"
 315:Source/portable/GCC/ARM_CM3/port.c **** 	"	ldr	r3, pxCurrentTCBConst			\n" /* Get the location of the current TCB. */
 316:Source/portable/GCC/ARM_CM3/port.c **** 	"	ldr	r2, [r3]						\n"
 317:Source/portable/GCC/ARM_CM3/port.c **** 	"										\n"
 318:Source/portable/GCC/ARM_CM3/port.c **** 	"	stmdb r0!, {r4-r11}					\n" /* Save the remaining registers. */
 319:Source/portable/GCC/ARM_CM3/port.c **** 	"	str r0, [r2]						\n" /* Save the new top of stack into the first member of the TCB. */
 320:Source/portable/GCC/ARM_CM3/port.c **** 	"										\n"
 321:Source/portable/GCC/ARM_CM3/port.c **** 	"	stmdb sp!, {r3, r14}				\n"
 322:Source/portable/GCC/ARM_CM3/port.c **** 	"	mov r0, %0							\n"
 323:Source/portable/GCC/ARM_CM3/port.c **** 	"	msr basepri, r0						\n"
 324:Source/portable/GCC/ARM_CM3/port.c **** 	"	bl vTaskSwitchContext				\n"
 325:Source/portable/GCC/ARM_CM3/port.c **** 	"	mov r0, #0							\n"
 326:Source/portable/GCC/ARM_CM3/port.c **** 	"	msr basepri, r0						\n"
 327:Source/portable/GCC/ARM_CM3/port.c **** 	"	ldmia sp!, {r3, r14}				\n"
 328:Source/portable/GCC/ARM_CM3/port.c **** 	"										\n"	/* Restore the context, including the critical nesting count. */
 329:Source/portable/GCC/ARM_CM3/port.c **** 	"	ldr r1, [r3]						\n"
 330:Source/portable/GCC/ARM_CM3/port.c **** 	"	ldr r0, [r1]						\n" /* The first item in pxCurrentTCB is the task top of stack. */
 331:Source/portable/GCC/ARM_CM3/port.c **** 	"	ldmia r0!, {r4-r11}					\n" /* Pop the registers. */
 332:Source/portable/GCC/ARM_CM3/port.c **** 	"	msr psp, r0							\n"
 333:Source/portable/GCC/ARM_CM3/port.c **** 	"	bx r14								\n"
 334:Source/portable/GCC/ARM_CM3/port.c **** 	"										\n"
 335:Source/portable/GCC/ARM_CM3/port.c **** 	"	.align 2							\n"
 336:Source/portable/GCC/ARM_CM3/port.c **** 	"pxCurrentTCBConst: .word pxCurrentTCB	\n"
 337:Source/portable/GCC/ARM_CM3/port.c **** 	::"i"(configMAX_SYSCALL_INTERRUPT_PRIORITY)
 338:Source/portable/GCC/ARM_CM3/port.c **** 	);
 339:Source/portable/GCC/ARM_CM3/port.c **** }
 496              		.loc 1 339 0
 497              		.thumb
 498              		.cfi_endproc
 499              	.LFE10:
 500              		.size	xPortPendSVHandler, .-xPortPendSVHandler
 501              		.section	.text.xPortSysTickHandler,"ax",%progbits
 502              		.align	2
 503              		.global	xPortSysTickHandler
 504              		.thumb
 505              		.thumb_func
 506              		.type	xPortSysTickHandler, %function
 507              	xPortSysTickHandler:
 508              	.LFB11:
 340:Source/portable/GCC/ARM_CM3/port.c **** /*-----------------------------------------------------------*/
 341:Source/portable/GCC/ARM_CM3/port.c **** 
 342:Source/portable/GCC/ARM_CM3/port.c **** void xPortSysTickHandler( void )
 343:Source/portable/GCC/ARM_CM3/port.c **** {
 509              		.loc 1 343 0
 510              		.cfi_startproc
 511              		@ args = 0, pretend = 0, frame = 0
 512              		@ frame_needed = 1, uses_anonymous_args = 0
ARM GAS  C:\Users\Grzybek\AppData\Local\Temp\ccm6R5xc.s 			page 16


 513 0000 80B5     		push	{r7, lr}	@
 514              	.LCFI13:
 515              		.cfi_def_cfa_offset 8
 516              		.cfi_offset 7, -8
 517              		.cfi_offset 14, -4
 518 0002 00AF     		add	r7, sp, #0	@,,
 519              	.LCFI14:
 520              		.cfi_def_cfa_register 7
 344:Source/portable/GCC/ARM_CM3/port.c **** 	/* If using preemption, also force a context switch. */
 345:Source/portable/GCC/ARM_CM3/port.c **** 	#if configUSE_PREEMPTION == 1
 346:Source/portable/GCC/ARM_CM3/port.c **** 		portNVIC_INT_CTRL_REG = portNVIC_PENDSVSET_BIT;
 521              		.loc 1 346 0
 522 0004 064B     		ldr	r3, .L25	@ D.4301,
 523 0006 4FF08052 		mov	r2, #268435456	@ tmp135,
 524 000a 1A60     		str	r2, [r3, #0]	@ tmp135, *D.4301_1
 347:Source/portable/GCC/ARM_CM3/port.c **** 	#endif
 348:Source/portable/GCC/ARM_CM3/port.c **** 
 349:Source/portable/GCC/ARM_CM3/port.c **** 	/* Only reset the systick load register if configUSE_TICKLESS_IDLE is set to
 350:Source/portable/GCC/ARM_CM3/port.c **** 	1.  If it is set to 0 tickless idle is not being used.  If it is set to a 
 351:Source/portable/GCC/ARM_CM3/port.c **** 	value other than 0 or 1 then a timer other than the SysTick is being used
 352:Source/portable/GCC/ARM_CM3/port.c **** 	to generate the tick interrupt. */
 353:Source/portable/GCC/ARM_CM3/port.c **** 	#if configUSE_TICKLESS_IDLE == 1
 354:Source/portable/GCC/ARM_CM3/port.c **** 		portNVIC_SYSTICK_LOAD_REG = ulTimerReloadValueForOneTick;
 355:Source/portable/GCC/ARM_CM3/port.c **** 	#endif
 356:Source/portable/GCC/ARM_CM3/port.c **** 
 357:Source/portable/GCC/ARM_CM3/port.c **** 	( void ) portSET_INTERRUPT_MASK_FROM_ISR();
 525              		.loc 1 357 0
 526 000c FFF7FEFF 		bl	ulPortSetInterruptMask	@
 358:Source/portable/GCC/ARM_CM3/port.c **** 	{
 359:Source/portable/GCC/ARM_CM3/port.c **** 		vTaskIncrementTick();
 527              		.loc 1 359 0
 528 0010 FFF7FEFF 		bl	vTaskIncrementTick	@
 360:Source/portable/GCC/ARM_CM3/port.c **** 	}
 361:Source/portable/GCC/ARM_CM3/port.c **** 	portCLEAR_INTERRUPT_MASK_FROM_ISR( 0 );
 529              		.loc 1 361 0
 530 0014 4FF00000 		mov	r0, #0	@,
 531 0018 FFF7FEFF 		bl	vPortClearInterruptMask	@
 362:Source/portable/GCC/ARM_CM3/port.c **** }
 532              		.loc 1 362 0
 533 001c 80BD     		pop	{r7, pc}	@
 534              	.L26:
 535 001e 00BF     		.align	2
 536              	.L25:
 537 0020 04ED00E0 		.word	-536810236
 538              		.cfi_endproc
 539              	.LFE11:
 540              		.size	xPortSysTickHandler, .-xPortSysTickHandler
 541              		.section	.text.vPortSetupTimerInterrupt,"ax",%progbits
 542              		.align	2
 543              		.weak	vPortSetupTimerInterrupt
 544              		.thumb
 545              		.thumb_func
 546              		.type	vPortSetupTimerInterrupt, %function
 547              	vPortSetupTimerInterrupt:
 548              	.LFB12:
 363:Source/portable/GCC/ARM_CM3/port.c **** /*-----------------------------------------------------------*/
 364:Source/portable/GCC/ARM_CM3/port.c **** 
ARM GAS  C:\Users\Grzybek\AppData\Local\Temp\ccm6R5xc.s 			page 17


 365:Source/portable/GCC/ARM_CM3/port.c **** #if configUSE_TICKLESS_IDLE == 1
 366:Source/portable/GCC/ARM_CM3/port.c **** 
 367:Source/portable/GCC/ARM_CM3/port.c **** 	__attribute__((weak)) void vPortSuppressTicksAndSleep( portTickType xExpectedIdleTime )
 368:Source/portable/GCC/ARM_CM3/port.c **** 	{
 369:Source/portable/GCC/ARM_CM3/port.c **** 	unsigned long ulReloadValue, ulCompleteTickPeriods, ulCompletedSysTickIncrements;
 370:Source/portable/GCC/ARM_CM3/port.c **** 
 371:Source/portable/GCC/ARM_CM3/port.c **** 		/* Make sure the SysTick reload value does not overflow the counter. */
 372:Source/portable/GCC/ARM_CM3/port.c **** 		if( xExpectedIdleTime > xMaximumPossibleSuppressedTicks )
 373:Source/portable/GCC/ARM_CM3/port.c **** 		{
 374:Source/portable/GCC/ARM_CM3/port.c **** 			xExpectedIdleTime = xMaximumPossibleSuppressedTicks;
 375:Source/portable/GCC/ARM_CM3/port.c **** 		}
 376:Source/portable/GCC/ARM_CM3/port.c **** 
 377:Source/portable/GCC/ARM_CM3/port.c **** 		/* Calculate the reload value required to wait xExpectedIdleTime
 378:Source/portable/GCC/ARM_CM3/port.c **** 		tick periods.  -1 is used because this code will execute part way
 379:Source/portable/GCC/ARM_CM3/port.c **** 		through one of the tick periods, and the fraction of a tick period is
 380:Source/portable/GCC/ARM_CM3/port.c **** 		accounted for later. */
 381:Source/portable/GCC/ARM_CM3/port.c **** 		ulReloadValue = ( ulTimerReloadValueForOneTick * ( xExpectedIdleTime - 1UL ) );
 382:Source/portable/GCC/ARM_CM3/port.c **** 		if( ulReloadValue > ulStoppedTimerCompensation )
 383:Source/portable/GCC/ARM_CM3/port.c **** 		{
 384:Source/portable/GCC/ARM_CM3/port.c **** 			ulReloadValue -= ulStoppedTimerCompensation;
 385:Source/portable/GCC/ARM_CM3/port.c **** 		}
 386:Source/portable/GCC/ARM_CM3/port.c **** 
 387:Source/portable/GCC/ARM_CM3/port.c **** 		/* Stop the SysTick momentarily.  The time the SysTick is stopped for
 388:Source/portable/GCC/ARM_CM3/port.c **** 		is accounted for as best it can be, but using the tickless mode will
 389:Source/portable/GCC/ARM_CM3/port.c **** 		inevitably result in some tiny drift of the time maintained by the
 390:Source/portable/GCC/ARM_CM3/port.c **** 		kernel with respect to calendar time. */
 391:Source/portable/GCC/ARM_CM3/port.c **** 		portNVIC_SYSTICK_CTRL_REG = portNVIC_SYSTICK_CLK_BIT | portNVIC_SYSTICK_INT_BIT;
 392:Source/portable/GCC/ARM_CM3/port.c **** 
 393:Source/portable/GCC/ARM_CM3/port.c **** 		/* If a context switch is pending then abandon the low power entry as
 394:Source/portable/GCC/ARM_CM3/port.c **** 		the context switch might have been pended by an external interrupt that
 395:Source/portable/GCC/ARM_CM3/port.c **** 		requires processing. */
 396:Source/portable/GCC/ARM_CM3/port.c **** 		if( ( portNVIC_INT_CTRL_REG & portNVIC_PENDSVSET_BIT ) != 0 )
 397:Source/portable/GCC/ARM_CM3/port.c **** 		{
 398:Source/portable/GCC/ARM_CM3/port.c **** 			/* Restart SysTick. */
 399:Source/portable/GCC/ARM_CM3/port.c **** 			portNVIC_SYSTICK_CTRL_REG = portNVIC_SYSTICK_CLK_BIT | portNVIC_SYSTICK_INT_BIT | portNVIC_SYSTI
 400:Source/portable/GCC/ARM_CM3/port.c **** 		}
 401:Source/portable/GCC/ARM_CM3/port.c **** 		else
 402:Source/portable/GCC/ARM_CM3/port.c **** 		{
 403:Source/portable/GCC/ARM_CM3/port.c **** 			/* Adjust the reload value to take into account that the current
 404:Source/portable/GCC/ARM_CM3/port.c **** 			time slice is already partially complete. */
 405:Source/portable/GCC/ARM_CM3/port.c **** 			ulReloadValue += ( portNVIC_SYSTICK_LOAD_REG - ( portNVIC_SYSTICK_LOAD_REG - portNVIC_SYSTICK_CU
 406:Source/portable/GCC/ARM_CM3/port.c **** 			portNVIC_SYSTICK_LOAD_REG = ulReloadValue;
 407:Source/portable/GCC/ARM_CM3/port.c **** 
 408:Source/portable/GCC/ARM_CM3/port.c **** 			/* Clear the SysTick count flag and set the count value back to
 409:Source/portable/GCC/ARM_CM3/port.c **** 			zero. */
 410:Source/portable/GCC/ARM_CM3/port.c **** 			portNVIC_SYSTICK_CURRENT_VALUE_REG = 0UL;
 411:Source/portable/GCC/ARM_CM3/port.c **** 
 412:Source/portable/GCC/ARM_CM3/port.c **** 			/* Restart SysTick. */
 413:Source/portable/GCC/ARM_CM3/port.c **** 			portNVIC_SYSTICK_CTRL_REG = portNVIC_SYSTICK_CLK_BIT | portNVIC_SYSTICK_INT_BIT | portNVIC_SYSTI
 414:Source/portable/GCC/ARM_CM3/port.c **** 
 415:Source/portable/GCC/ARM_CM3/port.c **** 			/* Sleep until something happens. */
 416:Source/portable/GCC/ARM_CM3/port.c **** 			configPRE_SLEEP_PROCESSING( xExpectedIdleTime );
 417:Source/portable/GCC/ARM_CM3/port.c **** 			if( xExpectedIdleTime > 0 )
 418:Source/portable/GCC/ARM_CM3/port.c **** 			{
 419:Source/portable/GCC/ARM_CM3/port.c **** 				__asm volatile( "wfi" );
 420:Source/portable/GCC/ARM_CM3/port.c **** 			}
 421:Source/portable/GCC/ARM_CM3/port.c **** 			configPOST_SLEEP_PROCESSING( xExpectedIdleTime );
ARM GAS  C:\Users\Grzybek\AppData\Local\Temp\ccm6R5xc.s 			page 18


 422:Source/portable/GCC/ARM_CM3/port.c **** 
 423:Source/portable/GCC/ARM_CM3/port.c **** 			/* Stop SysTick.  Again, the time the SysTick is stopped for is
 424:Source/portable/GCC/ARM_CM3/port.c **** 			accounted for as best it can be, but using the tickless mode will
 425:Source/portable/GCC/ARM_CM3/port.c **** 			inevitably result in some tiny drift of the time maintained by the
 426:Source/portable/GCC/ARM_CM3/port.c **** 			kernel with respect to calendar time. */
 427:Source/portable/GCC/ARM_CM3/port.c **** 			portNVIC_SYSTICK_CTRL_REG = portNVIC_SYSTICK_CLK_BIT | portNVIC_SYSTICK_INT_BIT;
 428:Source/portable/GCC/ARM_CM3/port.c **** 
 429:Source/portable/GCC/ARM_CM3/port.c **** 			if( ( portNVIC_SYSTICK_CTRL_REG & portNVIC_SYSTICK_COUNT_FLAG_BIT ) != 0 )
 430:Source/portable/GCC/ARM_CM3/port.c **** 			{
 431:Source/portable/GCC/ARM_CM3/port.c **** 				/* The tick interrupt has already executed, and the SysTick
 432:Source/portable/GCC/ARM_CM3/port.c **** 				count reloaded with the portNVIC_SYSTICK_LOAD_REG value.
 433:Source/portable/GCC/ARM_CM3/port.c **** 				Reset the portNVIC_SYSTICK_LOAD_REG with whatever remains of
 434:Source/portable/GCC/ARM_CM3/port.c **** 				this tick period. */
 435:Source/portable/GCC/ARM_CM3/port.c **** 				portNVIC_SYSTICK_LOAD_REG = ulTimerReloadValueForOneTick - ( ulReloadValue - portNVIC_SYSTICK_C
 436:Source/portable/GCC/ARM_CM3/port.c **** 
 437:Source/portable/GCC/ARM_CM3/port.c **** 				/* The tick interrupt handler will already have pended the tick
 438:Source/portable/GCC/ARM_CM3/port.c **** 				processing in the kernel.  As the pending tick will be
 439:Source/portable/GCC/ARM_CM3/port.c **** 				processed as soon as this function exits, the tick value
 440:Source/portable/GCC/ARM_CM3/port.c **** 				maintained by the tick is stepped forward by one less than the
 441:Source/portable/GCC/ARM_CM3/port.c **** 				time spent waiting. */
 442:Source/portable/GCC/ARM_CM3/port.c **** 				ulCompleteTickPeriods = xExpectedIdleTime - 1UL;
 443:Source/portable/GCC/ARM_CM3/port.c **** 			}
 444:Source/portable/GCC/ARM_CM3/port.c **** 			else
 445:Source/portable/GCC/ARM_CM3/port.c **** 			{
 446:Source/portable/GCC/ARM_CM3/port.c **** 				/* Something other than the tick interrupt ended the sleep.
 447:Source/portable/GCC/ARM_CM3/port.c **** 				Work out how long the sleep lasted. */
 448:Source/portable/GCC/ARM_CM3/port.c **** 				ulCompletedSysTickIncrements = ( xExpectedIdleTime * ulTimerReloadValueForOneTick ) - portNVIC_
 449:Source/portable/GCC/ARM_CM3/port.c **** 
 450:Source/portable/GCC/ARM_CM3/port.c **** 				/* How many complete tick periods passed while the processor
 451:Source/portable/GCC/ARM_CM3/port.c **** 				was waiting? */
 452:Source/portable/GCC/ARM_CM3/port.c **** 				ulCompleteTickPeriods = ulCompletedSysTickIncrements / ulTimerReloadValueForOneTick;
 453:Source/portable/GCC/ARM_CM3/port.c **** 
 454:Source/portable/GCC/ARM_CM3/port.c **** 				/* The reload value is set to whatever fraction of a single tick
 455:Source/portable/GCC/ARM_CM3/port.c **** 				period remains. */
 456:Source/portable/GCC/ARM_CM3/port.c **** 				portNVIC_SYSTICK_LOAD_REG = ( ( ulCompleteTickPeriods + 1 ) * ulTimerReloadValueForOneTick ) - 
 457:Source/portable/GCC/ARM_CM3/port.c **** 			}
 458:Source/portable/GCC/ARM_CM3/port.c **** 
 459:Source/portable/GCC/ARM_CM3/port.c **** 			/* Restart SysTick so it runs from portNVIC_SYSTICK_LOAD_REG
 460:Source/portable/GCC/ARM_CM3/port.c **** 			again, then set portNVIC_SYSTICK_LOAD_REG back to its standard
 461:Source/portable/GCC/ARM_CM3/port.c **** 			value. */
 462:Source/portable/GCC/ARM_CM3/port.c **** 			portNVIC_SYSTICK_CURRENT_VALUE_REG = 0UL;
 463:Source/portable/GCC/ARM_CM3/port.c **** 			portNVIC_SYSTICK_CTRL_REG = portNVIC_SYSTICK_CLK_BIT | portNVIC_SYSTICK_INT_BIT | portNVIC_SYSTI
 464:Source/portable/GCC/ARM_CM3/port.c **** 
 465:Source/portable/GCC/ARM_CM3/port.c **** 			vTaskStepTick( ulCompleteTickPeriods );
 466:Source/portable/GCC/ARM_CM3/port.c **** 		}
 467:Source/portable/GCC/ARM_CM3/port.c **** 	}
 468:Source/portable/GCC/ARM_CM3/port.c **** 
 469:Source/portable/GCC/ARM_CM3/port.c **** #endif /* #if configUSE_TICKLESS_IDLE */
 470:Source/portable/GCC/ARM_CM3/port.c **** /*-----------------------------------------------------------*/
 471:Source/portable/GCC/ARM_CM3/port.c **** 
 472:Source/portable/GCC/ARM_CM3/port.c **** /*
 473:Source/portable/GCC/ARM_CM3/port.c ****  * Setup the systick timer to generate the tick interrupts at the required
 474:Source/portable/GCC/ARM_CM3/port.c ****  * frequency.
 475:Source/portable/GCC/ARM_CM3/port.c ****  */
 476:Source/portable/GCC/ARM_CM3/port.c **** __attribute__(( weak )) void vPortSetupTimerInterrupt( void )
 477:Source/portable/GCC/ARM_CM3/port.c **** {
 549              		.loc 1 477 0
ARM GAS  C:\Users\Grzybek\AppData\Local\Temp\ccm6R5xc.s 			page 19


 550              		.cfi_startproc
 551              		@ args = 0, pretend = 0, frame = 0
 552              		@ frame_needed = 1, uses_anonymous_args = 0
 553              		@ link register save eliminated.
 554 0000 80B4     		push	{r7}	@
 555              	.LCFI15:
 556              		.cfi_def_cfa_offset 4
 557              		.cfi_offset 7, -4
 558 0002 00AF     		add	r7, sp, #0	@,,
 559              	.LCFI16:
 560              		.cfi_def_cfa_register 7
 478:Source/portable/GCC/ARM_CM3/port.c **** 	/* Calculate the constants required to configure the tick interrupt. */		
 479:Source/portable/GCC/ARM_CM3/port.c **** 	#if configUSE_TICKLESS_IDLE == 1
 480:Source/portable/GCC/ARM_CM3/port.c **** 	{
 481:Source/portable/GCC/ARM_CM3/port.c **** 		ulTimerReloadValueForOneTick = ( configSYSTICK_CLOCK_HZ / configTICK_RATE_HZ ) - 1UL;
 482:Source/portable/GCC/ARM_CM3/port.c **** 		xMaximumPossibleSuppressedTicks = 0xffffffUL / ( ( configSYSTICK_CLOCK_HZ / configTICK_RATE_HZ ) 
 483:Source/portable/GCC/ARM_CM3/port.c **** 		ulStoppedTimerCompensation = 45UL / ( configCPU_CLOCK_HZ / configSYSTICK_CLOCK_HZ );
 484:Source/portable/GCC/ARM_CM3/port.c **** 	}
 485:Source/portable/GCC/ARM_CM3/port.c **** 	#endif /* configUSE_TICKLESS_IDLE */
 486:Source/portable/GCC/ARM_CM3/port.c **** 
 487:Source/portable/GCC/ARM_CM3/port.c **** 	/* Configure SysTick to interrupt at the requested rate. */
 488:Source/portable/GCC/ARM_CM3/port.c **** 	portNVIC_SYSTICK_LOAD_REG = ( configSYSTICK_CLOCK_HZ / configTICK_RATE_HZ ) - 1UL;;
 561              		.loc 1 488 0
 562 0004 044B     		ldr	r3, .L28	@ D.4299,
 563 0006 054A     		ldr	r2, .L28+4	@ tmp136,
 564 0008 1A60     		str	r2, [r3, #0]	@ tmp136, *D.4299_1
 489:Source/portable/GCC/ARM_CM3/port.c **** 	portNVIC_SYSTICK_CTRL_REG = portNVIC_SYSTICK_CLK_BIT | portNVIC_SYSTICK_INT_BIT | portNVIC_SYSTICK
 565              		.loc 1 489 0
 566 000a 054B     		ldr	r3, .L28+8	@ D.4300,
 567 000c 4FF00702 		mov	r2, #7	@ tmp137,
 568 0010 1A60     		str	r2, [r3, #0]	@ tmp137, *D.4300_2
 490:Source/portable/GCC/ARM_CM3/port.c **** }
 569              		.loc 1 490 0
 570 0012 BD46     		mov	sp, r7
 571 0014 80BC     		pop	{r7}
 572 0016 7047     		bx	lr
 573              	.L29:
 574              		.align	2
 575              	.L28:
 576 0018 14E000E0 		.word	-536813548
 577 001c 3F190100 		.word	71999
 578 0020 10E000E0 		.word	-536813552
 579              		.cfi_endproc
 580              	.LFE12:
 581              		.size	vPortSetupTimerInterrupt, .-vPortSetupTimerInterrupt
 582              		.text
 583              	.Letext0:
 584              		.file 2 "./Source/include/projdefs.h"
 585              		.file 3 "./Source/include/../../Source/portable/GCC/ARM_CM3/portmacro.h"