ARM GAS  C:\Users\Grzybek\AppData\Local\Temp\cczfnakc.s 			page 1


   1              		.syntax unified
   2              		.cpu cortex-m3
   3              		.fpu softvfp
   4              		.eabi_attribute 20, 1	@ Tag_ABI_FP_denormal
   5              		.eabi_attribute 21, 1	@ Tag_ABI_FP_exceptions
   6              		.eabi_attribute 23, 3	@ Tag_ABI_FP_number_model
   7              		.eabi_attribute 24, 1	@ Tag_ABI_align8_needed
   8              		.eabi_attribute 25, 1	@ Tag_ABI_align8_preserved
   9              		.eabi_attribute 26, 1	@ Tag_ABI_enum_size
  10              		.eabi_attribute 30, 6	@ Tag_ABI_optimization_goals
  11              		.eabi_attribute 34, 1	@ Tag_CPU_unaligned_access
  12              		.eabi_attribute 18, 4	@ Tag_ABI_PCS_wchar_t
  13              		.file	"list.c"
  14              	@ GNU C (Sourcery CodeBench Lite 2012.09-63) version 4.7.2 (arm-none-eabi)
  15              	@	compiled by GNU C version 4.3.2, GMP version 5.0.5, MPFR version 3.1.1-p2, MPC version 1.0.1
  16              	@ GGC heuristics: --param ggc-min-expand=100 --param ggc-min-heapsize=131072
  17              	@ options passed:  -I . -I ./STCode -I ./Source/include
  18              	@ -I ./Source/portable/GCC/ARM_CM3 -I ./Common/include
  19              	@ -I ./Common/drivers/ST/STM32F10xFWLib/v3_2_0/Libraries/STM32F10x_StdPeriph_Driver/inc
  20              	@ -I ./Common/drivers/ST/STM32F10xFWLib/v3_2_0/Libraries/CMSIS/CM3/CoreSupport
  21              	@ -I ./Common/drivers/ST/STM32F10xFWLib/v3_2_0/Libraries/CMSIS/CM3/DeviceSupport/ST/STM32F10x
  22              	@ -imultilib thumb2
  23              	@ -iprefix c:\codesourcery\sourcery_codebench_lite_for_arm_eabi\bin\../lib/gcc/arm-none-eabi/4.7.2/
  24              	@ -isysroot c:\codesourcery\sourcery_codebench_lite_for_arm_eabi\bin\../arm-none-eabi
  25              	@ -D__USES_INITFINI__ -D STM32F10X_HD -D USE_STDPERIPH_DRIVER
  26              	@ -D VECT_TAB_FLASH -D GCC_ARMCM3 -D inline=
  27              	@ -D PACK_STRUCT_END=__attribute((packed))
  28              	@ -D ALIGN_STRUCT_END=__attribute((aligned(4)))
  29              	@ -D __CS_SOURCERYGXX_MAJ__=2012 -D __CS_SOURCERYGXX_MIN__=9
  30              	@ -D __CS_SOURCERYGXX_REV__=63 Source/list.c -mthumb -mcpu=cortex-m3
  31              	@ -auxbase-strip Debug/list.o -g3 -gdwarf-2 -O0 -std=gnu99
  32              	@ -ffunction-sections -fdata-sections -fmessage-length=0 -fverbose-asm
  33              	@ options enabled:  -fauto-inc-dec -fbranch-count-reg -fcommon
  34              	@ -fdata-sections -fdebug-types-section -fdelete-null-pointer-checks
  35              	@ -fdwarf2-cfi-asm -fearly-inlining -feliminate-unused-debug-types
  36              	@ -ffunction-cse -ffunction-sections -fgcse-lm -fgnu-runtime -fident
  37              	@ -finline-atomics -fira-share-save-slots -fira-share-spill-slots -fivopts
  38              	@ -fkeep-static-consts -fleading-underscore -fmath-errno
  39              	@ -fmerge-debug-strings -fmove-loop-invariants -fpeephole
  40              	@ -fprefetch-loop-arrays -freg-struct-return
  41              	@ -fsched-critical-path-heuristic -fsched-dep-count-heuristic
  42              	@ -fsched-group-heuristic -fsched-interblock -fsched-last-insn-heuristic
  43              	@ -fsched-rank-heuristic -fsched-spec -fsched-spec-insn-heuristic
  44              	@ -fsched-stalled-insns-dep -fshow-column -fsigned-zeros
  45              	@ -fsplit-ivs-in-unroller -fstrict-volatile-bitfields -ftrapping-math
  46              	@ -ftree-cselim -ftree-forwprop -ftree-loop-if-convert -ftree-loop-im
  47              	@ -ftree-loop-ivcanon -ftree-loop-optimize -ftree-parallelize-loops=
  48              	@ -ftree-phiprop -ftree-pta -ftree-reassoc -ftree-scev-cprop
  49              	@ -ftree-slp-vectorize -ftree-vect-loop-version -funit-at-a-time
  50              	@ -fverbose-asm -fzero-initialized-in-bss -mfix-cortex-m3-ldrd
  51              	@ -mlittle-endian -msched-prolog -mthumb -munaligned-access
  52              	@ -mvectorize-with-neon-quad
  53              	
  54              		.text
  55              	.Ltext0:
  56              		.cfi_sections	.debug_frame
  57              		.section	.text.vListInitialise,"ax",%progbits
ARM GAS  C:\Users\Grzybek\AppData\Local\Temp\cczfnakc.s 			page 2


  58              		.align	2
  59              		.global	vListInitialise
  60              		.thumb
  61              		.thumb_func
  62              		.type	vListInitialise, %function
  63              	vListInitialise:
  64              	.LFB0:
  65              		.file 1 "Source/list.c"
   1:Source/list.c **** /*
   2:Source/list.c ****     FreeRTOS V7.3.0 - Copyright (C) 2012 Real Time Engineers Ltd.
   3:Source/list.c **** 
   4:Source/list.c ****     FEATURES AND PORTS ARE ADDED TO FREERTOS ALL THE TIME.  PLEASE VISIT 
   5:Source/list.c ****     http://www.FreeRTOS.org TO ENSURE YOU ARE USING THE LATEST VERSION.
   6:Source/list.c **** 
   7:Source/list.c ****     ***************************************************************************
   8:Source/list.c ****      *                                                                       *
   9:Source/list.c ****      *    FreeRTOS tutorial books are available in pdf and paperback.        *
  10:Source/list.c ****      *    Complete, revised, and edited pdf reference manuals are also       *
  11:Source/list.c ****      *    available.                                                         *
  12:Source/list.c ****      *                                                                       *
  13:Source/list.c ****      *    Purchasing FreeRTOS documentation will not only help you, by       *
  14:Source/list.c ****      *    ensuring you get running as quickly as possible and with an        *
  15:Source/list.c ****      *    in-depth knowledge of how to use FreeRTOS, it will also help       *
  16:Source/list.c ****      *    the FreeRTOS project to continue with its mission of providing     *
  17:Source/list.c ****      *    professional grade, cross platform, de facto standard solutions    *
  18:Source/list.c ****      *    for microcontrollers - completely free of charge!                  *
  19:Source/list.c ****      *                                                                       *
  20:Source/list.c ****      *    >>> See http://www.FreeRTOS.org/Documentation for details. <<<     *
  21:Source/list.c ****      *                                                                       *
  22:Source/list.c ****      *    Thank you for using FreeRTOS, and thank you for your support!      *
  23:Source/list.c ****      *                                                                       *
  24:Source/list.c ****     ***************************************************************************
  25:Source/list.c **** 
  26:Source/list.c **** 
  27:Source/list.c ****     This file is part of the FreeRTOS distribution.
  28:Source/list.c **** 
  29:Source/list.c ****     FreeRTOS is free software; you can redistribute it and/or modify it under
  30:Source/list.c ****     the terms of the GNU General Public License (version 2) as published by the
  31:Source/list.c ****     Free Software Foundation AND MODIFIED BY the FreeRTOS exception.
  32:Source/list.c ****     >>>NOTE<<< The modification to the GPL is included to allow you to
  33:Source/list.c ****     distribute a combined work that includes FreeRTOS without being obliged to
  34:Source/list.c ****     provide the source code for proprietary components outside of the FreeRTOS
  35:Source/list.c ****     kernel.  FreeRTOS is distributed in the hope that it will be useful, but
  36:Source/list.c ****     WITHOUT ANY WARRANTY; without even the implied warranty of MERCHANTABILITY
  37:Source/list.c ****     or FITNESS FOR A PARTICULAR PURPOSE.  See the GNU General Public License for
  38:Source/list.c ****     more details. You should have received a copy of the GNU General Public
  39:Source/list.c ****     License and the FreeRTOS license exception along with FreeRTOS; if not it
  40:Source/list.c ****     can be viewed here: http://www.freertos.org/a00114.html and also obtained
  41:Source/list.c ****     by writing to Richard Barry, contact details for whom are available on the
  42:Source/list.c ****     FreeRTOS WEB site.
  43:Source/list.c **** 
  44:Source/list.c ****     1 tab == 4 spaces!
  45:Source/list.c ****     
  46:Source/list.c ****     ***************************************************************************
  47:Source/list.c ****      *                                                                       *
  48:Source/list.c ****      *    Having a problem?  Start by reading the FAQ "My application does   *
  49:Source/list.c ****      *    not run, what could be wrong?"                                     *
ARM GAS  C:\Users\Grzybek\AppData\Local\Temp\cczfnakc.s 			page 3


  50:Source/list.c ****      *                                                                       *
  51:Source/list.c ****      *    http://www.FreeRTOS.org/FAQHelp.html                               *
  52:Source/list.c ****      *                                                                       *
  53:Source/list.c ****     ***************************************************************************
  54:Source/list.c **** 
  55:Source/list.c ****     
  56:Source/list.c ****     http://www.FreeRTOS.org - Documentation, training, latest versions, license 
  57:Source/list.c ****     and contact details.  
  58:Source/list.c ****     
  59:Source/list.c ****     http://www.FreeRTOS.org/plus - A selection of FreeRTOS ecosystem products,
  60:Source/list.c ****     including FreeRTOS+Trace - an indispensable productivity tool.
  61:Source/list.c **** 
  62:Source/list.c ****     Real Time Engineers ltd license FreeRTOS to High Integrity Systems, who sell 
  63:Source/list.c ****     the code with commercial support, indemnification, and middleware, under 
  64:Source/list.c ****     the OpenRTOS brand: http://www.OpenRTOS.com.  High Integrity Systems also
  65:Source/list.c ****     provide a safety engineered and independently SIL3 certified version under 
  66:Source/list.c ****     the SafeRTOS brand: http://www.SafeRTOS.com.
  67:Source/list.c **** */
  68:Source/list.c **** 
  69:Source/list.c **** 
  70:Source/list.c **** #include <stdlib.h>
  71:Source/list.c **** #include "FreeRTOS.h"
  72:Source/list.c **** #include "list.h"
  73:Source/list.c **** 
  74:Source/list.c **** /*-----------------------------------------------------------
  75:Source/list.c ****  * PUBLIC LIST API documented in list.h
  76:Source/list.c ****  *----------------------------------------------------------*/
  77:Source/list.c **** 
  78:Source/list.c **** void vListInitialise( xList *pxList )
  79:Source/list.c **** {
  66              		.loc 1 79 0
  67              		.cfi_startproc
  68              		@ args = 0, pretend = 0, frame = 8
  69              		@ frame_needed = 1, uses_anonymous_args = 0
  70              		@ link register save eliminated.
  71 0000 80B4     		push	{r7}	@
  72              	.LCFI0:
  73              		.cfi_def_cfa_offset 4
  74              		.cfi_offset 7, -4
  75 0002 83B0     		sub	sp, sp, #12	@,,
  76              	.LCFI1:
  77              		.cfi_def_cfa_offset 16
  78 0004 00AF     		add	r7, sp, #0	@,,
  79              	.LCFI2:
  80              		.cfi_def_cfa_register 7
  81 0006 7860     		str	r0, [r7, #4]	@ pxList, pxList
  80:Source/list.c **** 	/* The list structure contains a list item which is used to mark the
  81:Source/list.c **** 	end of the list.  To initialise the list the list end is inserted
  82:Source/list.c **** 	as the only list entry. */
  83:Source/list.c **** 	pxList->pxIndex = ( xListItem * ) &( pxList->xListEnd );
  82              		.loc 1 83 0
  83 0008 7B68     		ldr	r3, [r7, #4]	@ tmp137, pxList
  84 000a 03F10802 		add	r2, r3, #8	@ D.4754, tmp137,
  85 000e 7B68     		ldr	r3, [r7, #4]	@ tmp138, pxList
  86 0010 5A60     		str	r2, [r3, #4]	@ D.4754, pxList_1(D)->pxIndex
  84:Source/list.c **** 
  85:Source/list.c **** 	/* The list end value is the highest possible value in the list to
ARM GAS  C:\Users\Grzybek\AppData\Local\Temp\cczfnakc.s 			page 4


  86:Source/list.c **** 	ensure it remains at the end of the list. */
  87:Source/list.c **** 	pxList->xListEnd.xItemValue = portMAX_DELAY;
  87              		.loc 1 87 0
  88 0012 7B68     		ldr	r3, [r7, #4]	@ tmp139, pxList
  89 0014 4FF0FF32 		mov	r2, #-1	@ tmp140,
  90 0018 9A60     		str	r2, [r3, #8]	@ tmp140, pxList_1(D)->xListEnd.xItemValue
  88:Source/list.c **** 
  89:Source/list.c **** 	/* The list end next and previous pointers point to itself so we know
  90:Source/list.c **** 	when the list is empty. */
  91:Source/list.c **** 	pxList->xListEnd.pxNext = ( xListItem * ) &( pxList->xListEnd );
  91              		.loc 1 91 0
  92 001a 7B68     		ldr	r3, [r7, #4]	@ tmp141, pxList
  93 001c 03F10802 		add	r2, r3, #8	@ D.4755, tmp141,
  94 0020 7B68     		ldr	r3, [r7, #4]	@ tmp142, pxList
  95 0022 DA60     		str	r2, [r3, #12]	@ D.4755, pxList_1(D)->xListEnd.pxNext
  92:Source/list.c **** 	pxList->xListEnd.pxPrevious = ( xListItem * ) &( pxList->xListEnd );
  96              		.loc 1 92 0
  97 0024 7B68     		ldr	r3, [r7, #4]	@ tmp143, pxList
  98 0026 03F10802 		add	r2, r3, #8	@ D.4756, tmp143,
  99 002a 7B68     		ldr	r3, [r7, #4]	@ tmp144, pxList
 100 002c 1A61     		str	r2, [r3, #16]	@ D.4756, pxList_1(D)->xListEnd.pxPrevious
  93:Source/list.c **** 
  94:Source/list.c **** 	pxList->uxNumberOfItems = ( unsigned portBASE_TYPE ) 0U;
 101              		.loc 1 94 0
 102 002e 7B68     		ldr	r3, [r7, #4]	@ tmp145, pxList
 103 0030 4FF00002 		mov	r2, #0	@ tmp146,
 104 0034 1A60     		str	r2, [r3, #0]	@ tmp146, pxList_1(D)->uxNumberOfItems
  95:Source/list.c **** }
 105              		.loc 1 95 0
 106 0036 07F10C07 		add	r7, r7, #12	@,,
 107 003a BD46     		mov	sp, r7
 108 003c 80BC     		pop	{r7}
 109 003e 7047     		bx	lr
 110              		.cfi_endproc
 111              	.LFE0:
 112              		.size	vListInitialise, .-vListInitialise
 113              		.section	.text.vListInitialiseItem,"ax",%progbits
 114              		.align	2
 115              		.global	vListInitialiseItem
 116              		.thumb
 117              		.thumb_func
 118              		.type	vListInitialiseItem, %function
 119              	vListInitialiseItem:
 120              	.LFB1:
  96:Source/list.c **** /*-----------------------------------------------------------*/
  97:Source/list.c **** 
  98:Source/list.c **** void vListInitialiseItem( xListItem *pxItem )
  99:Source/list.c **** {
 121              		.loc 1 99 0
 122              		.cfi_startproc
 123              		@ args = 0, pretend = 0, frame = 8
 124              		@ frame_needed = 1, uses_anonymous_args = 0
 125              		@ link register save eliminated.
 126 0000 80B4     		push	{r7}	@
 127              	.LCFI3:
 128              		.cfi_def_cfa_offset 4
 129              		.cfi_offset 7, -4
ARM GAS  C:\Users\Grzybek\AppData\Local\Temp\cczfnakc.s 			page 5


 130 0002 83B0     		sub	sp, sp, #12	@,,
 131              	.LCFI4:
 132              		.cfi_def_cfa_offset 16
 133 0004 00AF     		add	r7, sp, #0	@,,
 134              	.LCFI5:
 135              		.cfi_def_cfa_register 7
 136 0006 7860     		str	r0, [r7, #4]	@ pxItem, pxItem
 100:Source/list.c **** 	/* Make sure the list item is not recorded as being on a list. */
 101:Source/list.c **** 	pxItem->pvContainer = NULL;
 137              		.loc 1 101 0
 138 0008 7B68     		ldr	r3, [r7, #4]	@ tmp134, pxItem
 139 000a 4FF00002 		mov	r2, #0	@ tmp135,
 140 000e 1A61     		str	r2, [r3, #16]	@ tmp135, pxItem_1(D)->pvContainer
 102:Source/list.c **** }
 141              		.loc 1 102 0
 142 0010 07F10C07 		add	r7, r7, #12	@,,
 143 0014 BD46     		mov	sp, r7
 144 0016 80BC     		pop	{r7}
 145 0018 7047     		bx	lr
 146              		.cfi_endproc
 147              	.LFE1:
 148              		.size	vListInitialiseItem, .-vListInitialiseItem
 149 001a 00BF     		.section	.text.vListInsertEnd,"ax",%progbits
 150              		.align	2
 151              		.global	vListInsertEnd
 152              		.thumb
 153              		.thumb_func
 154              		.type	vListInsertEnd, %function
 155              	vListInsertEnd:
 156              	.LFB2:
 103:Source/list.c **** /*-----------------------------------------------------------*/
 104:Source/list.c **** 
 105:Source/list.c **** void vListInsertEnd( xList *pxList, xListItem *pxNewListItem )
 106:Source/list.c **** {
 157              		.loc 1 106 0
 158              		.cfi_startproc
 159              		@ args = 0, pretend = 0, frame = 16
 160              		@ frame_needed = 1, uses_anonymous_args = 0
 161              		@ link register save eliminated.
 162 0000 80B4     		push	{r7}	@
 163              	.LCFI6:
 164              		.cfi_def_cfa_offset 4
 165              		.cfi_offset 7, -4
 166 0002 85B0     		sub	sp, sp, #20	@,,
 167              	.LCFI7:
 168              		.cfi_def_cfa_offset 24
 169 0004 00AF     		add	r7, sp, #0	@,,
 170              	.LCFI8:
 171              		.cfi_def_cfa_register 7
 172 0006 7860     		str	r0, [r7, #4]	@ pxList, pxList
 173 0008 3960     		str	r1, [r7, #0]	@ pxNewListItem, pxNewListItem
 107:Source/list.c **** volatile xListItem * pxIndex;
 108:Source/list.c **** 
 109:Source/list.c **** 	/* Insert a new list item into pxList, but rather than sort the list,
 110:Source/list.c **** 	makes the new list item the last item to be removed by a call to
 111:Source/list.c **** 	pvListGetOwnerOfNextEntry.  This means it has to be the item pointed to by
 112:Source/list.c **** 	the pxIndex member. */
ARM GAS  C:\Users\Grzybek\AppData\Local\Temp\cczfnakc.s 			page 6


 113:Source/list.c **** 	pxIndex = pxList->pxIndex;
 174              		.loc 1 113 0
 175 000a 7B68     		ldr	r3, [r7, #4]	@ tmp139, pxList
 176 000c 5B68     		ldr	r3, [r3, #4]	@ tmp140, pxList_1(D)->pxIndex
 177 000e FB60     		str	r3, [r7, #12]	@ tmp140, pxIndex
 114:Source/list.c **** 
 115:Source/list.c **** 	pxNewListItem->pxNext = pxIndex->pxNext;
 178              		.loc 1 115 0
 179 0010 FB68     		ldr	r3, [r7, #12]	@ tmp141, pxIndex
 180 0012 5A68     		ldr	r2, [r3, #4]	@ D.4749, pxIndex_2->pxNext
 181 0014 3B68     		ldr	r3, [r7, #0]	@ tmp142, pxNewListItem
 182 0016 5A60     		str	r2, [r3, #4]	@ D.4749, pxNewListItem_4(D)->pxNext
 116:Source/list.c **** 	pxNewListItem->pxPrevious = pxList->pxIndex;
 183              		.loc 1 116 0
 184 0018 7B68     		ldr	r3, [r7, #4]	@ tmp143, pxList
 185 001a 5A68     		ldr	r2, [r3, #4]	@ D.4750, pxList_1(D)->pxIndex
 186 001c 3B68     		ldr	r3, [r7, #0]	@ tmp144, pxNewListItem
 187 001e 9A60     		str	r2, [r3, #8]	@ D.4750, pxNewListItem_4(D)->pxPrevious
 117:Source/list.c **** 	pxIndex->pxNext->pxPrevious = ( volatile xListItem * ) pxNewListItem;
 188              		.loc 1 117 0
 189 0020 FB68     		ldr	r3, [r7, #12]	@ tmp145, pxIndex
 190 0022 5B68     		ldr	r3, [r3, #4]	@ D.4751, pxIndex_2->pxNext
 191 0024 3A68     		ldr	r2, [r7, #0]	@ tmp146, pxNewListItem
 192 0026 9A60     		str	r2, [r3, #8]	@ tmp146, D.4751_6->pxPrevious
 118:Source/list.c **** 	pxIndex->pxNext = ( volatile xListItem * ) pxNewListItem;
 193              		.loc 1 118 0
 194 0028 FB68     		ldr	r3, [r7, #12]	@ tmp147, pxIndex
 195 002a 3A68     		ldr	r2, [r7, #0]	@ tmp148, pxNewListItem
 196 002c 5A60     		str	r2, [r3, #4]	@ tmp148, pxIndex_2->pxNext
 119:Source/list.c **** 	pxList->pxIndex = ( volatile xListItem * ) pxNewListItem;
 197              		.loc 1 119 0
 198 002e 7B68     		ldr	r3, [r7, #4]	@ tmp149, pxList
 199 0030 3A68     		ldr	r2, [r7, #0]	@ tmp150, pxNewListItem
 200 0032 5A60     		str	r2, [r3, #4]	@ tmp150, pxList_1(D)->pxIndex
 120:Source/list.c **** 
 121:Source/list.c **** 	/* Remember which list the item is in. */
 122:Source/list.c **** 	pxNewListItem->pvContainer = ( void * ) pxList;
 201              		.loc 1 122 0
 202 0034 3B68     		ldr	r3, [r7, #0]	@ tmp151, pxNewListItem
 203 0036 7A68     		ldr	r2, [r7, #4]	@ tmp152, pxList
 204 0038 1A61     		str	r2, [r3, #16]	@ tmp152, pxNewListItem_4(D)->pvContainer
 123:Source/list.c **** 
 124:Source/list.c **** 	( pxList->uxNumberOfItems )++;
 205              		.loc 1 124 0
 206 003a 7B68     		ldr	r3, [r7, #4]	@ tmp153, pxList
 207 003c 1B68     		ldr	r3, [r3, #0]	@ D.4752, pxList_1(D)->uxNumberOfItems
 208 003e 03F10102 		add	r2, r3, #1	@ D.4753, D.4752,
 209 0042 7B68     		ldr	r3, [r7, #4]	@ tmp154, pxList
 210 0044 1A60     		str	r2, [r3, #0]	@ D.4753, pxList_1(D)->uxNumberOfItems
 125:Source/list.c **** }
 211              		.loc 1 125 0
 212 0046 07F11407 		add	r7, r7, #20	@,,
 213 004a BD46     		mov	sp, r7
 214 004c 80BC     		pop	{r7}
 215 004e 7047     		bx	lr
 216              		.cfi_endproc
 217              	.LFE2:
ARM GAS  C:\Users\Grzybek\AppData\Local\Temp\cczfnakc.s 			page 7


 218              		.size	vListInsertEnd, .-vListInsertEnd
 219              		.section	.text.vListInsert,"ax",%progbits
 220              		.align	2
 221              		.global	vListInsert
 222              		.thumb
 223              		.thumb_func
 224              		.type	vListInsert, %function
 225              	vListInsert:
 226              	.LFB3:
 126:Source/list.c **** /*-----------------------------------------------------------*/
 127:Source/list.c **** 
 128:Source/list.c **** void vListInsert( xList *pxList, xListItem *pxNewListItem )
 129:Source/list.c **** {
 227              		.loc 1 129 0
 228              		.cfi_startproc
 229              		@ args = 0, pretend = 0, frame = 16
 230              		@ frame_needed = 1, uses_anonymous_args = 0
 231              		@ link register save eliminated.
 232 0000 80B4     		push	{r7}	@
 233              	.LCFI9:
 234              		.cfi_def_cfa_offset 4
 235              		.cfi_offset 7, -4
 236 0002 85B0     		sub	sp, sp, #20	@,,
 237              	.LCFI10:
 238              		.cfi_def_cfa_offset 24
 239 0004 00AF     		add	r7, sp, #0	@,,
 240              	.LCFI11:
 241              		.cfi_def_cfa_register 7
 242 0006 7860     		str	r0, [r7, #4]	@ pxList, pxList
 243 0008 3960     		str	r1, [r7, #0]	@ pxNewListItem, pxNewListItem
 130:Source/list.c **** volatile xListItem *pxIterator;
 131:Source/list.c **** portTickType xValueOfInsertion;
 132:Source/list.c **** 
 133:Source/list.c **** 	/* Insert the new list item into the list, sorted in ulListItem order. */
 134:Source/list.c **** 	xValueOfInsertion = pxNewListItem->xItemValue;
 244              		.loc 1 134 0
 245 000a 3B68     		ldr	r3, [r7, #0]	@ tmp140, pxNewListItem
 246 000c 1B68     		ldr	r3, [r3, #0]	@ tmp141, pxNewListItem_3(D)->xItemValue
 247 000e BB60     		str	r3, [r7, #8]	@ tmp141, xValueOfInsertion
 135:Source/list.c **** 
 136:Source/list.c **** 	/* If the list already contains a list item with the same item value then
 137:Source/list.c **** 	the new list item should be placed after it.  This ensures that TCB's which
 138:Source/list.c **** 	are stored in ready lists (all of which have the same ulListItem value)
 139:Source/list.c **** 	get an equal share of the CPU.  However, if the xItemValue is the same as
 140:Source/list.c **** 	the back marker the iteration loop below will not end.  This means we need
 141:Source/list.c **** 	to guard against this by checking the value first and modifying the
 142:Source/list.c **** 	algorithm slightly if necessary. */
 143:Source/list.c **** 	if( xValueOfInsertion == portMAX_DELAY )
 248              		.loc 1 143 0
 249 0010 BB68     		ldr	r3, [r7, #8]	@ tmp142, xValueOfInsertion
 250 0012 B3F1FF3F 		cmp	r3, #-1	@ tmp142,
 251 0016 03D1     		bne	.L5	@,
 144:Source/list.c **** 	{
 145:Source/list.c **** 		pxIterator = pxList->xListEnd.pxPrevious;
 252              		.loc 1 145 0
 253 0018 7B68     		ldr	r3, [r7, #4]	@ tmp143, pxList
 254 001a 1B69     		ldr	r3, [r3, #16]	@ tmp144, pxList_5(D)->xListEnd.pxPrevious
ARM GAS  C:\Users\Grzybek\AppData\Local\Temp\cczfnakc.s 			page 8


 255 001c FB60     		str	r3, [r7, #12]	@ tmp144, pxIterator
 256 001e 0DE0     		b	.L6	@
 257              	.L5:
 146:Source/list.c **** 	}
 147:Source/list.c **** 	else
 148:Source/list.c **** 	{
 149:Source/list.c **** 		/* *** NOTE ***********************************************************
 150:Source/list.c **** 		If you find your application is crashing here then likely causes are:
 151:Source/list.c **** 			1) Stack overflow -
 152:Source/list.c **** 			   see http://www.freertos.org/Stacks-and-stack-overflow-checking.html
 153:Source/list.c **** 			2) Incorrect interrupt priority assignment, especially on Cortex-M3
 154:Source/list.c **** 			   parts where numerically high priority values denote low actual
 155:Source/list.c **** 			   interrupt priories, which can seem counter intuitive.  See
 156:Source/list.c **** 			   configMAX_SYSCALL_INTERRUPT_PRIORITY on http://www.freertos.org/a00110.html
 157:Source/list.c **** 			3) Calling an API function from within a critical section or when
 158:Source/list.c **** 			   the scheduler is suspended.
 159:Source/list.c **** 			4) Using a queue or semaphore before it has been initialised or
 160:Source/list.c **** 			   before the scheduler has been started (are interrupts firing
 161:Source/list.c **** 			   before vTaskStartScheduler() has been called?).
 162:Source/list.c **** 		See http://www.freertos.org/FAQHelp.html for more tips.
 163:Source/list.c **** 		**********************************************************************/
 164:Source/list.c **** 
 165:Source/list.c **** 		for( pxIterator = ( xListItem * ) &( pxList->xListEnd ); pxIterator->pxNext->xItemValue <= xValue
 258              		.loc 1 165 0
 259 0020 7B68     		ldr	r3, [r7, #4]	@ tmp146, pxList
 260 0022 03F10803 		add	r3, r3, #8	@ tmp145, tmp146,
 261 0026 FB60     		str	r3, [r7, #12]	@ tmp145, pxIterator
 262 0028 02E0     		b	.L7	@
 263              	.L8:
 264              		.loc 1 165 0 is_stmt 0 discriminator 2
 265 002a FB68     		ldr	r3, [r7, #12]	@ tmp147, pxIterator
 266 002c 5B68     		ldr	r3, [r3, #4]	@ tmp148, pxIterator_1->pxNext
 267 002e FB60     		str	r3, [r7, #12]	@ tmp148, pxIterator
 268              	.L7:
 269              		.loc 1 165 0 discriminator 1
 270 0030 FB68     		ldr	r3, [r7, #12]	@ tmp149, pxIterator
 271 0032 5B68     		ldr	r3, [r3, #4]	@ D.4743, pxIterator_1->pxNext
 272 0034 1A68     		ldr	r2, [r3, #0]	@ D.4744, D.4743_8->xItemValue
 273 0036 BB68     		ldr	r3, [r7, #8]	@ tmp150, xValueOfInsertion
 274 0038 9A42     		cmp	r2, r3	@ D.4744, tmp150
 275 003a F6D9     		bls	.L8	@,
 276              	.L6:
 166:Source/list.c **** 		{
 167:Source/list.c **** 			/* There is nothing to do here, we are just iterating to the
 168:Source/list.c **** 			wanted insertion position. */
 169:Source/list.c **** 		}
 170:Source/list.c **** 	}
 171:Source/list.c **** 
 172:Source/list.c **** 	pxNewListItem->pxNext = pxIterator->pxNext;
 277              		.loc 1 172 0 is_stmt 1
 278 003c FB68     		ldr	r3, [r7, #12]	@ tmp151, pxIterator
 279 003e 5A68     		ldr	r2, [r3, #4]	@ D.4745, pxIterator_2->pxNext
 280 0040 3B68     		ldr	r3, [r7, #0]	@ tmp152, pxNewListItem
 281 0042 5A60     		str	r2, [r3, #4]	@ D.4745, pxNewListItem_3(D)->pxNext
 173:Source/list.c **** 	pxNewListItem->pxNext->pxPrevious = ( volatile xListItem * ) pxNewListItem;
 282              		.loc 1 173 0
 283 0044 3B68     		ldr	r3, [r7, #0]	@ tmp153, pxNewListItem
ARM GAS  C:\Users\Grzybek\AppData\Local\Temp\cczfnakc.s 			page 9


 284 0046 5B68     		ldr	r3, [r3, #4]	@ D.4746, pxNewListItem_3(D)->pxNext
 285 0048 3A68     		ldr	r2, [r7, #0]	@ tmp154, pxNewListItem
 286 004a 9A60     		str	r2, [r3, #8]	@ tmp154, D.4746_12->pxPrevious
 174:Source/list.c **** 	pxNewListItem->pxPrevious = pxIterator;
 287              		.loc 1 174 0
 288 004c 3B68     		ldr	r3, [r7, #0]	@ tmp155, pxNewListItem
 289 004e FA68     		ldr	r2, [r7, #12]	@ tmp156, pxIterator
 290 0050 9A60     		str	r2, [r3, #8]	@ tmp156, pxNewListItem_3(D)->pxPrevious
 175:Source/list.c **** 	pxIterator->pxNext = ( volatile xListItem * ) pxNewListItem;
 291              		.loc 1 175 0
 292 0052 FB68     		ldr	r3, [r7, #12]	@ tmp157, pxIterator
 293 0054 3A68     		ldr	r2, [r7, #0]	@ tmp158, pxNewListItem
 294 0056 5A60     		str	r2, [r3, #4]	@ tmp158, pxIterator_2->pxNext
 176:Source/list.c **** 
 177:Source/list.c **** 	/* Remember which list the item is in.  This allows fast removal of the
 178:Source/list.c **** 	item later. */
 179:Source/list.c **** 	pxNewListItem->pvContainer = ( void * ) pxList;
 295              		.loc 1 179 0
 296 0058 3B68     		ldr	r3, [r7, #0]	@ tmp159, pxNewListItem
 297 005a 7A68     		ldr	r2, [r7, #4]	@ tmp160, pxList
 298 005c 1A61     		str	r2, [r3, #16]	@ tmp160, pxNewListItem_3(D)->pvContainer
 180:Source/list.c **** 
 181:Source/list.c **** 	( pxList->uxNumberOfItems )++;
 299              		.loc 1 181 0
 300 005e 7B68     		ldr	r3, [r7, #4]	@ tmp161, pxList
 301 0060 1B68     		ldr	r3, [r3, #0]	@ D.4747, pxList_5(D)->uxNumberOfItems
 302 0062 03F10102 		add	r2, r3, #1	@ D.4748, D.4747,
 303 0066 7B68     		ldr	r3, [r7, #4]	@ tmp162, pxList
 304 0068 1A60     		str	r2, [r3, #0]	@ D.4748, pxList_5(D)->uxNumberOfItems
 182:Source/list.c **** }
 305              		.loc 1 182 0
 306 006a 07F11407 		add	r7, r7, #20	@,,
 307 006e BD46     		mov	sp, r7
 308 0070 80BC     		pop	{r7}
 309 0072 7047     		bx	lr
 310              		.cfi_endproc
 311              	.LFE3:
 312              		.size	vListInsert, .-vListInsert
 313              		.section	.text.uxListRemove,"ax",%progbits
 314              		.align	2
 315              		.global	uxListRemove
 316              		.thumb
 317              		.thumb_func
 318              		.type	uxListRemove, %function
 319              	uxListRemove:
 320              	.LFB4:
 183:Source/list.c **** /*-----------------------------------------------------------*/
 184:Source/list.c **** 
 185:Source/list.c **** unsigned portBASE_TYPE uxListRemove( xListItem *pxItemToRemove )
 186:Source/list.c **** {
 321              		.loc 1 186 0
 322              		.cfi_startproc
 323              		@ args = 0, pretend = 0, frame = 16
 324              		@ frame_needed = 1, uses_anonymous_args = 0
 325              		@ link register save eliminated.
 326 0000 80B4     		push	{r7}	@
 327              	.LCFI12:
ARM GAS  C:\Users\Grzybek\AppData\Local\Temp\cczfnakc.s 			page 10


 328              		.cfi_def_cfa_offset 4
 329              		.cfi_offset 7, -4
 330 0002 85B0     		sub	sp, sp, #20	@,,
 331              	.LCFI13:
 332              		.cfi_def_cfa_offset 24
 333 0004 00AF     		add	r7, sp, #0	@,,
 334              	.LCFI14:
 335              		.cfi_def_cfa_register 7
 336 0006 7860     		str	r0, [r7, #4]	@ pxItemToRemove, pxItemToRemove
 187:Source/list.c **** xList * pxList;
 188:Source/list.c **** 
 189:Source/list.c **** 	pxItemToRemove->pxNext->pxPrevious = pxItemToRemove->pxPrevious;
 337              		.loc 1 189 0
 338 0008 7B68     		ldr	r3, [r7, #4]	@ tmp144, pxItemToRemove
 339 000a 5B68     		ldr	r3, [r3, #4]	@ D.4728, pxItemToRemove_1(D)->pxNext
 340 000c 7A68     		ldr	r2, [r7, #4]	@ tmp145, pxItemToRemove
 341 000e 9268     		ldr	r2, [r2, #8]	@ D.4729, pxItemToRemove_1(D)->pxPrevious
 342 0010 9A60     		str	r2, [r3, #8]	@ D.4729, D.4728_2->pxPrevious
 190:Source/list.c **** 	pxItemToRemove->pxPrevious->pxNext = pxItemToRemove->pxNext;
 343              		.loc 1 190 0
 344 0012 7B68     		ldr	r3, [r7, #4]	@ tmp146, pxItemToRemove
 345 0014 9B68     		ldr	r3, [r3, #8]	@ D.4730, pxItemToRemove_1(D)->pxPrevious
 346 0016 7A68     		ldr	r2, [r7, #4]	@ tmp147, pxItemToRemove
 347 0018 5268     		ldr	r2, [r2, #4]	@ D.4731, pxItemToRemove_1(D)->pxNext
 348 001a 5A60     		str	r2, [r3, #4]	@ D.4731, D.4730_4->pxNext
 191:Source/list.c **** 
 192:Source/list.c **** 	/* The list item knows which list it is in.  Obtain the list from the list
 193:Source/list.c **** 	item. */
 194:Source/list.c **** 	pxList = ( xList * ) pxItemToRemove->pvContainer;
 349              		.loc 1 194 0
 350 001c 7B68     		ldr	r3, [r7, #4]	@ tmp148, pxItemToRemove
 351 001e 1B69     		ldr	r3, [r3, #16]	@ tmp149, pxItemToRemove_1(D)->pvContainer
 352 0020 FB60     		str	r3, [r7, #12]	@ tmp149, pxList
 195:Source/list.c **** 
 196:Source/list.c **** 	/* Make sure the index is left pointing to a valid item. */
 197:Source/list.c **** 	if( pxList->pxIndex == pxItemToRemove )
 353              		.loc 1 197 0
 354 0022 FB68     		ldr	r3, [r7, #12]	@ tmp150, pxList
 355 0024 5A68     		ldr	r2, [r3, #4]	@ D.4732, pxList_6->pxIndex
 356 0026 7B68     		ldr	r3, [r7, #4]	@ tmp151, pxItemToRemove
 357 0028 9A42     		cmp	r2, r3	@ D.4732, tmp151
 358 002a 03D1     		bne	.L10	@,
 198:Source/list.c **** 	{
 199:Source/list.c **** 		pxList->pxIndex = pxItemToRemove->pxPrevious;
 359              		.loc 1 199 0
 360 002c 7B68     		ldr	r3, [r7, #4]	@ tmp152, pxItemToRemove
 361 002e 9A68     		ldr	r2, [r3, #8]	@ D.4735, pxItemToRemove_1(D)->pxPrevious
 362 0030 FB68     		ldr	r3, [r7, #12]	@ tmp153, pxList
 363 0032 5A60     		str	r2, [r3, #4]	@ D.4735, pxList_6->pxIndex
 364              	.L10:
 200:Source/list.c **** 	}
 201:Source/list.c **** 
 202:Source/list.c **** 	pxItemToRemove->pvContainer = NULL;
 365              		.loc 1 202 0
 366 0034 7B68     		ldr	r3, [r7, #4]	@ tmp154, pxItemToRemove
 367 0036 4FF00002 		mov	r2, #0	@ tmp155,
 368 003a 1A61     		str	r2, [r3, #16]	@ tmp155, pxItemToRemove_1(D)->pvContainer
ARM GAS  C:\Users\Grzybek\AppData\Local\Temp\cczfnakc.s 			page 11


 203:Source/list.c **** 	( pxList->uxNumberOfItems )--;
 369              		.loc 1 203 0
 370 003c FB68     		ldr	r3, [r7, #12]	@ tmp156, pxList
 371 003e 1B68     		ldr	r3, [r3, #0]	@ D.4736, pxList_6->uxNumberOfItems
 372 0040 03F1FF32 		add	r2, r3, #-1	@ D.4737, D.4736,
 373 0044 FB68     		ldr	r3, [r7, #12]	@ tmp157, pxList
 374 0046 1A60     		str	r2, [r3, #0]	@ D.4737, pxList_6->uxNumberOfItems
 204:Source/list.c **** 
 205:Source/list.c **** 	return pxList->uxNumberOfItems;
 375              		.loc 1 205 0
 376 0048 FB68     		ldr	r3, [r7, #12]	@ tmp158, pxList
 377 004a 1B68     		ldr	r3, [r3, #0]	@ D.4738, pxList_6->uxNumberOfItems
 206:Source/list.c **** }
 378              		.loc 1 206 0
 379 004c 1846     		mov	r0, r3	@, <retval>
 380 004e 07F11407 		add	r7, r7, #20	@,,
 381 0052 BD46     		mov	sp, r7
 382 0054 80BC     		pop	{r7}
 383 0056 7047     		bx	lr
 384              		.cfi_endproc
 385              	.LFE4:
 386              		.size	uxListRemove, .-uxListRemove
 387              		.text
 388              	.Letext0:
 389              		.file 2 "./Source/include/list.h"
 390              		.file 3 "./Source/include/../../Source/portable/GCC/ARM_CM3/portmacro.h"