ARM GAS  C:\Users\Grzybek\AppData\Local\Temp\ccXBk3wH.s 			page 1


   1              		.syntax unified
   2              		.cpu cortex-m3
   3              		.fpu softvfp
   4              		.eabi_attribute 20, 1	@ Tag_ABI_FP_denormal
   5              		.eabi_attribute 21, 1	@ Tag_ABI_FP_exceptions
   6              		.eabi_attribute 23, 3	@ Tag_ABI_FP_number_model
   7              		.eabi_attribute 24, 1	@ Tag_ABI_align8_needed
   8              		.eabi_attribute 25, 1	@ Tag_ABI_align8_preserved
   9              		.eabi_attribute 26, 1	@ Tag_ABI_enum_size
  10              		.eabi_attribute 30, 6	@ Tag_ABI_optimization_goals
  11              		.eabi_attribute 34, 1	@ Tag_CPU_unaligned_access
  12              		.eabi_attribute 18, 4	@ Tag_ABI_PCS_wchar_t
  13              		.file	"queue.c"
  14              	@ GNU C (Sourcery CodeBench Lite 2012.09-63) version 4.7.2 (arm-none-eabi)
  15              	@	compiled by GNU C version 4.3.2, GMP version 5.0.5, MPFR version 3.1.1-p2, MPC version 1.0.1
  16              	@ GGC heuristics: --param ggc-min-expand=100 --param ggc-min-heapsize=131072
  17              	@ options passed:  -I . -I ./STCode -I ./Source/include
  18              	@ -I ./Source/portable/GCC/ARM_CM3 -I ./Common/include
  19              	@ -I ./Common/drivers/ST/STM32F10xFWLib/v3_2_0/Libraries/STM32F10x_StdPeriph_Driver/inc
  20              	@ -I ./Common/drivers/ST/STM32F10xFWLib/v3_2_0/Libraries/CMSIS/CM3/CoreSupport
  21              	@ -I ./Common/drivers/ST/STM32F10xFWLib/v3_2_0/Libraries/CMSIS/CM3/DeviceSupport/ST/STM32F10x
  22              	@ -imultilib thumb2
  23              	@ -iprefix c:\codesourcery\sourcery_codebench_lite_for_arm_eabi\bin\../lib/gcc/arm-none-eabi/4.7.2/
  24              	@ -isysroot c:\codesourcery\sourcery_codebench_lite_for_arm_eabi\bin\../arm-none-eabi
  25              	@ -D__USES_INITFINI__ -D STM32F10X_HD -D USE_STDPERIPH_DRIVER
  26              	@ -D VECT_TAB_FLASH -D GCC_ARMCM3 -D inline=
  27              	@ -D PACK_STRUCT_END=__attribute((packed))
  28              	@ -D ALIGN_STRUCT_END=__attribute((aligned(4)))
  29              	@ -D __CS_SOURCERYGXX_MAJ__=2012 -D __CS_SOURCERYGXX_MIN__=9
  30              	@ -D __CS_SOURCERYGXX_REV__=63 Source/queue.c -mthumb -mcpu=cortex-m3
  31              	@ -auxbase-strip Debug/queue.o -g3 -gdwarf-2 -O0 -std=gnu99
  32              	@ -ffunction-sections -fdata-sections -fmessage-length=0 -fverbose-asm
  33              	@ options enabled:  -fauto-inc-dec -fbranch-count-reg -fcommon
  34              	@ -fdata-sections -fdebug-types-section -fdelete-null-pointer-checks
  35              	@ -fdwarf2-cfi-asm -fearly-inlining -feliminate-unused-debug-types
  36              	@ -ffunction-cse -ffunction-sections -fgcse-lm -fgnu-runtime -fident
  37              	@ -finline-atomics -fira-share-save-slots -fira-share-spill-slots -fivopts
  38              	@ -fkeep-static-consts -fleading-underscore -fmath-errno
  39              	@ -fmerge-debug-strings -fmove-loop-invariants -fpeephole
  40              	@ -fprefetch-loop-arrays -freg-struct-return
  41              	@ -fsched-critical-path-heuristic -fsched-dep-count-heuristic
  42              	@ -fsched-group-heuristic -fsched-interblock -fsched-last-insn-heuristic
  43              	@ -fsched-rank-heuristic -fsched-spec -fsched-spec-insn-heuristic
  44              	@ -fsched-stalled-insns-dep -fshow-column -fsigned-zeros
  45              	@ -fsplit-ivs-in-unroller -fstrict-volatile-bitfields -ftrapping-math
  46              	@ -ftree-cselim -ftree-forwprop -ftree-loop-if-convert -ftree-loop-im
  47              	@ -ftree-loop-ivcanon -ftree-loop-optimize -ftree-parallelize-loops=
  48              	@ -ftree-phiprop -ftree-pta -ftree-reassoc -ftree-scev-cprop
  49              	@ -ftree-slp-vectorize -ftree-vect-loop-version -funit-at-a-time
  50              	@ -fverbose-asm -fzero-initialized-in-bss -mfix-cortex-m3-ldrd
  51              	@ -mlittle-endian -msched-prolog -mthumb -munaligned-access
  52              	@ -mvectorize-with-neon-quad
  53              	
  54              		.text
  55              	.Ltext0:
  56              		.cfi_sections	.debug_frame
  57              		.section	.text.xQueueGenericReset,"ax",%progbits
ARM GAS  C:\Users\Grzybek\AppData\Local\Temp\ccXBk3wH.s 			page 2


  58              		.align	2
  59              		.global	xQueueGenericReset
  60              		.thumb
  61              		.thumb_func
  62              		.type	xQueueGenericReset, %function
  63              	xQueueGenericReset:
  64              	.LFB0:
  65              		.file 1 "Source/queue.c"
   1:Source/queue.c **** /*
   2:Source/queue.c ****     FreeRTOS V7.3.0 - Copyright (C) 2012 Real Time Engineers Ltd.
   3:Source/queue.c **** 
   4:Source/queue.c ****     FEATURES AND PORTS ARE ADDED TO FREERTOS ALL THE TIME.  PLEASE VISIT 
   5:Source/queue.c ****     http://www.FreeRTOS.org TO ENSURE YOU ARE USING THE LATEST VERSION.
   6:Source/queue.c **** 
   7:Source/queue.c ****     ***************************************************************************
   8:Source/queue.c ****      *                                                                       *
   9:Source/queue.c ****      *    FreeRTOS tutorial books are available in pdf and paperback.        *
  10:Source/queue.c ****      *    Complete, revised, and edited pdf reference manuals are also       *
  11:Source/queue.c ****      *    available.                                                         *
  12:Source/queue.c ****      *                                                                       *
  13:Source/queue.c ****      *    Purchasing FreeRTOS documentation will not only help you, by       *
  14:Source/queue.c ****      *    ensuring you get running as quickly as possible and with an        *
  15:Source/queue.c ****      *    in-depth knowledge of how to use FreeRTOS, it will also help       *
  16:Source/queue.c ****      *    the FreeRTOS project to continue with its mission of providing     *
  17:Source/queue.c ****      *    professional grade, cross platform, de facto standard solutions    *
  18:Source/queue.c ****      *    for microcontrollers - completely free of charge!                  *
  19:Source/queue.c ****      *                                                                       *
  20:Source/queue.c ****      *    >>> See http://www.FreeRTOS.org/Documentation for details. <<<     *
  21:Source/queue.c ****      *                                                                       *
  22:Source/queue.c ****      *    Thank you for using FreeRTOS, and thank you for your support!      *
  23:Source/queue.c ****      *                                                                       *
  24:Source/queue.c ****     ***************************************************************************
  25:Source/queue.c **** 
  26:Source/queue.c **** 
  27:Source/queue.c ****     This file is part of the FreeRTOS distribution.
  28:Source/queue.c **** 
  29:Source/queue.c ****     FreeRTOS is free software; you can redistribute it and/or modify it under
  30:Source/queue.c ****     the terms of the GNU General Public License (version 2) as published by the
  31:Source/queue.c ****     Free Software Foundation AND MODIFIED BY the FreeRTOS exception.
  32:Source/queue.c ****     >>>NOTE<<< The modification to the GPL is included to allow you to
  33:Source/queue.c ****     distribute a combined work that includes FreeRTOS without being obliged to
  34:Source/queue.c ****     provide the source code for proprietary components outside of the FreeRTOS
  35:Source/queue.c ****     kernel.  FreeRTOS is distributed in the hope that it will be useful, but
  36:Source/queue.c ****     WITHOUT ANY WARRANTY; without even the implied warranty of MERCHANTABILITY
  37:Source/queue.c ****     or FITNESS FOR A PARTICULAR PURPOSE.  See the GNU General Public License for
  38:Source/queue.c ****     more details. You should have received a copy of the GNU General Public
  39:Source/queue.c ****     License and the FreeRTOS license exception along with FreeRTOS; if not it
  40:Source/queue.c ****     can be viewed here: http://www.freertos.org/a00114.html and also obtained
  41:Source/queue.c ****     by writing to Richard Barry, contact details for whom are available on the
  42:Source/queue.c ****     FreeRTOS WEB site.
  43:Source/queue.c **** 
  44:Source/queue.c ****     1 tab == 4 spaces!
  45:Source/queue.c ****     
  46:Source/queue.c ****     ***************************************************************************
  47:Source/queue.c ****      *                                                                       *
  48:Source/queue.c ****      *    Having a problem?  Start by reading the FAQ "My application does   *
  49:Source/queue.c ****      *    not run, what could be wrong?"                                     *
ARM GAS  C:\Users\Grzybek\AppData\Local\Temp\ccXBk3wH.s 			page 3


  50:Source/queue.c ****      *                                                                       *
  51:Source/queue.c ****      *    http://www.FreeRTOS.org/FAQHelp.html                               *
  52:Source/queue.c ****      *                                                                       *
  53:Source/queue.c ****     ***************************************************************************
  54:Source/queue.c **** 
  55:Source/queue.c ****     
  56:Source/queue.c ****     http://www.FreeRTOS.org - Documentation, training, latest versions, license 
  57:Source/queue.c ****     and contact details.  
  58:Source/queue.c ****     
  59:Source/queue.c ****     http://www.FreeRTOS.org/plus - A selection of FreeRTOS ecosystem products,
  60:Source/queue.c ****     including FreeRTOS+Trace - an indispensable productivity tool.
  61:Source/queue.c **** 
  62:Source/queue.c ****     Real Time Engineers ltd license FreeRTOS to High Integrity Systems, who sell 
  63:Source/queue.c ****     the code with commercial support, indemnification, and middleware, under 
  64:Source/queue.c ****     the OpenRTOS brand: http://www.OpenRTOS.com.  High Integrity Systems also
  65:Source/queue.c ****     provide a safety engineered and independently SIL3 certified version under 
  66:Source/queue.c ****     the SafeRTOS brand: http://www.SafeRTOS.com.
  67:Source/queue.c **** */
  68:Source/queue.c **** 
  69:Source/queue.c **** #include <stdlib.h>
  70:Source/queue.c **** #include <string.h>
  71:Source/queue.c **** 
  72:Source/queue.c **** /* Defining MPU_WRAPPERS_INCLUDED_FROM_API_FILE prevents task.h from redefining
  73:Source/queue.c **** all the API functions to use the MPU wrappers.  That should only be done when
  74:Source/queue.c **** task.h is included from an application file. */
  75:Source/queue.c **** #define MPU_WRAPPERS_INCLUDED_FROM_API_FILE
  76:Source/queue.c **** 
  77:Source/queue.c **** #include "FreeRTOS.h"
  78:Source/queue.c **** #include "task.h"
  79:Source/queue.c **** 
  80:Source/queue.c **** #if ( configUSE_CO_ROUTINES == 1 )
  81:Source/queue.c **** 	#include "croutine.h"
  82:Source/queue.c **** #endif
  83:Source/queue.c **** 
  84:Source/queue.c **** #undef MPU_WRAPPERS_INCLUDED_FROM_API_FILE
  85:Source/queue.c **** 
  86:Source/queue.c **** /*-----------------------------------------------------------
  87:Source/queue.c ****  * PUBLIC LIST API documented in list.h
  88:Source/queue.c ****  *----------------------------------------------------------*/
  89:Source/queue.c **** 
  90:Source/queue.c **** /* Constants used with the cRxLock and xTxLock structure members. */
  91:Source/queue.c **** #define queueUNLOCKED					( ( signed portBASE_TYPE ) -1 )
  92:Source/queue.c **** #define queueLOCKED_UNMODIFIED			( ( signed portBASE_TYPE ) 0 )
  93:Source/queue.c **** 
  94:Source/queue.c **** #define queueERRONEOUS_UNBLOCK			( -1 )
  95:Source/queue.c **** 
  96:Source/queue.c **** /* For internal use only. */
  97:Source/queue.c **** #define	queueSEND_TO_BACK				( 0 )
  98:Source/queue.c **** #define	queueSEND_TO_FRONT				( 1 )
  99:Source/queue.c **** 
 100:Source/queue.c **** /* Effectively make a union out of the xQUEUE structure. */
 101:Source/queue.c **** #define pxMutexHolder					pcTail
 102:Source/queue.c **** #define uxQueueType						pcHead
 103:Source/queue.c **** #define uxRecursiveCallCount			pcReadFrom
 104:Source/queue.c **** #define queueQUEUE_IS_MUTEX				NULL
 105:Source/queue.c **** 
 106:Source/queue.c **** /* Semaphores do not actually store or copy data, so have an items size of
ARM GAS  C:\Users\Grzybek\AppData\Local\Temp\ccXBk3wH.s 			page 4


 107:Source/queue.c **** zero. */
 108:Source/queue.c **** #define queueSEMAPHORE_QUEUE_ITEM_LENGTH ( ( unsigned portBASE_TYPE ) 0 )
 109:Source/queue.c **** #define queueDONT_BLOCK					 ( ( portTickType ) 0U )
 110:Source/queue.c **** #define queueMUTEX_GIVE_BLOCK_TIME		 ( ( portTickType ) 0U )
 111:Source/queue.c **** 
 112:Source/queue.c **** /* These definitions *must* match those in queue.h. */
 113:Source/queue.c **** #define queueQUEUE_TYPE_BASE				( 0U )
 114:Source/queue.c **** #define queueQUEUE_TYPE_MUTEX 				( 1U )
 115:Source/queue.c **** #define queueQUEUE_TYPE_COUNTING_SEMAPHORE	( 2U )
 116:Source/queue.c **** #define queueQUEUE_TYPE_BINARY_SEMAPHORE	( 3U )
 117:Source/queue.c **** #define queueQUEUE_TYPE_RECURSIVE_MUTEX		( 4U )
 118:Source/queue.c **** 
 119:Source/queue.c **** /*
 120:Source/queue.c ****  * Definition of the queue used by the scheduler.
 121:Source/queue.c ****  * Items are queued by copy, not reference.
 122:Source/queue.c ****  */
 123:Source/queue.c **** typedef struct QueueDefinition
 124:Source/queue.c **** {
 125:Source/queue.c **** 	signed char *pcHead;				/*< Points to the beginning of the queue storage area. */
 126:Source/queue.c **** 	signed char *pcTail;				/*< Points to the byte at the end of the queue storage area.  Once more by
 127:Source/queue.c **** 
 128:Source/queue.c **** 	signed char *pcWriteTo;				/*< Points to the free next place in the storage area. */
 129:Source/queue.c **** 	signed char *pcReadFrom;			/*< Points to the last place that a queued item was read from. */
 130:Source/queue.c **** 
 131:Source/queue.c **** 	xList xTasksWaitingToSend;				/*< List of tasks that are blocked waiting to post onto this queue. 
 132:Source/queue.c **** 	xList xTasksWaitingToReceive;			/*< List of tasks that are blocked waiting to read from this queue
 133:Source/queue.c **** 
 134:Source/queue.c **** 	volatile unsigned portBASE_TYPE uxMessagesWaiting;/*< The number of items currently in the queue. 
 135:Source/queue.c **** 	unsigned portBASE_TYPE uxLength;		/*< The length of the queue defined as the number of items it wi
 136:Source/queue.c **** 	unsigned portBASE_TYPE uxItemSize;		/*< The size of each items that the queue will hold. */
 137:Source/queue.c **** 
 138:Source/queue.c **** 	volatile signed portBASE_TYPE xRxLock;	/*< Stores the number of items received from the queue (rem
 139:Source/queue.c **** 	volatile signed portBASE_TYPE xTxLock;	/*< Stores the number of items transmitted to the queue (ad
 140:Source/queue.c **** 
 141:Source/queue.c **** 	#if ( configUSE_TRACE_FACILITY == 1 )
 142:Source/queue.c **** 		unsigned char ucQueueNumber;
 143:Source/queue.c **** 		unsigned char ucQueueType;
 144:Source/queue.c **** 	#endif
 145:Source/queue.c **** 
 146:Source/queue.c **** } xQUEUE;
 147:Source/queue.c **** /*-----------------------------------------------------------*/
 148:Source/queue.c **** 
 149:Source/queue.c **** /*
 150:Source/queue.c ****  * Inside this file xQueueHandle is a pointer to a xQUEUE structure.
 151:Source/queue.c ****  * To keep the definition private the API header file defines it as a
 152:Source/queue.c ****  * pointer to void.
 153:Source/queue.c ****  */
 154:Source/queue.c **** typedef xQUEUE * xQueueHandle;
 155:Source/queue.c **** 
 156:Source/queue.c **** /*
 157:Source/queue.c ****  * Prototypes for public functions are included here so we don't have to
 158:Source/queue.c ****  * include the API header file (as it defines xQueueHandle differently).  These
 159:Source/queue.c ****  * functions are documented in the API header file.
 160:Source/queue.c ****  */
 161:Source/queue.c **** xQueueHandle xQueueGenericCreate( unsigned portBASE_TYPE uxQueueLength, unsigned portBASE_TYPE uxIt
 162:Source/queue.c **** signed portBASE_TYPE xQueueGenericSend( xQueueHandle pxQueue, const void * const pvItemToQueue, por
 163:Source/queue.c **** unsigned portBASE_TYPE uxQueueMessagesWaiting( const xQueueHandle pxQueue ) PRIVILEGED_FUNCTION;
ARM GAS  C:\Users\Grzybek\AppData\Local\Temp\ccXBk3wH.s 			page 5


 164:Source/queue.c **** void vQueueDelete( xQueueHandle xQueue ) PRIVILEGED_FUNCTION;
 165:Source/queue.c **** signed portBASE_TYPE xQueueGenericSendFromISR( xQueueHandle pxQueue, const void * const pvItemToQue
 166:Source/queue.c **** signed portBASE_TYPE xQueueGenericReceive( xQueueHandle pxQueue, void * const pvBuffer, portTickTyp
 167:Source/queue.c **** signed portBASE_TYPE xQueueReceiveFromISR( xQueueHandle pxQueue, void * const pvBuffer, signed port
 168:Source/queue.c **** xQueueHandle xQueueCreateMutex( unsigned char ucQueueType ) PRIVILEGED_FUNCTION;
 169:Source/queue.c **** xQueueHandle xQueueCreateCountingSemaphore( unsigned portBASE_TYPE uxCountValue, unsigned portBASE_
 170:Source/queue.c **** portBASE_TYPE xQueueTakeMutexRecursive( xQueueHandle xMutex, portTickType xBlockTime ) PRIVILEGED_F
 171:Source/queue.c **** portBASE_TYPE xQueueGiveMutexRecursive( xQueueHandle xMutex ) PRIVILEGED_FUNCTION;
 172:Source/queue.c **** signed portBASE_TYPE xQueueAltGenericSend( xQueueHandle pxQueue, const void * const pvItemToQueue, 
 173:Source/queue.c **** signed portBASE_TYPE xQueueAltGenericReceive( xQueueHandle pxQueue, void * const pvBuffer, portTick
 174:Source/queue.c **** signed portBASE_TYPE xQueueIsQueueEmptyFromISR( const xQueueHandle pxQueue ) PRIVILEGED_FUNCTION;
 175:Source/queue.c **** signed portBASE_TYPE xQueueIsQueueFullFromISR( const xQueueHandle pxQueue ) PRIVILEGED_FUNCTION;
 176:Source/queue.c **** unsigned portBASE_TYPE uxQueueMessagesWaitingFromISR( const xQueueHandle pxQueue ) PRIVILEGED_FUNCT
 177:Source/queue.c **** void vQueueWaitForMessageRestricted( xQueueHandle pxQueue, portTickType xTicksToWait ) PRIVILEGED_F
 178:Source/queue.c **** unsigned char ucQueueGetQueueNumber( xQueueHandle pxQueue ) PRIVILEGED_FUNCTION;
 179:Source/queue.c **** void vQueueSetQueueNumber( xQueueHandle pxQueue, unsigned char ucQueueNumber ) PRIVILEGED_FUNCTION;
 180:Source/queue.c **** unsigned char ucQueueGetQueueType( xQueueHandle pxQueue ) PRIVILEGED_FUNCTION;
 181:Source/queue.c **** portBASE_TYPE xQueueGenericReset( xQueueHandle pxQueue, portBASE_TYPE xNewQueue ) PRIVILEGED_FUNCTI
 182:Source/queue.c **** xTaskHandle xQueueGetMutexHolder( xQueueHandle xSemaphore ) PRIVILEGED_FUNCTION;
 183:Source/queue.c **** 
 184:Source/queue.c **** /*
 185:Source/queue.c ****  * Co-routine queue functions differ from task queue functions.  Co-routines are
 186:Source/queue.c ****  * an optional component.
 187:Source/queue.c ****  */
 188:Source/queue.c **** #if configUSE_CO_ROUTINES == 1
 189:Source/queue.c **** 	signed portBASE_TYPE xQueueCRSendFromISR( xQueueHandle pxQueue, const void *pvItemToQueue, signed 
 190:Source/queue.c **** 	signed portBASE_TYPE xQueueCRReceiveFromISR( xQueueHandle pxQueue, void *pvBuffer, signed portBASE
 191:Source/queue.c **** 	signed portBASE_TYPE xQueueCRSend( xQueueHandle pxQueue, const void *pvItemToQueue, portTickType x
 192:Source/queue.c **** 	signed portBASE_TYPE xQueueCRReceive( xQueueHandle pxQueue, void *pvBuffer, portTickType xTicksToW
 193:Source/queue.c **** #endif
 194:Source/queue.c **** 
 195:Source/queue.c **** /*
 196:Source/queue.c ****  * The queue registry is just a means for kernel aware debuggers to locate
 197:Source/queue.c ****  * queue structures.  It has no other purpose so is an optional component.
 198:Source/queue.c ****  */
 199:Source/queue.c **** #if configQUEUE_REGISTRY_SIZE > 0
 200:Source/queue.c **** 
 201:Source/queue.c **** 	/* The type stored within the queue registry array.  This allows a name
 202:Source/queue.c **** 	to be assigned to each queue making kernel aware debugging a little
 203:Source/queue.c **** 	more user friendly. */
 204:Source/queue.c **** 	typedef struct QUEUE_REGISTRY_ITEM
 205:Source/queue.c **** 	{
 206:Source/queue.c **** 		signed char *pcQueueName;
 207:Source/queue.c **** 		xQueueHandle xHandle;
 208:Source/queue.c **** 	} xQueueRegistryItem;
 209:Source/queue.c **** 
 210:Source/queue.c **** 	/* The queue registry is simply an array of xQueueRegistryItem structures.
 211:Source/queue.c **** 	The pcQueueName member of a structure being NULL is indicative of the
 212:Source/queue.c **** 	array position being vacant. */
 213:Source/queue.c **** 	xQueueRegistryItem xQueueRegistry[ configQUEUE_REGISTRY_SIZE ];
 214:Source/queue.c **** 
 215:Source/queue.c **** 	/* Removes a queue from the registry by simply setting the pcQueueName
 216:Source/queue.c **** 	member to NULL. */
 217:Source/queue.c **** 	static void vQueueUnregisterQueue( xQueueHandle xQueue ) PRIVILEGED_FUNCTION;
 218:Source/queue.c **** 	void vQueueAddToRegistry( xQueueHandle xQueue, signed char *pcQueueName ) PRIVILEGED_FUNCTION;
 219:Source/queue.c **** #endif
 220:Source/queue.c **** 
ARM GAS  C:\Users\Grzybek\AppData\Local\Temp\ccXBk3wH.s 			page 6


 221:Source/queue.c **** /*
 222:Source/queue.c ****  * Unlocks a queue locked by a call to prvLockQueue.  Locking a queue does not
 223:Source/queue.c ****  * prevent an ISR from adding or removing items to the queue, but does prevent
 224:Source/queue.c ****  * an ISR from removing tasks from the queue event lists.  If an ISR finds a
 225:Source/queue.c ****  * queue is locked it will instead increment the appropriate queue lock count
 226:Source/queue.c ****  * to indicate that a task may require unblocking.  When the queue in unlocked
 227:Source/queue.c ****  * these lock counts are inspected, and the appropriate action taken.
 228:Source/queue.c ****  */
 229:Source/queue.c **** static void prvUnlockQueue( xQueueHandle pxQueue ) PRIVILEGED_FUNCTION;
 230:Source/queue.c **** 
 231:Source/queue.c **** /*
 232:Source/queue.c ****  * Uses a critical section to determine if there is any data in a queue.
 233:Source/queue.c ****  *
 234:Source/queue.c ****  * @return pdTRUE if the queue contains no items, otherwise pdFALSE.
 235:Source/queue.c ****  */
 236:Source/queue.c **** static signed portBASE_TYPE prvIsQueueEmpty( const xQueueHandle pxQueue ) PRIVILEGED_FUNCTION;
 237:Source/queue.c **** 
 238:Source/queue.c **** /*
 239:Source/queue.c ****  * Uses a critical section to determine if there is any space in a queue.
 240:Source/queue.c ****  *
 241:Source/queue.c ****  * @return pdTRUE if there is no space, otherwise pdFALSE;
 242:Source/queue.c ****  */
 243:Source/queue.c **** static signed portBASE_TYPE prvIsQueueFull( const xQueueHandle pxQueue ) PRIVILEGED_FUNCTION;
 244:Source/queue.c **** 
 245:Source/queue.c **** /*
 246:Source/queue.c ****  * Copies an item into the queue, either at the front of the queue or the
 247:Source/queue.c ****  * back of the queue.
 248:Source/queue.c ****  */
 249:Source/queue.c **** static void prvCopyDataToQueue( xQUEUE *pxQueue, const void *pvItemToQueue, portBASE_TYPE xPosition
 250:Source/queue.c **** 
 251:Source/queue.c **** /*
 252:Source/queue.c ****  * Copies an item out of a queue.
 253:Source/queue.c ****  */
 254:Source/queue.c **** static void prvCopyDataFromQueue( xQUEUE * const pxQueue, const void *pvBuffer ) PRIVILEGED_FUNCTIO
 255:Source/queue.c **** /*-----------------------------------------------------------*/
 256:Source/queue.c **** 
 257:Source/queue.c **** /*
 258:Source/queue.c ****  * Macro to mark a queue as locked.  Locking a queue prevents an ISR from
 259:Source/queue.c ****  * accessing the queue event lists.
 260:Source/queue.c ****  */
 261:Source/queue.c **** #define prvLockQueue( pxQueue )								\
 262:Source/queue.c **** 	taskENTER_CRITICAL();									\
 263:Source/queue.c **** 	{														\
 264:Source/queue.c **** 		if( ( pxQueue )->xRxLock == queueUNLOCKED )			\
 265:Source/queue.c **** 		{													\
 266:Source/queue.c **** 			( pxQueue )->xRxLock = queueLOCKED_UNMODIFIED;	\
 267:Source/queue.c **** 		}													\
 268:Source/queue.c **** 		if( ( pxQueue )->xTxLock == queueUNLOCKED )			\
 269:Source/queue.c **** 		{													\
 270:Source/queue.c **** 			( pxQueue )->xTxLock = queueLOCKED_UNMODIFIED;	\
 271:Source/queue.c **** 		}													\
 272:Source/queue.c **** 	}														\
 273:Source/queue.c **** 	taskEXIT_CRITICAL()
 274:Source/queue.c **** /*-----------------------------------------------------------*/
 275:Source/queue.c **** 
 276:Source/queue.c **** 
 277:Source/queue.c **** /*-----------------------------------------------------------
ARM GAS  C:\Users\Grzybek\AppData\Local\Temp\ccXBk3wH.s 			page 7


 278:Source/queue.c ****  * PUBLIC QUEUE MANAGEMENT API documented in queue.h
 279:Source/queue.c ****  *----------------------------------------------------------*/
 280:Source/queue.c **** 
 281:Source/queue.c **** portBASE_TYPE xQueueGenericReset( xQueueHandle pxQueue, portBASE_TYPE xNewQueue )
 282:Source/queue.c **** {
  66              		.loc 1 282 0
  67              		.cfi_startproc
  68              		@ args = 0, pretend = 0, frame = 8
  69              		@ frame_needed = 1, uses_anonymous_args = 0
  70 0000 80B5     		push	{r7, lr}	@
  71              	.LCFI0:
  72              		.cfi_def_cfa_offset 8
  73              		.cfi_offset 7, -8
  74              		.cfi_offset 14, -4
  75 0002 82B0     		sub	sp, sp, #8	@,,
  76              	.LCFI1:
  77              		.cfi_def_cfa_offset 16
  78 0004 00AF     		add	r7, sp, #0	@,,
  79              	.LCFI2:
  80              		.cfi_def_cfa_register 7
  81 0006 7860     		str	r0, [r7, #4]	@ pxQueue, pxQueue
  82 0008 3960     		str	r1, [r7, #0]	@ xNewQueue, xNewQueue
 283:Source/queue.c **** 	configASSERT( pxQueue );
 284:Source/queue.c **** 
 285:Source/queue.c **** 	taskENTER_CRITICAL();
  83              		.loc 1 285 0
  84 000a FFF7FEFF 		bl	vPortEnterCritical	@
 286:Source/queue.c **** 	{
 287:Source/queue.c **** 		pxQueue->pcTail = pxQueue->pcHead + ( pxQueue->uxLength * pxQueue->uxItemSize );
  85              		.loc 1 287 0
  86 000e 7B68     		ldr	r3, [r7, #4]	@ tmp153, pxQueue
  87 0010 1A68     		ldr	r2, [r3, #0]	@ D.5465, pxQueue_1(D)->pcHead
  88 0012 7B68     		ldr	r3, [r7, #4]	@ tmp154, pxQueue
  89 0014 DB6B     		ldr	r3, [r3, #60]	@ D.5466, pxQueue_1(D)->uxLength
  90 0016 7968     		ldr	r1, [r7, #4]	@ tmp155, pxQueue
  91 0018 096C     		ldr	r1, [r1, #64]	@ D.5467, pxQueue_1(D)->uxItemSize
  92 001a 01FB03F3 		mul	r3, r1, r3	@ D.5468, D.5467, D.5466
  93 001e D218     		adds	r2, r2, r3	@ D.5469, D.5465, D.5468
  94 0020 7B68     		ldr	r3, [r7, #4]	@ tmp156, pxQueue
  95 0022 5A60     		str	r2, [r3, #4]	@ D.5469, pxQueue_1(D)->pcTail
 288:Source/queue.c **** 		pxQueue->uxMessagesWaiting = ( unsigned portBASE_TYPE ) 0U;
  96              		.loc 1 288 0
  97 0024 7B68     		ldr	r3, [r7, #4]	@ tmp157, pxQueue
  98 0026 4FF00002 		mov	r2, #0	@ tmp158,
  99 002a 9A63     		str	r2, [r3, #56]	@ tmp158, pxQueue_1(D)->uxMessagesWaiting
 289:Source/queue.c **** 		pxQueue->pcWriteTo = pxQueue->pcHead;
 100              		.loc 1 289 0
 101 002c 7B68     		ldr	r3, [r7, #4]	@ tmp159, pxQueue
 102 002e 1A68     		ldr	r2, [r3, #0]	@ D.5470, pxQueue_1(D)->pcHead
 103 0030 7B68     		ldr	r3, [r7, #4]	@ tmp160, pxQueue
 104 0032 9A60     		str	r2, [r3, #8]	@ D.5470, pxQueue_1(D)->pcWriteTo
 290:Source/queue.c **** 		pxQueue->pcReadFrom = pxQueue->pcHead + ( ( pxQueue->uxLength - ( unsigned portBASE_TYPE ) 1U ) *
 105              		.loc 1 290 0
 106 0034 7B68     		ldr	r3, [r7, #4]	@ tmp161, pxQueue
 107 0036 1A68     		ldr	r2, [r3, #0]	@ D.5471, pxQueue_1(D)->pcHead
 108 0038 7B68     		ldr	r3, [r7, #4]	@ tmp162, pxQueue
 109 003a DB6B     		ldr	r3, [r3, #60]	@ D.5472, pxQueue_1(D)->uxLength
ARM GAS  C:\Users\Grzybek\AppData\Local\Temp\ccXBk3wH.s 			page 8


 110 003c 03F1FF33 		add	r3, r3, #-1	@ D.5473, D.5472,
 111 0040 7968     		ldr	r1, [r7, #4]	@ tmp163, pxQueue
 112 0042 096C     		ldr	r1, [r1, #64]	@ D.5474, pxQueue_1(D)->uxItemSize
 113 0044 01FB03F3 		mul	r3, r1, r3	@ D.5475, D.5474, D.5473
 114 0048 D218     		adds	r2, r2, r3	@ D.5476, D.5471, D.5475
 115 004a 7B68     		ldr	r3, [r7, #4]	@ tmp164, pxQueue
 116 004c DA60     		str	r2, [r3, #12]	@ D.5476, pxQueue_1(D)->pcReadFrom
 291:Source/queue.c **** 		pxQueue->xRxLock = queueUNLOCKED;
 117              		.loc 1 291 0
 118 004e 7B68     		ldr	r3, [r7, #4]	@ tmp165, pxQueue
 119 0050 4FF0FF32 		mov	r2, #-1	@ tmp166,
 120 0054 5A64     		str	r2, [r3, #68]	@ tmp166, pxQueue_1(D)->xRxLock
 292:Source/queue.c **** 		pxQueue->xTxLock = queueUNLOCKED;
 121              		.loc 1 292 0
 122 0056 7B68     		ldr	r3, [r7, #4]	@ tmp167, pxQueue
 123 0058 4FF0FF32 		mov	r2, #-1	@ tmp168,
 124 005c 9A64     		str	r2, [r3, #72]	@ tmp168, pxQueue_1(D)->xTxLock
 293:Source/queue.c **** 
 294:Source/queue.c **** 		if( xNewQueue == pdFALSE )
 125              		.loc 1 294 0
 126 005e 3B68     		ldr	r3, [r7, #0]	@ tmp169, xNewQueue
 127 0060 002B     		cmp	r3, #0	@ tmp169,
 128 0062 0FD1     		bne	.L2	@,
 295:Source/queue.c **** 		{
 296:Source/queue.c **** 			/* If there are tasks blocked waiting to read from the queue, then
 297:Source/queue.c **** 			the tasks will remain blocked as after this function exits the queue
 298:Source/queue.c **** 			will still be empty.  If there are tasks blocked waiting to	write to
 299:Source/queue.c **** 			the queue, then one should be unblocked as after this function exits
 300:Source/queue.c **** 			it will be possible to write to it. */
 301:Source/queue.c **** 			if( listLIST_IS_EMPTY( &( pxQueue->xTasksWaitingToSend ) ) == pdFALSE )
 129              		.loc 1 301 0
 130 0064 7B68     		ldr	r3, [r7, #4]	@ tmp170, pxQueue
 131 0066 1B69     		ldr	r3, [r3, #16]	@ D.5479, pxQueue_1(D)->xTasksWaitingToSend.uxNumberOfItems
 132 0068 002B     		cmp	r3, #0	@ D.5479,
 133 006a 17D0     		beq	.L3	@,
 302:Source/queue.c **** 			{
 303:Source/queue.c **** 				if( xTaskRemoveFromEventList( &( pxQueue->xTasksWaitingToSend ) ) == pdTRUE )
 134              		.loc 1 303 0
 135 006c 7B68     		ldr	r3, [r7, #4]	@ tmp171, pxQueue
 136 006e 03F11003 		add	r3, r3, #16	@ D.5482, tmp171,
 137 0072 1846     		mov	r0, r3	@, D.5482
 138 0074 FFF7FEFF 		bl	xTaskRemoveFromEventList	@
 139 0078 0346     		mov	r3, r0	@ D.5483,
 140 007a 012B     		cmp	r3, #1	@ D.5483,
 141 007c 0ED1     		bne	.L3	@,
 304:Source/queue.c **** 				{
 305:Source/queue.c **** 					portYIELD_WITHIN_API();
 142              		.loc 1 305 0
 143 007e FFF7FEFF 		bl	vPortYieldFromISR	@
 144 0082 0BE0     		b	.L3	@
 145              	.L2:
 306:Source/queue.c **** 				}
 307:Source/queue.c **** 			}
 308:Source/queue.c **** 		}
 309:Source/queue.c **** 		else
 310:Source/queue.c **** 		{
 311:Source/queue.c **** 			/* Ensure the event queues start in the correct state. */
ARM GAS  C:\Users\Grzybek\AppData\Local\Temp\ccXBk3wH.s 			page 9


 312:Source/queue.c **** 			vListInitialise( &( pxQueue->xTasksWaitingToSend ) );
 146              		.loc 1 312 0
 147 0084 7B68     		ldr	r3, [r7, #4]	@ tmp172, pxQueue
 148 0086 03F11003 		add	r3, r3, #16	@ D.5487, tmp172,
 149 008a 1846     		mov	r0, r3	@, D.5487
 150 008c FFF7FEFF 		bl	vListInitialise	@
 313:Source/queue.c **** 			vListInitialise( &( pxQueue->xTasksWaitingToReceive ) );
 151              		.loc 1 313 0
 152 0090 7B68     		ldr	r3, [r7, #4]	@ tmp173, pxQueue
 153 0092 03F12403 		add	r3, r3, #36	@ D.5488, tmp173,
 154 0096 1846     		mov	r0, r3	@, D.5488
 155 0098 FFF7FEFF 		bl	vListInitialise	@
 156              	.L3:
 314:Source/queue.c **** 		}
 315:Source/queue.c **** 	}
 316:Source/queue.c **** 	taskEXIT_CRITICAL();
 157              		.loc 1 316 0
 158 009c FFF7FEFF 		bl	vPortExitCritical	@
 317:Source/queue.c **** 
 318:Source/queue.c **** 	/* A value is returned for calling semantic consistency with previous
 319:Source/queue.c **** 	versions. */
 320:Source/queue.c **** 	return pdPASS;
 159              		.loc 1 320 0
 160 00a0 4FF00103 		mov	r3, #1	@ D.5489,
 321:Source/queue.c **** }
 161              		.loc 1 321 0
 162 00a4 1846     		mov	r0, r3	@, <retval>
 163 00a6 07F10807 		add	r7, r7, #8	@,,
 164 00aa BD46     		mov	sp, r7
 165 00ac 80BD     		pop	{r7, pc}
 166              		.cfi_endproc
 167              	.LFE0:
 168              		.size	xQueueGenericReset, .-xQueueGenericReset
 169 00ae 00BF     		.section	.text.xQueueGenericCreate,"ax",%progbits
 170              		.align	2
 171              		.global	xQueueGenericCreate
 172              		.thumb
 173              		.thumb_func
 174              		.type	xQueueGenericCreate, %function
 175              	xQueueGenericCreate:
 176              	.LFB1:
 322:Source/queue.c **** /*-----------------------------------------------------------*/
 323:Source/queue.c **** 
 324:Source/queue.c **** xQueueHandle xQueueGenericCreate( unsigned portBASE_TYPE uxQueueLength, unsigned portBASE_TYPE uxIt
 325:Source/queue.c **** {
 177              		.loc 1 325 0
 178              		.cfi_startproc
 179              		@ args = 0, pretend = 0, frame = 32
 180              		@ frame_needed = 1, uses_anonymous_args = 0
 181 0000 80B5     		push	{r7, lr}	@
 182              	.LCFI3:
 183              		.cfi_def_cfa_offset 8
 184              		.cfi_offset 7, -8
 185              		.cfi_offset 14, -4
 186 0002 88B0     		sub	sp, sp, #32	@,,
 187              	.LCFI4:
 188              		.cfi_def_cfa_offset 40
ARM GAS  C:\Users\Grzybek\AppData\Local\Temp\ccXBk3wH.s 			page 10


 189 0004 00AF     		add	r7, sp, #0	@,,
 190              	.LCFI5:
 191              		.cfi_def_cfa_register 7
 192 0006 F860     		str	r0, [r7, #12]	@ uxQueueLength, uxQueueLength
 193 0008 B960     		str	r1, [r7, #8]	@ uxItemSize, uxItemSize
 194 000a 1346     		mov	r3, r2	@ tmp139, ucQueueType
 195 000c FB71     		strb	r3, [r7, #7]	@ tmp140, ucQueueType
 326:Source/queue.c **** xQUEUE *pxNewQueue;
 327:Source/queue.c **** size_t xQueueSizeInBytes;
 328:Source/queue.c **** xQueueHandle xReturn = NULL;
 196              		.loc 1 328 0
 197 000e 4FF00003 		mov	r3, #0	@ tmp141,
 198 0012 FB61     		str	r3, [r7, #28]	@ tmp141, xReturn
 329:Source/queue.c **** 
 330:Source/queue.c **** 	/* Remove compiler warnings about unused parameters should
 331:Source/queue.c **** 	configUSE_TRACE_FACILITY not be set to 1. */
 332:Source/queue.c **** 	( void ) ucQueueType;
 333:Source/queue.c **** 
 334:Source/queue.c **** 	/* Allocate the new queue structure. */
 335:Source/queue.c **** 	if( uxQueueLength > ( unsigned portBASE_TYPE ) 0 )
 199              		.loc 1 335 0
 200 0014 FB68     		ldr	r3, [r7, #12]	@ tmp142, uxQueueLength
 201 0016 002B     		cmp	r3, #0	@ tmp142,
 202 0018 29D0     		beq	.L6	@,
 336:Source/queue.c **** 	{
 337:Source/queue.c **** 		pxNewQueue = ( xQUEUE * ) pvPortMalloc( sizeof( xQUEUE ) );
 203              		.loc 1 337 0
 204 001a 4FF04C00 		mov	r0, #76	@,
 205 001e FFF7FEFF 		bl	pvPortMalloc	@
 206 0022 B861     		str	r0, [r7, #24]	@, pxNewQueue
 338:Source/queue.c **** 		if( pxNewQueue != NULL )
 207              		.loc 1 338 0
 208 0024 BB69     		ldr	r3, [r7, #24]	@ tmp143, pxNewQueue
 209 0026 002B     		cmp	r3, #0	@ tmp143,
 210 0028 21D0     		beq	.L6	@,
 339:Source/queue.c **** 		{
 340:Source/queue.c **** 			/* Create the list of pointers to queue items.  The queue is one byte
 341:Source/queue.c **** 			longer than asked for to make wrap checking easier/faster. */
 342:Source/queue.c **** 			xQueueSizeInBytes = ( size_t ) ( uxQueueLength * uxItemSize ) + ( size_t ) 1;
 211              		.loc 1 342 0
 212 002a FB68     		ldr	r3, [r7, #12]	@ tmp144, uxQueueLength
 213 002c BA68     		ldr	r2, [r7, #8]	@ tmp145, uxItemSize
 214 002e 02FB03F3 		mul	r3, r2, r3	@ D.5457, tmp145, tmp144
 215 0032 03F10103 		add	r3, r3, #1	@ tmp146, D.5457,
 216 0036 7B61     		str	r3, [r7, #20]	@ tmp146, xQueueSizeInBytes
 343:Source/queue.c **** 
 344:Source/queue.c **** 			pxNewQueue->pcHead = ( signed char * ) pvPortMalloc( xQueueSizeInBytes );
 217              		.loc 1 344 0
 218 0038 7869     		ldr	r0, [r7, #20]	@, xQueueSizeInBytes
 219 003a FFF7FEFF 		bl	pvPortMalloc	@
 220 003e 0246     		mov	r2, r0	@ D.5458,
 221 0040 BB69     		ldr	r3, [r7, #24]	@ tmp147, pxNewQueue
 222 0042 1A60     		str	r2, [r3, #0]	@ D.5458, pxNewQueue_4->pcHead
 345:Source/queue.c **** 			if( pxNewQueue->pcHead != NULL )
 223              		.loc 1 345 0
 224 0044 BB69     		ldr	r3, [r7, #24]	@ tmp148, pxNewQueue
 225 0046 1B68     		ldr	r3, [r3, #0]	@ D.5459, pxNewQueue_4->pcHead
ARM GAS  C:\Users\Grzybek\AppData\Local\Temp\ccXBk3wH.s 			page 11


 226 0048 002B     		cmp	r3, #0	@ D.5459,
 227 004a 0DD0     		beq	.L7	@,
 346:Source/queue.c **** 			{
 347:Source/queue.c **** 				/* Initialise the queue members as described above where the
 348:Source/queue.c **** 				queue type is defined. */
 349:Source/queue.c **** 				pxNewQueue->uxLength = uxQueueLength;
 228              		.loc 1 349 0
 229 004c BB69     		ldr	r3, [r7, #24]	@ tmp149, pxNewQueue
 230 004e FA68     		ldr	r2, [r7, #12]	@ tmp150, uxQueueLength
 231 0050 DA63     		str	r2, [r3, #60]	@ tmp150, pxNewQueue_4->uxLength
 350:Source/queue.c **** 				pxNewQueue->uxItemSize = uxItemSize;
 232              		.loc 1 350 0
 233 0052 BB69     		ldr	r3, [r7, #24]	@ tmp151, pxNewQueue
 234 0054 BA68     		ldr	r2, [r7, #8]	@ tmp152, uxItemSize
 235 0056 1A64     		str	r2, [r3, #64]	@ tmp152, pxNewQueue_4->uxItemSize
 351:Source/queue.c **** 				xQueueGenericReset( pxNewQueue, pdTRUE );
 236              		.loc 1 351 0
 237 0058 B869     		ldr	r0, [r7, #24]	@, pxNewQueue
 238 005a 4FF00101 		mov	r1, #1	@,
 239 005e FFF7FEFF 		bl	xQueueGenericReset	@
 352:Source/queue.c **** 				#if ( configUSE_TRACE_FACILITY == 1 )
 353:Source/queue.c **** 				{
 354:Source/queue.c **** 					pxNewQueue->ucQueueType = ucQueueType;
 355:Source/queue.c **** 				}
 356:Source/queue.c **** 				#endif /* configUSE_TRACE_FACILITY */
 357:Source/queue.c **** 
 358:Source/queue.c **** 				traceQUEUE_CREATE( pxNewQueue );
 359:Source/queue.c **** 				xReturn = pxNewQueue;
 240              		.loc 1 359 0
 241 0062 BB69     		ldr	r3, [r7, #24]	@ tmp153, pxNewQueue
 242 0064 FB61     		str	r3, [r7, #28]	@ tmp153, xReturn
 243 0066 02E0     		b	.L6	@
 244              	.L7:
 360:Source/queue.c **** 			}
 361:Source/queue.c **** 			else
 362:Source/queue.c **** 			{
 363:Source/queue.c **** 				traceQUEUE_CREATE_FAILED( ucQueueType );
 364:Source/queue.c **** 				vPortFree( pxNewQueue );
 245              		.loc 1 364 0
 246 0068 B869     		ldr	r0, [r7, #24]	@, pxNewQueue
 247 006a FFF7FEFF 		bl	vPortFree	@
 248              	.L6:
 365:Source/queue.c **** 			}
 366:Source/queue.c **** 		}
 367:Source/queue.c **** 	}
 368:Source/queue.c **** 
 369:Source/queue.c **** 	configASSERT( xReturn );
 370:Source/queue.c **** 
 371:Source/queue.c **** 	return xReturn;
 249              		.loc 1 371 0
 250 006e FB69     		ldr	r3, [r7, #28]	@ D.5463, xReturn
 372:Source/queue.c **** }
 251              		.loc 1 372 0
 252 0070 1846     		mov	r0, r3	@, <retval>
 253 0072 07F12007 		add	r7, r7, #32	@,,
 254 0076 BD46     		mov	sp, r7
 255 0078 80BD     		pop	{r7, pc}
ARM GAS  C:\Users\Grzybek\AppData\Local\Temp\ccXBk3wH.s 			page 12


 256              		.cfi_endproc
 257              	.LFE1:
 258              		.size	xQueueGenericCreate, .-xQueueGenericCreate
 259 007a 00BF     		.section	.text.xQueueCreateMutex,"ax",%progbits
 260              		.align	2
 261              		.global	xQueueCreateMutex
 262              		.thumb
 263              		.thumb_func
 264              		.type	xQueueCreateMutex, %function
 265              	xQueueCreateMutex:
 266              	.LFB2:
 373:Source/queue.c **** /*-----------------------------------------------------------*/
 374:Source/queue.c **** 
 375:Source/queue.c **** #if ( configUSE_MUTEXES == 1 )
 376:Source/queue.c **** 
 377:Source/queue.c **** 	xQueueHandle xQueueCreateMutex( unsigned char ucQueueType )
 378:Source/queue.c **** 	{
 267              		.loc 1 378 0
 268              		.cfi_startproc
 269              		@ args = 0, pretend = 0, frame = 16
 270              		@ frame_needed = 1, uses_anonymous_args = 0
 271 0000 80B5     		push	{r7, lr}	@
 272              	.LCFI6:
 273              		.cfi_def_cfa_offset 8
 274              		.cfi_offset 7, -8
 275              		.cfi_offset 14, -4
 276 0002 84B0     		sub	sp, sp, #16	@,,
 277              	.LCFI7:
 278              		.cfi_def_cfa_offset 24
 279 0004 00AF     		add	r7, sp, #0	@,,
 280              	.LCFI8:
 281              		.cfi_def_cfa_register 7
 282 0006 0346     		mov	r3, r0	@ tmp138, ucQueueType
 283 0008 FB71     		strb	r3, [r7, #7]	@ tmp139, ucQueueType
 379:Source/queue.c **** 	xQUEUE *pxNewQueue;
 380:Source/queue.c **** 
 381:Source/queue.c **** 		/* Prevent compiler warnings about unused parameters if
 382:Source/queue.c **** 		configUSE_TRACE_FACILITY does not equal 1. */
 383:Source/queue.c **** 		( void ) ucQueueType;
 384:Source/queue.c **** 
 385:Source/queue.c **** 		/* Allocate the new queue structure. */
 386:Source/queue.c **** 		pxNewQueue = ( xQUEUE * ) pvPortMalloc( sizeof( xQUEUE ) );
 284              		.loc 1 386 0
 285 000a 4FF04C00 		mov	r0, #76	@,
 286 000e FFF7FEFF 		bl	pvPortMalloc	@
 287 0012 F860     		str	r0, [r7, #12]	@, pxNewQueue
 387:Source/queue.c **** 		if( pxNewQueue != NULL )
 288              		.loc 1 387 0
 289 0014 FB68     		ldr	r3, [r7, #12]	@ tmp140, pxNewQueue
 290 0016 002B     		cmp	r3, #0	@ tmp140,
 291 0018 38D0     		beq	.L10	@,
 388:Source/queue.c **** 		{
 389:Source/queue.c **** 			/* Information required for priority inheritance. */
 390:Source/queue.c **** 			pxNewQueue->pxMutexHolder = NULL;
 292              		.loc 1 390 0
 293 001a FB68     		ldr	r3, [r7, #12]	@ tmp141, pxNewQueue
 294 001c 4FF00002 		mov	r2, #0	@ tmp142,
ARM GAS  C:\Users\Grzybek\AppData\Local\Temp\ccXBk3wH.s 			page 13


 295 0020 5A60     		str	r2, [r3, #4]	@ tmp142, pxNewQueue_1->pcTail
 391:Source/queue.c **** 			pxNewQueue->uxQueueType = queueQUEUE_IS_MUTEX;
 296              		.loc 1 391 0
 297 0022 FB68     		ldr	r3, [r7, #12]	@ tmp143, pxNewQueue
 298 0024 4FF00002 		mov	r2, #0	@ tmp144,
 299 0028 1A60     		str	r2, [r3, #0]	@ tmp144, pxNewQueue_1->pcHead
 392:Source/queue.c **** 
 393:Source/queue.c **** 			/* Queues used as a mutex no data is actually copied into or out
 394:Source/queue.c **** 			of the queue. */
 395:Source/queue.c **** 			pxNewQueue->pcWriteTo = NULL;
 300              		.loc 1 395 0
 301 002a FB68     		ldr	r3, [r7, #12]	@ tmp145, pxNewQueue
 302 002c 4FF00002 		mov	r2, #0	@ tmp146,
 303 0030 9A60     		str	r2, [r3, #8]	@ tmp146, pxNewQueue_1->pcWriteTo
 396:Source/queue.c **** 			pxNewQueue->pcReadFrom = NULL;
 304              		.loc 1 396 0
 305 0032 FB68     		ldr	r3, [r7, #12]	@ tmp147, pxNewQueue
 306 0034 4FF00002 		mov	r2, #0	@ tmp148,
 307 0038 DA60     		str	r2, [r3, #12]	@ tmp148, pxNewQueue_1->pcReadFrom
 397:Source/queue.c **** 
 398:Source/queue.c **** 			/* Each mutex has a length of 1 (like a binary semaphore) and
 399:Source/queue.c **** 			an item size of 0 as nothing is actually copied into or out
 400:Source/queue.c **** 			of the mutex. */
 401:Source/queue.c **** 			pxNewQueue->uxMessagesWaiting = ( unsigned portBASE_TYPE ) 0U;
 308              		.loc 1 401 0
 309 003a FB68     		ldr	r3, [r7, #12]	@ tmp149, pxNewQueue
 310 003c 4FF00002 		mov	r2, #0	@ tmp150,
 311 0040 9A63     		str	r2, [r3, #56]	@ tmp150, pxNewQueue_1->uxMessagesWaiting
 402:Source/queue.c **** 			pxNewQueue->uxLength = ( unsigned portBASE_TYPE ) 1U;
 312              		.loc 1 402 0
 313 0042 FB68     		ldr	r3, [r7, #12]	@ tmp151, pxNewQueue
 314 0044 4FF00102 		mov	r2, #1	@ tmp152,
 315 0048 DA63     		str	r2, [r3, #60]	@ tmp152, pxNewQueue_1->uxLength
 403:Source/queue.c **** 			pxNewQueue->uxItemSize = ( unsigned portBASE_TYPE ) 0U;
 316              		.loc 1 403 0
 317 004a FB68     		ldr	r3, [r7, #12]	@ tmp153, pxNewQueue
 318 004c 4FF00002 		mov	r2, #0	@ tmp154,
 319 0050 1A64     		str	r2, [r3, #64]	@ tmp154, pxNewQueue_1->uxItemSize
 404:Source/queue.c **** 			pxNewQueue->xRxLock = queueUNLOCKED;
 320              		.loc 1 404 0
 321 0052 FB68     		ldr	r3, [r7, #12]	@ tmp155, pxNewQueue
 322 0054 4FF0FF32 		mov	r2, #-1	@ tmp156,
 323 0058 5A64     		str	r2, [r3, #68]	@ tmp156, pxNewQueue_1->xRxLock
 405:Source/queue.c **** 			pxNewQueue->xTxLock = queueUNLOCKED;
 324              		.loc 1 405 0
 325 005a FB68     		ldr	r3, [r7, #12]	@ tmp157, pxNewQueue
 326 005c 4FF0FF32 		mov	r2, #-1	@ tmp158,
 327 0060 9A64     		str	r2, [r3, #72]	@ tmp158, pxNewQueue_1->xTxLock
 406:Source/queue.c **** 
 407:Source/queue.c **** 			#if ( configUSE_TRACE_FACILITY == 1 )
 408:Source/queue.c **** 			{
 409:Source/queue.c **** 				pxNewQueue->ucQueueType = ucQueueType;
 410:Source/queue.c **** 			}
 411:Source/queue.c **** 			#endif
 412:Source/queue.c **** 
 413:Source/queue.c **** 			/* Ensure the event queues start with the correct state. */
 414:Source/queue.c **** 			vListInitialise( &( pxNewQueue->xTasksWaitingToSend ) );
ARM GAS  C:\Users\Grzybek\AppData\Local\Temp\ccXBk3wH.s 			page 14


 328              		.loc 1 414 0
 329 0062 FB68     		ldr	r3, [r7, #12]	@ tmp159, pxNewQueue
 330 0064 03F11003 		add	r3, r3, #16	@ D.5448, tmp159,
 331 0068 1846     		mov	r0, r3	@, D.5448
 332 006a FFF7FEFF 		bl	vListInitialise	@
 415:Source/queue.c **** 			vListInitialise( &( pxNewQueue->xTasksWaitingToReceive ) );
 333              		.loc 1 415 0
 334 006e FB68     		ldr	r3, [r7, #12]	@ tmp160, pxNewQueue
 335 0070 03F12403 		add	r3, r3, #36	@ D.5449, tmp160,
 336 0074 1846     		mov	r0, r3	@, D.5449
 337 0076 FFF7FEFF 		bl	vListInitialise	@
 416:Source/queue.c **** 
 417:Source/queue.c **** 			traceCREATE_MUTEX( pxNewQueue );
 418:Source/queue.c **** 
 419:Source/queue.c **** 			/* Start with the semaphore in the expected state. */
 420:Source/queue.c **** 			xQueueGenericSend( pxNewQueue, NULL, ( portTickType ) 0U, queueSEND_TO_BACK );
 338              		.loc 1 420 0
 339 007a F868     		ldr	r0, [r7, #12]	@, pxNewQueue
 340 007c 4FF00001 		mov	r1, #0	@,
 341 0080 4FF00002 		mov	r2, #0	@,
 342 0084 4FF00003 		mov	r3, #0	@,
 343 0088 FFF7FEFF 		bl	xQueueGenericSend	@
 344              	.L10:
 421:Source/queue.c **** 		}
 422:Source/queue.c **** 		else
 423:Source/queue.c **** 		{
 424:Source/queue.c **** 			traceCREATE_MUTEX_FAILED();
 425:Source/queue.c **** 		}
 426:Source/queue.c **** 
 427:Source/queue.c **** 		configASSERT( pxNewQueue );
 428:Source/queue.c **** 		return pxNewQueue;
 345              		.loc 1 428 0
 346 008c FB68     		ldr	r3, [r7, #12]	@ D.5451, pxNewQueue
 429:Source/queue.c **** 	}
 347              		.loc 1 429 0
 348 008e 1846     		mov	r0, r3	@, <retval>
 349 0090 07F11007 		add	r7, r7, #16	@,,
 350 0094 BD46     		mov	sp, r7
 351 0096 80BD     		pop	{r7, pc}
 352              		.cfi_endproc
 353              	.LFE2:
 354              		.size	xQueueCreateMutex, .-xQueueCreateMutex
 355              		.section	.text.xQueueGiveMutexRecursive,"ax",%progbits
 356              		.align	2
 357              		.global	xQueueGiveMutexRecursive
 358              		.thumb
 359              		.thumb_func
 360              		.type	xQueueGiveMutexRecursive, %function
 361              	xQueueGiveMutexRecursive:
 362              	.LFB3:
 430:Source/queue.c **** 
 431:Source/queue.c **** #endif /* configUSE_MUTEXES */
 432:Source/queue.c **** /*-----------------------------------------------------------*/
 433:Source/queue.c **** 
 434:Source/queue.c **** #if ( ( configUSE_MUTEXES == 1 ) && ( INCLUDE_xQueueGetMutexHolder == 1 ) )
 435:Source/queue.c **** 
 436:Source/queue.c **** 	void* xQueueGetMutexHolder( xQueueHandle xSemaphore )
ARM GAS  C:\Users\Grzybek\AppData\Local\Temp\ccXBk3wH.s 			page 15


 437:Source/queue.c **** 	{
 438:Source/queue.c **** 	void *pxReturn;
 439:Source/queue.c **** 
 440:Source/queue.c **** 		/* This function is called by xSemaphoreGetMutexHolder(), and should not
 441:Source/queue.c **** 		be called directly.  Note:  This is is a good way of determining if the
 442:Source/queue.c **** 		calling task is the mutex holder, but not a good way of determining the
 443:Source/queue.c **** 		identity of the mutex holder, as the holder may change between the
 444:Source/queue.c **** 		following critical section exiting and the function returning. */
 445:Source/queue.c **** 		taskENTER_CRITICAL();
 446:Source/queue.c **** 		{
 447:Source/queue.c **** 			if( xSemaphore->uxQueueType == queueQUEUE_IS_MUTEX )
 448:Source/queue.c **** 			{
 449:Source/queue.c **** 				pxReturn = ( void * ) xSemaphore->pxMutexHolder;
 450:Source/queue.c **** 			}
 451:Source/queue.c **** 			else
 452:Source/queue.c **** 			{
 453:Source/queue.c **** 				pxReturn = NULL;
 454:Source/queue.c **** 			}
 455:Source/queue.c **** 		}
 456:Source/queue.c **** 		taskEXIT_CRITICAL();
 457:Source/queue.c **** 
 458:Source/queue.c **** 		return pxReturn;
 459:Source/queue.c **** 	}
 460:Source/queue.c **** 
 461:Source/queue.c **** #endif
 462:Source/queue.c **** /*-----------------------------------------------------------*/
 463:Source/queue.c **** 
 464:Source/queue.c **** #if ( configUSE_RECURSIVE_MUTEXES == 1 )
 465:Source/queue.c **** 
 466:Source/queue.c **** 	portBASE_TYPE xQueueGiveMutexRecursive( xQueueHandle pxMutex )
 467:Source/queue.c **** 	{
 363              		.loc 1 467 0
 364              		.cfi_startproc
 365              		@ args = 0, pretend = 0, frame = 16
 366              		@ frame_needed = 1, uses_anonymous_args = 0
 367 0000 90B5     		push	{r4, r7, lr}	@
 368              	.LCFI9:
 369              		.cfi_def_cfa_offset 12
 370              		.cfi_offset 4, -12
 371              		.cfi_offset 7, -8
 372              		.cfi_offset 14, -4
 373 0002 85B0     		sub	sp, sp, #20	@,,
 374              	.LCFI10:
 375              		.cfi_def_cfa_offset 32
 376 0004 00AF     		add	r7, sp, #0	@,,
 377              	.LCFI11:
 378              		.cfi_def_cfa_register 7
 379 0006 7860     		str	r0, [r7, #4]	@ pxMutex, pxMutex
 468:Source/queue.c **** 	portBASE_TYPE xReturn;
 469:Source/queue.c **** 
 470:Source/queue.c **** 		configASSERT( pxMutex );
 471:Source/queue.c **** 
 472:Source/queue.c **** 		/* If this is the task that holds the mutex then pxMutexHolder will not
 473:Source/queue.c **** 		change outside of this task.  If this task does not hold the mutex then
 474:Source/queue.c **** 		pxMutexHolder can never coincidentally equal the tasks handle, and as
 475:Source/queue.c **** 		this is the only condition we are interested in it does not matter if
 476:Source/queue.c **** 		pxMutexHolder is accessed simultaneously by another task.  Therefore no
ARM GAS  C:\Users\Grzybek\AppData\Local\Temp\ccXBk3wH.s 			page 16


 477:Source/queue.c **** 		mutual exclusion is required to test the pxMutexHolder variable. */
 478:Source/queue.c **** 		if( pxMutex->pxMutexHolder == xTaskGetCurrentTaskHandle() )
 380              		.loc 1 478 0
 381 0008 7B68     		ldr	r3, [r7, #4]	@ tmp141, pxMutex
 382 000a 5C68     		ldr	r4, [r3, #4]	@ D.5434, pxMutex_2(D)->pcTail
 383 000c FFF7FEFF 		bl	xTaskGetCurrentTaskHandle	@
 384 0010 0346     		mov	r3, r0	@ D.5435,
 385 0012 9C42     		cmp	r4, r3	@ D.5434, D.5435
 386 0014 16D1     		bne	.L13	@,
 479:Source/queue.c **** 		{
 480:Source/queue.c **** 			traceGIVE_MUTEX_RECURSIVE( pxMutex );
 481:Source/queue.c **** 
 482:Source/queue.c **** 			/* uxRecursiveCallCount cannot be zero if pxMutexHolder is equal to
 483:Source/queue.c **** 			the task handle, therefore no underflow check is required.  Also,
 484:Source/queue.c **** 			uxRecursiveCallCount is only modified by the mutex holder, and as
 485:Source/queue.c **** 			there can only be one, no mutual exclusion is required to modify the
 486:Source/queue.c **** 			uxRecursiveCallCount member. */
 487:Source/queue.c **** 			( pxMutex->uxRecursiveCallCount )--;
 387              		.loc 1 487 0
 388 0016 7B68     		ldr	r3, [r7, #4]	@ tmp142, pxMutex
 389 0018 DB68     		ldr	r3, [r3, #12]	@ D.5438, pxMutex_2(D)->pcReadFrom
 390 001a 03F1FF32 		add	r2, r3, #-1	@ D.5439, D.5438,
 391 001e 7B68     		ldr	r3, [r7, #4]	@ tmp143, pxMutex
 392 0020 DA60     		str	r2, [r3, #12]	@ D.5439, pxMutex_2(D)->pcReadFrom
 488:Source/queue.c **** 
 489:Source/queue.c **** 			/* Have we unwound the call count? */
 490:Source/queue.c **** 			if( pxMutex->uxRecursiveCallCount == 0 )
 393              		.loc 1 490 0
 394 0022 7B68     		ldr	r3, [r7, #4]	@ tmp144, pxMutex
 395 0024 DB68     		ldr	r3, [r3, #12]	@ D.5440, pxMutex_2(D)->pcReadFrom
 396 0026 002B     		cmp	r3, #0	@ D.5440,
 397 0028 08D1     		bne	.L14	@,
 491:Source/queue.c **** 			{
 492:Source/queue.c **** 				/* Return the mutex.  This will automatically unblock any other
 493:Source/queue.c **** 				task that might be waiting to access the mutex. */
 494:Source/queue.c **** 				xQueueGenericSend( pxMutex, NULL, queueMUTEX_GIVE_BLOCK_TIME, queueSEND_TO_BACK );
 398              		.loc 1 494 0
 399 002a 7868     		ldr	r0, [r7, #4]	@, pxMutex
 400 002c 4FF00001 		mov	r1, #0	@,
 401 0030 4FF00002 		mov	r2, #0	@,
 402 0034 4FF00003 		mov	r3, #0	@,
 403 0038 FFF7FEFF 		bl	xQueueGenericSend	@
 404              	.L14:
 495:Source/queue.c **** 			}
 496:Source/queue.c **** 
 497:Source/queue.c **** 			xReturn = pdPASS;
 405              		.loc 1 497 0
 406 003c 4FF00103 		mov	r3, #1	@ tmp145,
 407 0040 FB60     		str	r3, [r7, #12]	@ tmp145, xReturn
 408 0042 02E0     		b	.L15	@
 409              	.L13:
 498:Source/queue.c **** 		}
 499:Source/queue.c **** 		else
 500:Source/queue.c **** 		{
 501:Source/queue.c **** 			/* We cannot give the mutex because we are not the holder. */
 502:Source/queue.c **** 			xReturn = pdFAIL;
 410              		.loc 1 502 0
ARM GAS  C:\Users\Grzybek\AppData\Local\Temp\ccXBk3wH.s 			page 17


 411 0044 4FF00003 		mov	r3, #0	@ tmp146,
 412 0048 FB60     		str	r3, [r7, #12]	@ tmp146, xReturn
 413              	.L15:
 503:Source/queue.c **** 
 504:Source/queue.c **** 			traceGIVE_MUTEX_RECURSIVE_FAILED( pxMutex );
 505:Source/queue.c **** 		}
 506:Source/queue.c **** 
 507:Source/queue.c **** 		return xReturn;
 414              		.loc 1 507 0
 415 004a FB68     		ldr	r3, [r7, #12]	@ D.5444, xReturn
 508:Source/queue.c **** 	}
 416              		.loc 1 508 0
 417 004c 1846     		mov	r0, r3	@, <retval>
 418 004e 07F11407 		add	r7, r7, #20	@,,
 419 0052 BD46     		mov	sp, r7
 420 0054 90BD     		pop	{r4, r7, pc}
 421              		.cfi_endproc
 422              	.LFE3:
 423              		.size	xQueueGiveMutexRecursive, .-xQueueGiveMutexRecursive
 424 0056 00BF     		.section	.text.xQueueTakeMutexRecursive,"ax",%progbits
 425              		.align	2
 426              		.global	xQueueTakeMutexRecursive
 427              		.thumb
 428              		.thumb_func
 429              		.type	xQueueTakeMutexRecursive, %function
 430              	xQueueTakeMutexRecursive:
 431              	.LFB4:
 509:Source/queue.c **** 
 510:Source/queue.c **** #endif /* configUSE_RECURSIVE_MUTEXES */
 511:Source/queue.c **** /*-----------------------------------------------------------*/
 512:Source/queue.c **** 
 513:Source/queue.c **** #if configUSE_RECURSIVE_MUTEXES == 1
 514:Source/queue.c **** 
 515:Source/queue.c **** 	portBASE_TYPE xQueueTakeMutexRecursive( xQueueHandle pxMutex, portTickType xBlockTime )
 516:Source/queue.c **** 	{
 432              		.loc 1 516 0
 433              		.cfi_startproc
 434              		@ args = 0, pretend = 0, frame = 16
 435              		@ frame_needed = 1, uses_anonymous_args = 0
 436 0000 90B5     		push	{r4, r7, lr}	@
 437              	.LCFI12:
 438              		.cfi_def_cfa_offset 12
 439              		.cfi_offset 4, -12
 440              		.cfi_offset 7, -8
 441              		.cfi_offset 14, -4
 442 0002 85B0     		sub	sp, sp, #20	@,,
 443              	.LCFI13:
 444              		.cfi_def_cfa_offset 32
 445 0004 00AF     		add	r7, sp, #0	@,,
 446              	.LCFI14:
 447              		.cfi_def_cfa_register 7
 448 0006 7860     		str	r0, [r7, #4]	@ pxMutex, pxMutex
 449 0008 3960     		str	r1, [r7, #0]	@ xBlockTime, xBlockTime
 517:Source/queue.c **** 	portBASE_TYPE xReturn;
 518:Source/queue.c **** 
 519:Source/queue.c **** 		configASSERT( pxMutex );
 520:Source/queue.c **** 
ARM GAS  C:\Users\Grzybek\AppData\Local\Temp\ccXBk3wH.s 			page 18


 521:Source/queue.c **** 		/* Comments regarding mutual exclusion as per those within
 522:Source/queue.c **** 		xQueueGiveMutexRecursive(). */
 523:Source/queue.c **** 
 524:Source/queue.c **** 		traceTAKE_MUTEX_RECURSIVE( pxMutex );
 525:Source/queue.c **** 
 526:Source/queue.c **** 		if( pxMutex->pxMutexHolder == xTaskGetCurrentTaskHandle() )
 450              		.loc 1 526 0
 451 000a 7B68     		ldr	r3, [r7, #4]	@ tmp142, pxMutex
 452 000c 5C68     		ldr	r4, [r3, #4]	@ D.5420, pxMutex_2(D)->pcTail
 453 000e FFF7FEFF 		bl	xTaskGetCurrentTaskHandle	@
 454 0012 0346     		mov	r3, r0	@ D.5421,
 455 0014 9C42     		cmp	r4, r3	@ D.5420, D.5421
 456 0016 09D1     		bne	.L18	@,
 527:Source/queue.c **** 		{
 528:Source/queue.c **** 			( pxMutex->uxRecursiveCallCount )++;
 457              		.loc 1 528 0
 458 0018 7B68     		ldr	r3, [r7, #4]	@ tmp143, pxMutex
 459 001a DB68     		ldr	r3, [r3, #12]	@ D.5424, pxMutex_2(D)->pcReadFrom
 460 001c 03F10102 		add	r2, r3, #1	@ D.5425, D.5424,
 461 0020 7B68     		ldr	r3, [r7, #4]	@ tmp144, pxMutex
 462 0022 DA60     		str	r2, [r3, #12]	@ D.5425, pxMutex_2(D)->pcReadFrom
 529:Source/queue.c **** 			xReturn = pdPASS;
 463              		.loc 1 529 0
 464 0024 4FF00103 		mov	r3, #1	@ tmp145,
 465 0028 FB60     		str	r3, [r7, #12]	@ tmp145, xReturn
 466 002a 11E0     		b	.L19	@
 467              	.L18:
 530:Source/queue.c **** 		}
 531:Source/queue.c **** 		else
 532:Source/queue.c **** 		{
 533:Source/queue.c **** 			xReturn = xQueueGenericReceive( pxMutex, NULL, xBlockTime, pdFALSE );
 468              		.loc 1 533 0
 469 002c 7868     		ldr	r0, [r7, #4]	@, pxMutex
 470 002e 4FF00001 		mov	r1, #0	@,
 471 0032 3A68     		ldr	r2, [r7, #0]	@, xBlockTime
 472 0034 4FF00003 		mov	r3, #0	@,
 473 0038 FFF7FEFF 		bl	xQueueGenericReceive	@
 474 003c F860     		str	r0, [r7, #12]	@, xReturn
 534:Source/queue.c **** 
 535:Source/queue.c **** 			/* pdPASS will only be returned if we successfully obtained the mutex,
 536:Source/queue.c **** 			we may have blocked to reach here. */
 537:Source/queue.c **** 			if( xReturn == pdPASS )
 475              		.loc 1 537 0
 476 003e FB68     		ldr	r3, [r7, #12]	@ tmp146, xReturn
 477 0040 012B     		cmp	r3, #1	@ tmp146,
 478 0042 05D1     		bne	.L19	@,
 538:Source/queue.c **** 			{
 539:Source/queue.c **** 				( pxMutex->uxRecursiveCallCount )++;
 479              		.loc 1 539 0
 480 0044 7B68     		ldr	r3, [r7, #4]	@ tmp147, pxMutex
 481 0046 DB68     		ldr	r3, [r3, #12]	@ D.5429, pxMutex_2(D)->pcReadFrom
 482 0048 03F10102 		add	r2, r3, #1	@ D.5430, D.5429,
 483 004c 7B68     		ldr	r3, [r7, #4]	@ tmp148, pxMutex
 484 004e DA60     		str	r2, [r3, #12]	@ D.5430, pxMutex_2(D)->pcReadFrom
 485              	.L19:
 540:Source/queue.c **** 			}
 541:Source/queue.c **** 			else
ARM GAS  C:\Users\Grzybek\AppData\Local\Temp\ccXBk3wH.s 			page 19


 542:Source/queue.c **** 			{
 543:Source/queue.c **** 				traceTAKE_MUTEX_RECURSIVE_FAILED( pxMutex );
 544:Source/queue.c **** 			}
 545:Source/queue.c **** 		}
 546:Source/queue.c **** 
 547:Source/queue.c **** 		return xReturn;
 486              		.loc 1 547 0
 487 0050 FB68     		ldr	r3, [r7, #12]	@ D.5432, xReturn
 548:Source/queue.c **** 	}
 488              		.loc 1 548 0
 489 0052 1846     		mov	r0, r3	@, <retval>
 490 0054 07F11407 		add	r7, r7, #20	@,,
 491 0058 BD46     		mov	sp, r7
 492 005a 90BD     		pop	{r4, r7, pc}
 493              		.cfi_endproc
 494              	.LFE4:
 495              		.size	xQueueTakeMutexRecursive, .-xQueueTakeMutexRecursive
 496              		.section	.text.xQueueGenericSend,"ax",%progbits
 497              		.align	2
 498              		.global	xQueueGenericSend
 499              		.thumb
 500              		.thumb_func
 501              		.type	xQueueGenericSend, %function
 502              	xQueueGenericSend:
 503              	.LFB5:
 549:Source/queue.c **** 
 550:Source/queue.c **** #endif /* configUSE_RECURSIVE_MUTEXES */
 551:Source/queue.c **** /*-----------------------------------------------------------*/
 552:Source/queue.c **** 
 553:Source/queue.c **** #if configUSE_COUNTING_SEMAPHORES == 1
 554:Source/queue.c **** 
 555:Source/queue.c **** 	xQueueHandle xQueueCreateCountingSemaphore( unsigned portBASE_TYPE uxCountValue, unsigned portBASE
 556:Source/queue.c **** 	{
 557:Source/queue.c **** 	xQueueHandle pxHandle;
 558:Source/queue.c **** 
 559:Source/queue.c **** 		pxHandle = xQueueGenericCreate( ( unsigned portBASE_TYPE ) uxCountValue, queueSEMAPHORE_QUEUE_ITE
 560:Source/queue.c **** 
 561:Source/queue.c **** 		if( pxHandle != NULL )
 562:Source/queue.c **** 		{
 563:Source/queue.c **** 			pxHandle->uxMessagesWaiting = uxInitialCount;
 564:Source/queue.c **** 
 565:Source/queue.c **** 			traceCREATE_COUNTING_SEMAPHORE();
 566:Source/queue.c **** 		}
 567:Source/queue.c **** 		else
 568:Source/queue.c **** 		{
 569:Source/queue.c **** 			traceCREATE_COUNTING_SEMAPHORE_FAILED();
 570:Source/queue.c **** 		}
 571:Source/queue.c **** 
 572:Source/queue.c **** 		configASSERT( pxHandle );
 573:Source/queue.c **** 		return pxHandle;
 574:Source/queue.c **** 	}
 575:Source/queue.c **** 
 576:Source/queue.c **** #endif /* configUSE_COUNTING_SEMAPHORES */
 577:Source/queue.c **** /*-----------------------------------------------------------*/
 578:Source/queue.c **** 
 579:Source/queue.c **** signed portBASE_TYPE xQueueGenericSend( xQueueHandle pxQueue, const void * const pvItemToQueue, por
 580:Source/queue.c **** {
ARM GAS  C:\Users\Grzybek\AppData\Local\Temp\ccXBk3wH.s 			page 20


 504              		.loc 1 580 0
 505              		.cfi_startproc
 506              		@ args = 0, pretend = 0, frame = 32
 507              		@ frame_needed = 1, uses_anonymous_args = 0
 508 0000 80B5     		push	{r7, lr}	@
 509              	.LCFI15:
 510              		.cfi_def_cfa_offset 8
 511              		.cfi_offset 7, -8
 512              		.cfi_offset 14, -4
 513 0002 88B0     		sub	sp, sp, #32	@,,
 514              	.LCFI16:
 515              		.cfi_def_cfa_offset 40
 516 0004 00AF     		add	r7, sp, #0	@,,
 517              	.LCFI17:
 518              		.cfi_def_cfa_register 7
 519 0006 F860     		str	r0, [r7, #12]	@ pxQueue, pxQueue
 520 0008 B960     		str	r1, [r7, #8]	@ pvItemToQueue, pvItemToQueue
 521 000a 7A60     		str	r2, [r7, #4]	@ xTicksToWait, xTicksToWait
 522 000c 3B60     		str	r3, [r7, #0]	@ xCopyPosition, xCopyPosition
 581:Source/queue.c **** signed portBASE_TYPE xEntryTimeSet = pdFALSE;
 523              		.loc 1 581 0
 524 000e 4FF00003 		mov	r3, #0	@ tmp149,
 525 0012 FB61     		str	r3, [r7, #28]	@ tmp149, xEntryTimeSet
 526 0014 00E0     		b	.L32	@
 527              	.L34:
 582:Source/queue.c **** xTimeOutType xTimeOut;
 583:Source/queue.c **** 
 584:Source/queue.c **** 	configASSERT( pxQueue );
 585:Source/queue.c **** 	configASSERT( !( ( pvItemToQueue == NULL ) && ( pxQueue->uxItemSize != ( unsigned portBASE_TYPE ) 
 586:Source/queue.c **** 
 587:Source/queue.c **** 	/* This function relaxes the coding standard somewhat to allow return
 588:Source/queue.c **** 	statements within the function itself.  This is done in the interest
 589:Source/queue.c **** 	of execution time efficiency. */
 590:Source/queue.c **** 	for( ;; )
 591:Source/queue.c **** 	{
 592:Source/queue.c **** 		taskENTER_CRITICAL();
 593:Source/queue.c **** 		{
 594:Source/queue.c **** 			/* Is there room on the queue now?  To be running we must be
 595:Source/queue.c **** 			the highest priority task wanting to access the queue. */
 596:Source/queue.c **** 			if( pxQueue->uxMessagesWaiting < pxQueue->uxLength )
 597:Source/queue.c **** 			{
 598:Source/queue.c **** 				traceQUEUE_SEND( pxQueue );
 599:Source/queue.c **** 				prvCopyDataToQueue( pxQueue, pvItemToQueue, xCopyPosition );
 600:Source/queue.c **** 
 601:Source/queue.c **** 				/* If there was a task waiting for data to arrive on the
 602:Source/queue.c **** 				queue then unblock it now. */
 603:Source/queue.c **** 				if( listLIST_IS_EMPTY( &( pxQueue->xTasksWaitingToReceive ) ) == pdFALSE )
 604:Source/queue.c **** 				{
 605:Source/queue.c **** 					if( xTaskRemoveFromEventList( &( pxQueue->xTasksWaitingToReceive ) ) == pdTRUE )
 606:Source/queue.c **** 					{
 607:Source/queue.c **** 						/* The unblocked task has a priority higher than
 608:Source/queue.c **** 						our own so yield immediately.  Yes it is ok to do
 609:Source/queue.c **** 						this from within the critical section - the kernel
 610:Source/queue.c **** 						takes care of that. */
 611:Source/queue.c **** 						portYIELD_WITHIN_API();
 612:Source/queue.c **** 					}
 613:Source/queue.c **** 				}
ARM GAS  C:\Users\Grzybek\AppData\Local\Temp\ccXBk3wH.s 			page 21


 614:Source/queue.c **** 
 615:Source/queue.c **** 				taskEXIT_CRITICAL();
 616:Source/queue.c **** 
 617:Source/queue.c **** 				/* Return to the original privilege level before exiting the
 618:Source/queue.c **** 				function. */
 619:Source/queue.c **** 				return pdPASS;
 620:Source/queue.c **** 			}
 621:Source/queue.c **** 			else
 622:Source/queue.c **** 			{
 623:Source/queue.c **** 				if( xTicksToWait == ( portTickType ) 0 )
 624:Source/queue.c **** 				{
 625:Source/queue.c **** 					/* The queue was full and no block time is specified (or
 626:Source/queue.c **** 					the block time has expired) so leave now. */
 627:Source/queue.c **** 					taskEXIT_CRITICAL();
 628:Source/queue.c **** 
 629:Source/queue.c **** 					/* Return to the original privilege level before exiting
 630:Source/queue.c **** 					the function. */
 631:Source/queue.c **** 					traceQUEUE_SEND_FAILED( pxQueue );
 632:Source/queue.c **** 					return errQUEUE_FULL;
 633:Source/queue.c **** 				}
 634:Source/queue.c **** 				else if( xEntryTimeSet == pdFALSE )
 635:Source/queue.c **** 				{
 636:Source/queue.c **** 					/* The queue was full and a block time was specified so
 637:Source/queue.c **** 					configure the timeout structure. */
 638:Source/queue.c **** 					vTaskSetTimeOutState( &xTimeOut );
 639:Source/queue.c **** 					xEntryTimeSet = pdTRUE;
 640:Source/queue.c **** 				}
 641:Source/queue.c **** 			}
 642:Source/queue.c **** 		}
 643:Source/queue.c **** 		taskEXIT_CRITICAL();
 644:Source/queue.c **** 
 645:Source/queue.c **** 		/* Interrupts and other tasks can send to and receive from the queue
 646:Source/queue.c **** 		now the critical section has been exited. */
 647:Source/queue.c **** 
 648:Source/queue.c **** 		vTaskSuspendAll();
 649:Source/queue.c **** 		prvLockQueue( pxQueue );
 650:Source/queue.c **** 
 651:Source/queue.c **** 		/* Update the timeout state to see if it has expired yet. */
 652:Source/queue.c **** 		if( xTaskCheckForTimeOut( &xTimeOut, &xTicksToWait ) == pdFALSE )
 653:Source/queue.c **** 		{
 654:Source/queue.c **** 			if( prvIsQueueFull( pxQueue ) != pdFALSE )
 655:Source/queue.c **** 			{
 656:Source/queue.c **** 				traceBLOCKING_ON_QUEUE_SEND( pxQueue );
 657:Source/queue.c **** 				vTaskPlaceOnEventList( &( pxQueue->xTasksWaitingToSend ), xTicksToWait );
 658:Source/queue.c **** 
 659:Source/queue.c **** 				/* Unlocking the queue means queue events can effect the
 660:Source/queue.c **** 				event list.  It is possible	that interrupts occurring now
 661:Source/queue.c **** 				remove this task from the event	list again - but as the
 662:Source/queue.c **** 				scheduler is suspended the task will go onto the pending
 663:Source/queue.c **** 				ready last instead of the actual ready list. */
 664:Source/queue.c **** 				prvUnlockQueue( pxQueue );
 665:Source/queue.c **** 
 666:Source/queue.c **** 				/* Resuming the scheduler will move tasks from the pending
 667:Source/queue.c **** 				ready list into the ready list - so it is feasible that this
 668:Source/queue.c **** 				task is already in a ready list before it yields - in which
 669:Source/queue.c **** 				case the yield will not cause a context switch unless there
 670:Source/queue.c **** 				is also a higher priority task in the pending ready list. */
ARM GAS  C:\Users\Grzybek\AppData\Local\Temp\ccXBk3wH.s 			page 22


 671:Source/queue.c **** 				if( xTaskResumeAll() == pdFALSE )
 672:Source/queue.c **** 				{
 673:Source/queue.c **** 					portYIELD_WITHIN_API();
 674:Source/queue.c **** 				}
 675:Source/queue.c **** 			}
 676:Source/queue.c **** 			else
 677:Source/queue.c **** 			{
 678:Source/queue.c **** 				/* Try again. */
 679:Source/queue.c **** 				prvUnlockQueue( pxQueue );
 680:Source/queue.c **** 				( void ) xTaskResumeAll();
 681:Source/queue.c **** 			}
 682:Source/queue.c **** 		}
 683:Source/queue.c **** 		else
 684:Source/queue.c **** 		{
 685:Source/queue.c **** 			/* The timeout has expired. */
 686:Source/queue.c **** 			prvUnlockQueue( pxQueue );
 687:Source/queue.c **** 			( void ) xTaskResumeAll();
 688:Source/queue.c **** 
 689:Source/queue.c **** 			/* Return to the original privilege level before exiting the
 690:Source/queue.c **** 			function. */
 691:Source/queue.c **** 			traceQUEUE_SEND_FAILED( pxQueue );
 692:Source/queue.c **** 			return errQUEUE_FULL;
 693:Source/queue.c **** 		}
 694:Source/queue.c **** 	}
 528              		.loc 1 694 0
 529 0016 00BF     		nop
 530              	.L32:
 592:Source/queue.c **** 		taskENTER_CRITICAL();
 531              		.loc 1 592 0
 532 0018 FFF7FEFF 		bl	vPortEnterCritical	@
 596:Source/queue.c **** 			if( pxQueue->uxMessagesWaiting < pxQueue->uxLength )
 533              		.loc 1 596 0
 534 001c FB68     		ldr	r3, [r7, #12]	@ tmp150, pxQueue
 535 001e 9A6B     		ldr	r2, [r3, #56]	@ D.5382, pxQueue_5(D)->uxMessagesWaiting
 536 0020 FB68     		ldr	r3, [r7, #12]	@ tmp151, pxQueue
 537 0022 DB6B     		ldr	r3, [r3, #60]	@ D.5383, pxQueue_5(D)->uxLength
 538 0024 9A42     		cmp	r2, r3	@ D.5382, D.5383
 539 0026 18D2     		bcs	.L22	@,
 599:Source/queue.c **** 				prvCopyDataToQueue( pxQueue, pvItemToQueue, xCopyPosition );
 540              		.loc 1 599 0
 541 0028 F868     		ldr	r0, [r7, #12]	@, pxQueue
 542 002a B968     		ldr	r1, [r7, #8]	@, pvItemToQueue
 543 002c 3A68     		ldr	r2, [r7, #0]	@, xCopyPosition
 544 002e FFF7FEFF 		bl	prvCopyDataToQueue	@
 603:Source/queue.c **** 				if( listLIST_IS_EMPTY( &( pxQueue->xTasksWaitingToReceive ) ) == pdFALSE )
 545              		.loc 1 603 0
 546 0032 FB68     		ldr	r3, [r7, #12]	@ tmp152, pxQueue
 547 0034 5B6A     		ldr	r3, [r3, #36]	@ D.5386, pxQueue_5(D)->xTasksWaitingToReceive.uxNumberOfItems
 548 0036 002B     		cmp	r3, #0	@ D.5386,
 549 0038 0AD0     		beq	.L23	@,
 605:Source/queue.c **** 					if( xTaskRemoveFromEventList( &( pxQueue->xTasksWaitingToReceive ) ) == pdTRUE )
 550              		.loc 1 605 0
 551 003a FB68     		ldr	r3, [r7, #12]	@ tmp153, pxQueue
 552 003c 03F12403 		add	r3, r3, #36	@ D.5389, tmp153,
 553 0040 1846     		mov	r0, r3	@, D.5389
 554 0042 FFF7FEFF 		bl	xTaskRemoveFromEventList	@
 555 0046 0346     		mov	r3, r0	@ D.5390,
ARM GAS  C:\Users\Grzybek\AppData\Local\Temp\ccXBk3wH.s 			page 23


 556 0048 012B     		cmp	r3, #1	@ D.5390,
 557 004a 01D1     		bne	.L23	@,
 611:Source/queue.c **** 						portYIELD_WITHIN_API();
 558              		.loc 1 611 0
 559 004c FFF7FEFF 		bl	vPortYieldFromISR	@
 560              	.L23:
 615:Source/queue.c **** 				taskEXIT_CRITICAL();
 561              		.loc 1 615 0
 562 0050 FFF7FEFF 		bl	vPortExitCritical	@
 619:Source/queue.c **** 				return pdPASS;
 563              		.loc 1 619 0
 564 0054 4FF00103 		mov	r3, #1	@ D.5393,
 565 0058 5DE0     		b	.L33	@
 566              	.L22:
 623:Source/queue.c **** 				if( xTicksToWait == ( portTickType ) 0 )
 567              		.loc 1 623 0
 568 005a 7B68     		ldr	r3, [r7, #4]	@ xTicksToWait.2, xTicksToWait
 569 005c 002B     		cmp	r3, #0	@ xTicksToWait.2,
 570 005e 04D1     		bne	.L25	@,
 627:Source/queue.c **** 					taskEXIT_CRITICAL();
 571              		.loc 1 627 0
 572 0060 FFF7FEFF 		bl	vPortExitCritical	@
 632:Source/queue.c **** 					return errQUEUE_FULL;
 573              		.loc 1 632 0
 574 0064 4FF00003 		mov	r3, #0	@ D.5393,
 575 0068 55E0     		b	.L33	@
 576              	.L25:
 634:Source/queue.c **** 				else if( xEntryTimeSet == pdFALSE )
 577              		.loc 1 634 0
 578 006a FB69     		ldr	r3, [r7, #28]	@ tmp154, xEntryTimeSet
 579 006c 002B     		cmp	r3, #0	@ tmp154,
 580 006e 07D1     		bne	.L26	@,
 638:Source/queue.c **** 					vTaskSetTimeOutState( &xTimeOut );
 581              		.loc 1 638 0
 582 0070 07F11403 		add	r3, r7, #20	@ tmp155,,
 583 0074 1846     		mov	r0, r3	@, tmp155
 584 0076 FFF7FEFF 		bl	vTaskSetTimeOutState	@
 639:Source/queue.c **** 					xEntryTimeSet = pdTRUE;
 585              		.loc 1 639 0
 586 007a 4FF00103 		mov	r3, #1	@ tmp156,
 587 007e FB61     		str	r3, [r7, #28]	@ tmp156, xEntryTimeSet
 588              	.L26:
 643:Source/queue.c **** 		taskEXIT_CRITICAL();
 589              		.loc 1 643 0
 590 0080 FFF7FEFF 		bl	vPortExitCritical	@
 648:Source/queue.c **** 		vTaskSuspendAll();
 591              		.loc 1 648 0
 592 0084 FFF7FEFF 		bl	vTaskSuspendAll	@
 649:Source/queue.c **** 		prvLockQueue( pxQueue );
 593              		.loc 1 649 0
 594 0088 FFF7FEFF 		bl	vPortEnterCritical	@
 595 008c FB68     		ldr	r3, [r7, #12]	@ tmp157, pxQueue
 596 008e 5B6C     		ldr	r3, [r3, #68]	@ D.5399, pxQueue_5(D)->xRxLock
 597 0090 B3F1FF3F 		cmp	r3, #-1	@ D.5399,
 598 0094 03D1     		bne	.L27	@,
 649:Source/queue.c **** 		prvLockQueue( pxQueue );
 599              		.loc 1 649 0 is_stmt 0 discriminator 1
ARM GAS  C:\Users\Grzybek\AppData\Local\Temp\ccXBk3wH.s 			page 24


 600 0096 FB68     		ldr	r3, [r7, #12]	@ tmp158, pxQueue
 601 0098 4FF00002 		mov	r2, #0	@ tmp159,
 602 009c 5A64     		str	r2, [r3, #68]	@ tmp159, pxQueue_5(D)->xRxLock
 603              	.L27:
 649:Source/queue.c **** 		prvLockQueue( pxQueue );
 604              		.loc 1 649 0 discriminator 2
 605 009e FB68     		ldr	r3, [r7, #12]	@ tmp160, pxQueue
 606 00a0 9B6C     		ldr	r3, [r3, #72]	@ D.5402, pxQueue_5(D)->xTxLock
 607 00a2 B3F1FF3F 		cmp	r3, #-1	@ D.5402,
 608 00a6 03D1     		bne	.L28	@,
 649:Source/queue.c **** 		prvLockQueue( pxQueue );
 609              		.loc 1 649 0 discriminator 3
 610 00a8 FB68     		ldr	r3, [r7, #12]	@ tmp161, pxQueue
 611 00aa 4FF00002 		mov	r2, #0	@ tmp162,
 612 00ae 9A64     		str	r2, [r3, #72]	@ tmp162, pxQueue_5(D)->xTxLock
 613              	.L28:
 649:Source/queue.c **** 		prvLockQueue( pxQueue );
 614              		.loc 1 649 0 discriminator 4
 615 00b0 FFF7FEFF 		bl	vPortExitCritical	@
 652:Source/queue.c **** 		if( xTaskCheckForTimeOut( &xTimeOut, &xTicksToWait ) == pdFALSE )
 616              		.loc 1 652 0 is_stmt 1 discriminator 4
 617 00b4 07F11402 		add	r2, r7, #20	@ tmp163,,
 618 00b8 07F10403 		add	r3, r7, #4	@ tmp164,,
 619 00bc 1046     		mov	r0, r2	@, tmp163
 620 00be 1946     		mov	r1, r3	@, tmp164
 621 00c0 FFF7FEFF 		bl	xTaskCheckForTimeOut	@
 622 00c4 0346     		mov	r3, r0	@ D.5405,
 623 00c6 002B     		cmp	r3, #0	@ D.5405,
 624 00c8 1ED1     		bne	.L29	@,
 654:Source/queue.c **** 			if( prvIsQueueFull( pxQueue ) != pdFALSE )
 625              		.loc 1 654 0
 626 00ca F868     		ldr	r0, [r7, #12]	@, pxQueue
 627 00cc FFF7FEFF 		bl	prvIsQueueFull	@
 628 00d0 0346     		mov	r3, r0	@ D.5408,
 629 00d2 002B     		cmp	r3, #0	@ D.5408,
 630 00d4 12D0     		beq	.L30	@,
 657:Source/queue.c **** 				vTaskPlaceOnEventList( &( pxQueue->xTasksWaitingToSend ), xTicksToWait );
 631              		.loc 1 657 0
 632 00d6 FB68     		ldr	r3, [r7, #12]	@ tmp165, pxQueue
 633 00d8 03F11002 		add	r2, r3, #16	@ D.5411, tmp165,
 634 00dc 7B68     		ldr	r3, [r7, #4]	@ xTicksToWait.3, xTicksToWait
 635 00de 1046     		mov	r0, r2	@, D.5411
 636 00e0 1946     		mov	r1, r3	@, xTicksToWait.3
 637 00e2 FFF7FEFF 		bl	vTaskPlaceOnEventList	@
 664:Source/queue.c **** 				prvUnlockQueue( pxQueue );
 638              		.loc 1 664 0
 639 00e6 F868     		ldr	r0, [r7, #12]	@, pxQueue
 640 00e8 FFF7FEFF 		bl	prvUnlockQueue	@
 671:Source/queue.c **** 				if( xTaskResumeAll() == pdFALSE )
 641              		.loc 1 671 0
 642 00ec FFF7FEFF 		bl	xTaskResumeAll	@
 643 00f0 0346     		mov	r3, r0	@ D.5413,
 644 00f2 002B     		cmp	r3, #0	@ D.5413,
 645 00f4 8FD1     		bne	.L34	@,
 673:Source/queue.c **** 					portYIELD_WITHIN_API();
 646              		.loc 1 673 0
 647 00f6 FFF7FEFF 		bl	vPortYieldFromISR	@
ARM GAS  C:\Users\Grzybek\AppData\Local\Temp\ccXBk3wH.s 			page 25


 648              		.loc 1 694 0
 649 00fa 8CE7     		b	.L34	@
 650              	.L30:
 679:Source/queue.c **** 				prvUnlockQueue( pxQueue );
 651              		.loc 1 679 0
 652 00fc F868     		ldr	r0, [r7, #12]	@, pxQueue
 653 00fe FFF7FEFF 		bl	prvUnlockQueue	@
 680:Source/queue.c **** 				( void ) xTaskResumeAll();
 654              		.loc 1 680 0
 655 0102 FFF7FEFF 		bl	xTaskResumeAll	@
 656              		.loc 1 694 0
 657 0106 86E7     		b	.L34	@
 658              	.L29:
 686:Source/queue.c **** 			prvUnlockQueue( pxQueue );
 659              		.loc 1 686 0
 660 0108 F868     		ldr	r0, [r7, #12]	@, pxQueue
 661 010a FFF7FEFF 		bl	prvUnlockQueue	@
 687:Source/queue.c **** 			( void ) xTaskResumeAll();
 662              		.loc 1 687 0
 663 010e FFF7FEFF 		bl	xTaskResumeAll	@
 692:Source/queue.c **** 			return errQUEUE_FULL;
 664              		.loc 1 692 0
 665 0112 4FF00003 		mov	r3, #0	@ D.5393,
 666              	.L33:
 695:Source/queue.c **** }
 667              		.loc 1 695 0
 668 0116 1846     		mov	r0, r3	@, <retval>
 669 0118 07F12007 		add	r7, r7, #32	@,,
 670 011c BD46     		mov	sp, r7
 671 011e 80BD     		pop	{r7, pc}
 672              		.cfi_endproc
 673              	.LFE5:
 674              		.size	xQueueGenericSend, .-xQueueGenericSend
 675              		.section	.text.xQueueGenericSendFromISR,"ax",%progbits
 676              		.align	2
 677              		.global	xQueueGenericSendFromISR
 678              		.thumb
 679              		.thumb_func
 680              		.type	xQueueGenericSendFromISR, %function
 681              	xQueueGenericSendFromISR:
 682              	.LFB6:
 696:Source/queue.c **** /*-----------------------------------------------------------*/
 697:Source/queue.c **** 
 698:Source/queue.c **** #if configUSE_ALTERNATIVE_API == 1
 699:Source/queue.c **** 
 700:Source/queue.c **** 	signed portBASE_TYPE xQueueAltGenericSend( xQueueHandle pxQueue, const void * const pvItemToQueue,
 701:Source/queue.c **** 	{
 702:Source/queue.c **** 	signed portBASE_TYPE xEntryTimeSet = pdFALSE;
 703:Source/queue.c **** 	xTimeOutType xTimeOut;
 704:Source/queue.c **** 
 705:Source/queue.c **** 		configASSERT( pxQueue );
 706:Source/queue.c **** 		configASSERT( !( ( pvItemToQueue == NULL ) && ( pxQueue->uxItemSize != ( unsigned portBASE_TYPE )
 707:Source/queue.c **** 
 708:Source/queue.c **** 		for( ;; )
 709:Source/queue.c **** 		{
 710:Source/queue.c **** 			taskENTER_CRITICAL();
 711:Source/queue.c **** 			{
ARM GAS  C:\Users\Grzybek\AppData\Local\Temp\ccXBk3wH.s 			page 26


 712:Source/queue.c **** 				/* Is there room on the queue now?  To be running we must be
 713:Source/queue.c **** 				the highest priority task wanting to access the queue. */
 714:Source/queue.c **** 				if( pxQueue->uxMessagesWaiting < pxQueue->uxLength )
 715:Source/queue.c **** 				{
 716:Source/queue.c **** 					traceQUEUE_SEND( pxQueue );
 717:Source/queue.c **** 					prvCopyDataToQueue( pxQueue, pvItemToQueue, xCopyPosition );
 718:Source/queue.c **** 
 719:Source/queue.c **** 					/* If there was a task waiting for data to arrive on the
 720:Source/queue.c **** 					queue then unblock it now. */
 721:Source/queue.c **** 					if( listLIST_IS_EMPTY( &( pxQueue->xTasksWaitingToReceive ) ) == pdFALSE )
 722:Source/queue.c **** 					{
 723:Source/queue.c **** 						if( xTaskRemoveFromEventList( &( pxQueue->xTasksWaitingToReceive ) ) == pdTRUE )
 724:Source/queue.c **** 						{
 725:Source/queue.c **** 							/* The unblocked task has a priority higher than
 726:Source/queue.c **** 							our own so yield immediately. */
 727:Source/queue.c **** 							portYIELD_WITHIN_API();
 728:Source/queue.c **** 						}
 729:Source/queue.c **** 					}
 730:Source/queue.c **** 
 731:Source/queue.c **** 					taskEXIT_CRITICAL();
 732:Source/queue.c **** 					return pdPASS;
 733:Source/queue.c **** 				}
 734:Source/queue.c **** 				else
 735:Source/queue.c **** 				{
 736:Source/queue.c **** 					if( xTicksToWait == ( portTickType ) 0 )
 737:Source/queue.c **** 					{
 738:Source/queue.c **** 						taskEXIT_CRITICAL();
 739:Source/queue.c **** 						return errQUEUE_FULL;
 740:Source/queue.c **** 					}
 741:Source/queue.c **** 					else if( xEntryTimeSet == pdFALSE )
 742:Source/queue.c **** 					{
 743:Source/queue.c **** 						vTaskSetTimeOutState( &xTimeOut );
 744:Source/queue.c **** 						xEntryTimeSet = pdTRUE;
 745:Source/queue.c **** 					}
 746:Source/queue.c **** 				}
 747:Source/queue.c **** 			}
 748:Source/queue.c **** 			taskEXIT_CRITICAL();
 749:Source/queue.c **** 
 750:Source/queue.c **** 			taskENTER_CRITICAL();
 751:Source/queue.c **** 			{
 752:Source/queue.c **** 				if( xTaskCheckForTimeOut( &xTimeOut, &xTicksToWait ) == pdFALSE )
 753:Source/queue.c **** 				{
 754:Source/queue.c **** 					if( prvIsQueueFull( pxQueue ) != pdFALSE )
 755:Source/queue.c **** 					{
 756:Source/queue.c **** 						traceBLOCKING_ON_QUEUE_SEND( pxQueue );
 757:Source/queue.c **** 						vTaskPlaceOnEventList( &( pxQueue->xTasksWaitingToSend ), xTicksToWait );
 758:Source/queue.c **** 						portYIELD_WITHIN_API();
 759:Source/queue.c **** 					}
 760:Source/queue.c **** 				}
 761:Source/queue.c **** 				else
 762:Source/queue.c **** 				{
 763:Source/queue.c **** 					taskEXIT_CRITICAL();
 764:Source/queue.c **** 					traceQUEUE_SEND_FAILED( pxQueue );
 765:Source/queue.c **** 					return errQUEUE_FULL;
 766:Source/queue.c **** 				}
 767:Source/queue.c **** 			}
 768:Source/queue.c **** 			taskEXIT_CRITICAL();
ARM GAS  C:\Users\Grzybek\AppData\Local\Temp\ccXBk3wH.s 			page 27


 769:Source/queue.c **** 		}
 770:Source/queue.c **** 	}
 771:Source/queue.c **** 
 772:Source/queue.c **** #endif /* configUSE_ALTERNATIVE_API */
 773:Source/queue.c **** /*-----------------------------------------------------------*/
 774:Source/queue.c **** 
 775:Source/queue.c **** #if configUSE_ALTERNATIVE_API == 1
 776:Source/queue.c **** 
 777:Source/queue.c **** 	signed portBASE_TYPE xQueueAltGenericReceive( xQueueHandle pxQueue, void * const pvBuffer, portTic
 778:Source/queue.c **** 	{
 779:Source/queue.c **** 	signed portBASE_TYPE xEntryTimeSet = pdFALSE;
 780:Source/queue.c **** 	xTimeOutType xTimeOut;
 781:Source/queue.c **** 	signed char *pcOriginalReadPosition;
 782:Source/queue.c **** 
 783:Source/queue.c **** 		configASSERT( pxQueue );
 784:Source/queue.c **** 		configASSERT( !( ( pvBuffer == NULL ) && ( pxQueue->uxItemSize != ( unsigned portBASE_TYPE ) 0U )
 785:Source/queue.c **** 
 786:Source/queue.c **** 		for( ;; )
 787:Source/queue.c **** 		{
 788:Source/queue.c **** 			taskENTER_CRITICAL();
 789:Source/queue.c **** 			{
 790:Source/queue.c **** 				if( pxQueue->uxMessagesWaiting > ( unsigned portBASE_TYPE ) 0 )
 791:Source/queue.c **** 				{
 792:Source/queue.c **** 					/* Remember our read position in case we are just peeking. */
 793:Source/queue.c **** 					pcOriginalReadPosition = pxQueue->pcReadFrom;
 794:Source/queue.c **** 
 795:Source/queue.c **** 					prvCopyDataFromQueue( pxQueue, pvBuffer );
 796:Source/queue.c **** 
 797:Source/queue.c **** 					if( xJustPeeking == pdFALSE )
 798:Source/queue.c **** 					{
 799:Source/queue.c **** 						traceQUEUE_RECEIVE( pxQueue );
 800:Source/queue.c **** 
 801:Source/queue.c **** 						/* We are actually removing data. */
 802:Source/queue.c **** 						--( pxQueue->uxMessagesWaiting );
 803:Source/queue.c **** 
 804:Source/queue.c **** 						#if ( configUSE_MUTEXES == 1 )
 805:Source/queue.c **** 						{
 806:Source/queue.c **** 							if( pxQueue->uxQueueType == queueQUEUE_IS_MUTEX )
 807:Source/queue.c **** 							{
 808:Source/queue.c **** 								/* Record the information required to implement
 809:Source/queue.c **** 								priority inheritance should it become necessary. */
 810:Source/queue.c **** 								pxQueue->pxMutexHolder = xTaskGetCurrentTaskHandle();
 811:Source/queue.c **** 							}
 812:Source/queue.c **** 						}
 813:Source/queue.c **** 						#endif
 814:Source/queue.c **** 
 815:Source/queue.c **** 						if( listLIST_IS_EMPTY( &( pxQueue->xTasksWaitingToSend ) ) == pdFALSE )
 816:Source/queue.c **** 						{
 817:Source/queue.c **** 							if( xTaskRemoveFromEventList( &( pxQueue->xTasksWaitingToSend ) ) == pdTRUE )
 818:Source/queue.c **** 							{
 819:Source/queue.c **** 								portYIELD_WITHIN_API();
 820:Source/queue.c **** 							}
 821:Source/queue.c **** 						}
 822:Source/queue.c **** 					}
 823:Source/queue.c **** 					else
 824:Source/queue.c **** 					{
 825:Source/queue.c **** 						traceQUEUE_PEEK( pxQueue );
ARM GAS  C:\Users\Grzybek\AppData\Local\Temp\ccXBk3wH.s 			page 28


 826:Source/queue.c **** 
 827:Source/queue.c **** 						/* We are not removing the data, so reset our read
 828:Source/queue.c **** 						pointer. */
 829:Source/queue.c **** 						pxQueue->pcReadFrom = pcOriginalReadPosition;
 830:Source/queue.c **** 
 831:Source/queue.c **** 						/* The data is being left in the queue, so see if there are
 832:Source/queue.c **** 						any other tasks waiting for the data. */
 833:Source/queue.c **** 						if( listLIST_IS_EMPTY( &( pxQueue->xTasksWaitingToReceive ) ) == pdFALSE )
 834:Source/queue.c **** 						{
 835:Source/queue.c **** 							/* Tasks that are removed from the event list will get added to
 836:Source/queue.c **** 							the pending ready list as the scheduler is still suspended. */
 837:Source/queue.c **** 							if( xTaskRemoveFromEventList( &( pxQueue->xTasksWaitingToReceive ) ) != pdFALSE )
 838:Source/queue.c **** 							{
 839:Source/queue.c **** 								/* The task waiting has a higher priority than this task. */
 840:Source/queue.c **** 								portYIELD_WITHIN_API();
 841:Source/queue.c **** 							}
 842:Source/queue.c **** 						}
 843:Source/queue.c **** 
 844:Source/queue.c **** 					}
 845:Source/queue.c **** 
 846:Source/queue.c **** 					taskEXIT_CRITICAL();
 847:Source/queue.c **** 					return pdPASS;
 848:Source/queue.c **** 				}
 849:Source/queue.c **** 				else
 850:Source/queue.c **** 				{
 851:Source/queue.c **** 					if( xTicksToWait == ( portTickType ) 0 )
 852:Source/queue.c **** 					{
 853:Source/queue.c **** 						taskEXIT_CRITICAL();
 854:Source/queue.c **** 						traceQUEUE_RECEIVE_FAILED( pxQueue );
 855:Source/queue.c **** 						return errQUEUE_EMPTY;
 856:Source/queue.c **** 					}
 857:Source/queue.c **** 					else if( xEntryTimeSet == pdFALSE )
 858:Source/queue.c **** 					{
 859:Source/queue.c **** 						vTaskSetTimeOutState( &xTimeOut );
 860:Source/queue.c **** 						xEntryTimeSet = pdTRUE;
 861:Source/queue.c **** 					}
 862:Source/queue.c **** 				}
 863:Source/queue.c **** 			}
 864:Source/queue.c **** 			taskEXIT_CRITICAL();
 865:Source/queue.c **** 
 866:Source/queue.c **** 			taskENTER_CRITICAL();
 867:Source/queue.c **** 			{
 868:Source/queue.c **** 				if( xTaskCheckForTimeOut( &xTimeOut, &xTicksToWait ) == pdFALSE )
 869:Source/queue.c **** 				{
 870:Source/queue.c **** 					if( prvIsQueueEmpty( pxQueue ) != pdFALSE )
 871:Source/queue.c **** 					{
 872:Source/queue.c **** 						traceBLOCKING_ON_QUEUE_RECEIVE( pxQueue );
 873:Source/queue.c **** 
 874:Source/queue.c **** 						#if ( configUSE_MUTEXES == 1 )
 875:Source/queue.c **** 						{
 876:Source/queue.c **** 							if( pxQueue->uxQueueType == queueQUEUE_IS_MUTEX )
 877:Source/queue.c **** 							{
 878:Source/queue.c **** 								portENTER_CRITICAL();
 879:Source/queue.c **** 								{
 880:Source/queue.c **** 									vTaskPriorityInherit( ( void * ) pxQueue->pxMutexHolder );
 881:Source/queue.c **** 								}
 882:Source/queue.c **** 								portEXIT_CRITICAL();
ARM GAS  C:\Users\Grzybek\AppData\Local\Temp\ccXBk3wH.s 			page 29


 883:Source/queue.c **** 							}
 884:Source/queue.c **** 						}
 885:Source/queue.c **** 						#endif
 886:Source/queue.c **** 
 887:Source/queue.c **** 						vTaskPlaceOnEventList( &( pxQueue->xTasksWaitingToReceive ), xTicksToWait );
 888:Source/queue.c **** 						portYIELD_WITHIN_API();
 889:Source/queue.c **** 					}
 890:Source/queue.c **** 				}
 891:Source/queue.c **** 				else
 892:Source/queue.c **** 				{
 893:Source/queue.c **** 					taskEXIT_CRITICAL();
 894:Source/queue.c **** 					traceQUEUE_RECEIVE_FAILED( pxQueue );
 895:Source/queue.c **** 					return errQUEUE_EMPTY;
 896:Source/queue.c **** 				}
 897:Source/queue.c **** 			}
 898:Source/queue.c **** 			taskEXIT_CRITICAL();
 899:Source/queue.c **** 		}
 900:Source/queue.c **** 	}
 901:Source/queue.c **** 
 902:Source/queue.c **** 
 903:Source/queue.c **** #endif /* configUSE_ALTERNATIVE_API */
 904:Source/queue.c **** /*-----------------------------------------------------------*/
 905:Source/queue.c **** 
 906:Source/queue.c **** signed portBASE_TYPE xQueueGenericSendFromISR( xQueueHandle pxQueue, const void * const pvItemToQue
 907:Source/queue.c **** {
 683              		.loc 1 907 0
 684              		.cfi_startproc
 685              		@ args = 0, pretend = 0, frame = 24
 686              		@ frame_needed = 1, uses_anonymous_args = 0
 687 0000 80B5     		push	{r7, lr}	@
 688              	.LCFI18:
 689              		.cfi_def_cfa_offset 8
 690              		.cfi_offset 7, -8
 691              		.cfi_offset 14, -4
 692 0002 86B0     		sub	sp, sp, #24	@,,
 693              	.LCFI19:
 694              		.cfi_def_cfa_offset 32
 695 0004 00AF     		add	r7, sp, #0	@,,
 696              	.LCFI20:
 697              		.cfi_def_cfa_register 7
 698 0006 F860     		str	r0, [r7, #12]	@ pxQueue, pxQueue
 699 0008 B960     		str	r1, [r7, #8]	@ pvItemToQueue, pvItemToQueue
 700 000a 7A60     		str	r2, [r7, #4]	@ pxHigherPriorityTaskWoken, pxHigherPriorityTaskWoken
 701 000c 3B60     		str	r3, [r7, #0]	@ xCopyPosition, xCopyPosition
 908:Source/queue.c **** signed portBASE_TYPE xReturn;
 909:Source/queue.c **** unsigned portBASE_TYPE uxSavedInterruptStatus;
 910:Source/queue.c **** 
 911:Source/queue.c **** 	configASSERT( pxQueue );
 912:Source/queue.c **** 	configASSERT( !( ( pvItemToQueue == NULL ) && ( pxQueue->uxItemSize != ( unsigned portBASE_TYPE ) 
 913:Source/queue.c **** 
 914:Source/queue.c **** 	/* Similar to xQueueGenericSend, except we don't block if there is no room
 915:Source/queue.c **** 	in the queue.  Also we don't directly wake a task that was blocked on a
 916:Source/queue.c **** 	queue read, instead we return a flag to say whether a context switch is
 917:Source/queue.c **** 	required or not (i.e. has a task with a higher priority than us been woken
 918:Source/queue.c **** 	by this	post). */
 919:Source/queue.c **** 	uxSavedInterruptStatus = portSET_INTERRUPT_MASK_FROM_ISR();
 702              		.loc 1 919 0
ARM GAS  C:\Users\Grzybek\AppData\Local\Temp\ccXBk3wH.s 			page 30


 703 000e FFF7FEFF 		bl	ulPortSetInterruptMask	@
 704 0012 3861     		str	r0, [r7, #16]	@, uxSavedInterruptStatus
 920:Source/queue.c **** 	{
 921:Source/queue.c **** 		if( pxQueue->uxMessagesWaiting < pxQueue->uxLength )
 705              		.loc 1 921 0
 706 0014 FB68     		ldr	r3, [r7, #12]	@ tmp144, pxQueue
 707 0016 9A6B     		ldr	r2, [r3, #56]	@ D.5360, pxQueue_3(D)->uxMessagesWaiting
 708 0018 FB68     		ldr	r3, [r7, #12]	@ tmp145, pxQueue
 709 001a DB6B     		ldr	r3, [r3, #60]	@ D.5361, pxQueue_3(D)->uxLength
 710 001c 9A42     		cmp	r2, r3	@ D.5360, D.5361
 711 001e 28D2     		bcs	.L36	@,
 922:Source/queue.c **** 		{
 923:Source/queue.c **** 			traceQUEUE_SEND_FROM_ISR( pxQueue );
 924:Source/queue.c **** 
 925:Source/queue.c **** 			prvCopyDataToQueue( pxQueue, pvItemToQueue, xCopyPosition );
 712              		.loc 1 925 0
 713 0020 F868     		ldr	r0, [r7, #12]	@, pxQueue
 714 0022 B968     		ldr	r1, [r7, #8]	@, pvItemToQueue
 715 0024 3A68     		ldr	r2, [r7, #0]	@, xCopyPosition
 716 0026 FFF7FEFF 		bl	prvCopyDataToQueue	@
 926:Source/queue.c **** 
 927:Source/queue.c **** 			/* If the queue is locked we do not alter the event list.  This will
 928:Source/queue.c **** 			be done when the queue is unlocked later. */
 929:Source/queue.c **** 			if( pxQueue->xTxLock == queueUNLOCKED )
 717              		.loc 1 929 0
 718 002a FB68     		ldr	r3, [r7, #12]	@ tmp146, pxQueue
 719 002c 9B6C     		ldr	r3, [r3, #72]	@ D.5364, pxQueue_3(D)->xTxLock
 720 002e B3F1FF3F 		cmp	r3, #-1	@ D.5364,
 721 0032 14D1     		bne	.L37	@,
 930:Source/queue.c **** 			{
 931:Source/queue.c **** 				if( listLIST_IS_EMPTY( &( pxQueue->xTasksWaitingToReceive ) ) == pdFALSE )
 722              		.loc 1 931 0
 723 0034 FB68     		ldr	r3, [r7, #12]	@ tmp147, pxQueue
 724 0036 5B6A     		ldr	r3, [r3, #36]	@ D.5367, pxQueue_3(D)->xTasksWaitingToReceive.uxNumberOfItems
 725 0038 002B     		cmp	r3, #0	@ D.5367,
 726 003a 16D0     		beq	.L38	@,
 932:Source/queue.c **** 				{
 933:Source/queue.c **** 					if( xTaskRemoveFromEventList( &( pxQueue->xTasksWaitingToReceive ) ) != pdFALSE )
 727              		.loc 1 933 0
 728 003c FB68     		ldr	r3, [r7, #12]	@ tmp148, pxQueue
 729 003e 03F12403 		add	r3, r3, #36	@ D.5370, tmp148,
 730 0042 1846     		mov	r0, r3	@, D.5370
 731 0044 FFF7FEFF 		bl	xTaskRemoveFromEventList	@
 732 0048 0346     		mov	r3, r0	@ D.5371,
 733 004a 002B     		cmp	r3, #0	@ D.5371,
 734 004c 0DD0     		beq	.L38	@,
 934:Source/queue.c **** 					{
 935:Source/queue.c **** 						/* The task waiting has a higher priority so record that a
 936:Source/queue.c **** 						context	switch is required. */
 937:Source/queue.c **** 						if( pxHigherPriorityTaskWoken != NULL )
 735              		.loc 1 937 0
 736 004e 7B68     		ldr	r3, [r7, #4]	@ tmp149, pxHigherPriorityTaskWoken
 737 0050 002B     		cmp	r3, #0	@ tmp149,
 738 0052 0AD0     		beq	.L38	@,
 938:Source/queue.c **** 						{
 939:Source/queue.c **** 							*pxHigherPriorityTaskWoken = pdTRUE;
 739              		.loc 1 939 0
ARM GAS  C:\Users\Grzybek\AppData\Local\Temp\ccXBk3wH.s 			page 31


 740 0054 7B68     		ldr	r3, [r7, #4]	@ tmp150, pxHigherPriorityTaskWoken
 741 0056 4FF00102 		mov	r2, #1	@ tmp151,
 742 005a 1A60     		str	r2, [r3, #0]	@ tmp151, *pxHigherPriorityTaskWoken_12(D)
 743 005c 05E0     		b	.L38	@
 744              	.L37:
 940:Source/queue.c **** 						}
 941:Source/queue.c **** 					}
 942:Source/queue.c **** 				}
 943:Source/queue.c **** 			}
 944:Source/queue.c **** 			else
 945:Source/queue.c **** 			{
 946:Source/queue.c **** 				/* Increment the lock count so the task that unlocks the queue
 947:Source/queue.c **** 				knows that data was posted while it was locked. */
 948:Source/queue.c **** 				++( pxQueue->xTxLock );
 745              		.loc 1 948 0
 746 005e FB68     		ldr	r3, [r7, #12]	@ tmp152, pxQueue
 747 0060 9B6C     		ldr	r3, [r3, #72]	@ D.5377, pxQueue_3(D)->xTxLock
 748 0062 03F10102 		add	r2, r3, #1	@ D.5378, D.5377,
 749 0066 FB68     		ldr	r3, [r7, #12]	@ tmp153, pxQueue
 750 0068 9A64     		str	r2, [r3, #72]	@ D.5378, pxQueue_3(D)->xTxLock
 751              	.L38:
 949:Source/queue.c **** 			}
 950:Source/queue.c **** 
 951:Source/queue.c **** 			xReturn = pdPASS;
 752              		.loc 1 951 0
 753 006a 4FF00103 		mov	r3, #1	@ tmp154,
 754 006e 7B61     		str	r3, [r7, #20]	@ tmp154, xReturn
 755 0070 02E0     		b	.L39	@
 756              	.L36:
 952:Source/queue.c **** 		}
 953:Source/queue.c **** 		else
 954:Source/queue.c **** 		{
 955:Source/queue.c **** 			traceQUEUE_SEND_FROM_ISR_FAILED( pxQueue );
 956:Source/queue.c **** 			xReturn = errQUEUE_FULL;
 757              		.loc 1 956 0
 758 0072 4FF00003 		mov	r3, #0	@ tmp155,
 759 0076 7B61     		str	r3, [r7, #20]	@ tmp155, xReturn
 760              	.L39:
 957:Source/queue.c **** 		}
 958:Source/queue.c **** 	}
 959:Source/queue.c **** 	portCLEAR_INTERRUPT_MASK_FROM_ISR( uxSavedInterruptStatus );
 761              		.loc 1 959 0
 762 0078 3869     		ldr	r0, [r7, #16]	@, uxSavedInterruptStatus
 763 007a FFF7FEFF 		bl	vPortClearInterruptMask	@
 960:Source/queue.c **** 
 961:Source/queue.c **** 	return xReturn;
 764              		.loc 1 961 0
 765 007e 7B69     		ldr	r3, [r7, #20]	@ D.5380, xReturn
 962:Source/queue.c **** }
 766              		.loc 1 962 0
 767 0080 1846     		mov	r0, r3	@, <retval>
 768 0082 07F11807 		add	r7, r7, #24	@,,
 769 0086 BD46     		mov	sp, r7
 770 0088 80BD     		pop	{r7, pc}
 771              		.cfi_endproc
 772              	.LFE6:
 773              		.size	xQueueGenericSendFromISR, .-xQueueGenericSendFromISR
ARM GAS  C:\Users\Grzybek\AppData\Local\Temp\ccXBk3wH.s 			page 32


 774 008a 00BF     		.section	.text.xQueueGenericReceive,"ax",%progbits
 775              		.align	2
 776              		.global	xQueueGenericReceive
 777              		.thumb
 778              		.thumb_func
 779              		.type	xQueueGenericReceive, %function
 780              	xQueueGenericReceive:
 781              	.LFB7:
 963:Source/queue.c **** /*-----------------------------------------------------------*/
 964:Source/queue.c **** 
 965:Source/queue.c **** signed portBASE_TYPE xQueueGenericReceive( xQueueHandle pxQueue, void * const pvBuffer, portTickTyp
 966:Source/queue.c **** {
 782              		.loc 1 966 0
 783              		.cfi_startproc
 784              		@ args = 0, pretend = 0, frame = 32
 785              		@ frame_needed = 1, uses_anonymous_args = 0
 786 0000 80B5     		push	{r7, lr}	@
 787              	.LCFI21:
 788              		.cfi_def_cfa_offset 8
 789              		.cfi_offset 7, -8
 790              		.cfi_offset 14, -4
 791 0002 88B0     		sub	sp, sp, #32	@,,
 792              	.LCFI22:
 793              		.cfi_def_cfa_offset 40
 794 0004 00AF     		add	r7, sp, #0	@,,
 795              	.LCFI23:
 796              		.cfi_def_cfa_register 7
 797 0006 F860     		str	r0, [r7, #12]	@ pxQueue, pxQueue
 798 0008 B960     		str	r1, [r7, #8]	@ pvBuffer, pvBuffer
 799 000a 7A60     		str	r2, [r7, #4]	@ xTicksToWait, xTicksToWait
 800 000c 3B60     		str	r3, [r7, #0]	@ xJustPeeking, xJustPeeking
 967:Source/queue.c **** signed portBASE_TYPE xEntryTimeSet = pdFALSE;
 801              		.loc 1 967 0
 802 000e 4FF00003 		mov	r3, #0	@ tmp157,
 803 0012 FB61     		str	r3, [r7, #28]	@ tmp157, xEntryTimeSet
 804 0014 00E0     		b	.L55	@
 805              	.L57:
 968:Source/queue.c **** xTimeOutType xTimeOut;
 969:Source/queue.c **** signed char *pcOriginalReadPosition;
 970:Source/queue.c **** 
 971:Source/queue.c **** 	configASSERT( pxQueue );
 972:Source/queue.c **** 	configASSERT( !( ( pvBuffer == NULL ) && ( pxQueue->uxItemSize != ( unsigned portBASE_TYPE ) 0U ) 
 973:Source/queue.c **** 
 974:Source/queue.c **** 	/* This function relaxes the coding standard somewhat to allow return
 975:Source/queue.c **** 	statements within the function itself.  This is done in the interest
 976:Source/queue.c **** 	of execution time efficiency. */
 977:Source/queue.c **** 
 978:Source/queue.c **** 	for( ;; )
 979:Source/queue.c **** 	{
 980:Source/queue.c **** 		taskENTER_CRITICAL();
 981:Source/queue.c **** 		{
 982:Source/queue.c **** 			/* Is there data in the queue now?  To be running we must be
 983:Source/queue.c **** 			the highest priority task wanting to access the queue. */
 984:Source/queue.c **** 			if( pxQueue->uxMessagesWaiting > ( unsigned portBASE_TYPE ) 0 )
 985:Source/queue.c **** 			{
 986:Source/queue.c **** 				/* Remember our read position in case we are just peeking. */
 987:Source/queue.c **** 				pcOriginalReadPosition = pxQueue->pcReadFrom;
ARM GAS  C:\Users\Grzybek\AppData\Local\Temp\ccXBk3wH.s 			page 33


 988:Source/queue.c **** 
 989:Source/queue.c **** 				prvCopyDataFromQueue( pxQueue, pvBuffer );
 990:Source/queue.c **** 
 991:Source/queue.c **** 				if( xJustPeeking == pdFALSE )
 992:Source/queue.c **** 				{
 993:Source/queue.c **** 					traceQUEUE_RECEIVE( pxQueue );
 994:Source/queue.c **** 
 995:Source/queue.c **** 					/* We are actually removing data. */
 996:Source/queue.c **** 					--( pxQueue->uxMessagesWaiting );
 997:Source/queue.c **** 
 998:Source/queue.c **** 					#if ( configUSE_MUTEXES == 1 )
 999:Source/queue.c **** 					{
1000:Source/queue.c **** 						if( pxQueue->uxQueueType == queueQUEUE_IS_MUTEX )
1001:Source/queue.c **** 						{
1002:Source/queue.c **** 							/* Record the information required to implement
1003:Source/queue.c **** 							priority inheritance should it become necessary. */
1004:Source/queue.c **** 							pxQueue->pxMutexHolder = xTaskGetCurrentTaskHandle();
1005:Source/queue.c **** 						}
1006:Source/queue.c **** 					}
1007:Source/queue.c **** 					#endif
1008:Source/queue.c **** 
1009:Source/queue.c **** 					if( listLIST_IS_EMPTY( &( pxQueue->xTasksWaitingToSend ) ) == pdFALSE )
1010:Source/queue.c **** 					{
1011:Source/queue.c **** 						if( xTaskRemoveFromEventList( &( pxQueue->xTasksWaitingToSend ) ) == pdTRUE )
1012:Source/queue.c **** 						{
1013:Source/queue.c **** 							portYIELD_WITHIN_API();
1014:Source/queue.c **** 						}
1015:Source/queue.c **** 					}
1016:Source/queue.c **** 				}
1017:Source/queue.c **** 				else
1018:Source/queue.c **** 				{
1019:Source/queue.c **** 					traceQUEUE_PEEK( pxQueue );
1020:Source/queue.c **** 
1021:Source/queue.c **** 					/* We are not removing the data, so reset our read
1022:Source/queue.c **** 					pointer. */
1023:Source/queue.c **** 					pxQueue->pcReadFrom = pcOriginalReadPosition;
1024:Source/queue.c **** 
1025:Source/queue.c **** 					/* The data is being left in the queue, so see if there are
1026:Source/queue.c **** 					any other tasks waiting for the data. */
1027:Source/queue.c **** 					if( listLIST_IS_EMPTY( &( pxQueue->xTasksWaitingToReceive ) ) == pdFALSE )
1028:Source/queue.c **** 					{
1029:Source/queue.c **** 						/* Tasks that are removed from the event list will get added to
1030:Source/queue.c **** 						the pending ready list as the scheduler is still suspended. */
1031:Source/queue.c **** 						if( xTaskRemoveFromEventList( &( pxQueue->xTasksWaitingToReceive ) ) != pdFALSE )
1032:Source/queue.c **** 						{
1033:Source/queue.c **** 							/* The task waiting has a higher priority than this task. */
1034:Source/queue.c **** 							portYIELD_WITHIN_API();
1035:Source/queue.c **** 						}
1036:Source/queue.c **** 					}
1037:Source/queue.c **** 				}
1038:Source/queue.c **** 
1039:Source/queue.c **** 				taskEXIT_CRITICAL();
1040:Source/queue.c **** 				return pdPASS;
1041:Source/queue.c **** 			}
1042:Source/queue.c **** 			else
1043:Source/queue.c **** 			{
1044:Source/queue.c **** 				if( xTicksToWait == ( portTickType ) 0 )
ARM GAS  C:\Users\Grzybek\AppData\Local\Temp\ccXBk3wH.s 			page 34


1045:Source/queue.c **** 				{
1046:Source/queue.c **** 					/* The queue was empty and no block time is specified (or
1047:Source/queue.c **** 					the block time has expired) so leave now. */
1048:Source/queue.c **** 					taskEXIT_CRITICAL();
1049:Source/queue.c **** 					traceQUEUE_RECEIVE_FAILED( pxQueue );
1050:Source/queue.c **** 					return errQUEUE_EMPTY;
1051:Source/queue.c **** 				}
1052:Source/queue.c **** 				else if( xEntryTimeSet == pdFALSE )
1053:Source/queue.c **** 				{
1054:Source/queue.c **** 					/* The queue was empty and a block time was specified so
1055:Source/queue.c **** 					configure the timeout structure. */
1056:Source/queue.c **** 					vTaskSetTimeOutState( &xTimeOut );
1057:Source/queue.c **** 					xEntryTimeSet = pdTRUE;
1058:Source/queue.c **** 				}
1059:Source/queue.c **** 			}
1060:Source/queue.c **** 		}
1061:Source/queue.c **** 		taskEXIT_CRITICAL();
1062:Source/queue.c **** 
1063:Source/queue.c **** 		/* Interrupts and other tasks can send to and receive from the queue
1064:Source/queue.c **** 		now the critical section has been exited. */
1065:Source/queue.c **** 
1066:Source/queue.c **** 		vTaskSuspendAll();
1067:Source/queue.c **** 		prvLockQueue( pxQueue );
1068:Source/queue.c **** 
1069:Source/queue.c **** 		/* Update the timeout state to see if it has expired yet. */
1070:Source/queue.c **** 		if( xTaskCheckForTimeOut( &xTimeOut, &xTicksToWait ) == pdFALSE )
1071:Source/queue.c **** 		{
1072:Source/queue.c **** 			if( prvIsQueueEmpty( pxQueue ) != pdFALSE )
1073:Source/queue.c **** 			{
1074:Source/queue.c **** 				traceBLOCKING_ON_QUEUE_RECEIVE( pxQueue );
1075:Source/queue.c **** 
1076:Source/queue.c **** 				#if ( configUSE_MUTEXES == 1 )
1077:Source/queue.c **** 				{
1078:Source/queue.c **** 					if( pxQueue->uxQueueType == queueQUEUE_IS_MUTEX )
1079:Source/queue.c **** 					{
1080:Source/queue.c **** 						portENTER_CRITICAL();
1081:Source/queue.c **** 						{
1082:Source/queue.c **** 							vTaskPriorityInherit( ( void * ) pxQueue->pxMutexHolder );
1083:Source/queue.c **** 						}
1084:Source/queue.c **** 						portEXIT_CRITICAL();
1085:Source/queue.c **** 					}
1086:Source/queue.c **** 				}
1087:Source/queue.c **** 				#endif
1088:Source/queue.c **** 
1089:Source/queue.c **** 				vTaskPlaceOnEventList( &( pxQueue->xTasksWaitingToReceive ), xTicksToWait );
1090:Source/queue.c **** 				prvUnlockQueue( pxQueue );
1091:Source/queue.c **** 				if( xTaskResumeAll() == pdFALSE )
1092:Source/queue.c **** 				{
1093:Source/queue.c **** 					portYIELD_WITHIN_API();
1094:Source/queue.c **** 				}
1095:Source/queue.c **** 			}
1096:Source/queue.c **** 			else
1097:Source/queue.c **** 			{
1098:Source/queue.c **** 				/* Try again. */
1099:Source/queue.c **** 				prvUnlockQueue( pxQueue );
1100:Source/queue.c **** 				( void ) xTaskResumeAll();
1101:Source/queue.c **** 			}
ARM GAS  C:\Users\Grzybek\AppData\Local\Temp\ccXBk3wH.s 			page 35


1102:Source/queue.c **** 		}
1103:Source/queue.c **** 		else
1104:Source/queue.c **** 		{
1105:Source/queue.c **** 			prvUnlockQueue( pxQueue );
1106:Source/queue.c **** 			( void ) xTaskResumeAll();
1107:Source/queue.c **** 			traceQUEUE_RECEIVE_FAILED( pxQueue );
1108:Source/queue.c **** 			return errQUEUE_EMPTY;
1109:Source/queue.c **** 		}
1110:Source/queue.c **** 	}
 806              		.loc 1 1110 0
 807 0016 00BF     		nop
 808              	.L55:
 980:Source/queue.c **** 		taskENTER_CRITICAL();
 809              		.loc 1 980 0
 810 0018 FFF7FEFF 		bl	vPortEnterCritical	@
 984:Source/queue.c **** 			if( pxQueue->uxMessagesWaiting > ( unsigned portBASE_TYPE ) 0 )
 811              		.loc 1 984 0
 812 001c FB68     		ldr	r3, [r7, #12]	@ tmp158, pxQueue
 813 001e 9B6B     		ldr	r3, [r3, #56]	@ D.5303, pxQueue_5(D)->uxMessagesWaiting
 814 0020 002B     		cmp	r3, #0	@ D.5303,
 815 0022 3FD0     		beq	.L42	@,
 987:Source/queue.c **** 				pcOriginalReadPosition = pxQueue->pcReadFrom;
 816              		.loc 1 987 0
 817 0024 FB68     		ldr	r3, [r7, #12]	@ tmp159, pxQueue
 818 0026 DB68     		ldr	r3, [r3, #12]	@ tmp160, pxQueue_5(D)->pcReadFrom
 819 0028 BB61     		str	r3, [r7, #24]	@ tmp160, pcOriginalReadPosition
 989:Source/queue.c **** 				prvCopyDataFromQueue( pxQueue, pvBuffer );
 820              		.loc 1 989 0
 821 002a F868     		ldr	r0, [r7, #12]	@, pxQueue
 822 002c B968     		ldr	r1, [r7, #8]	@, pvBuffer
 823 002e FFF7FEFF 		bl	prvCopyDataFromQueue	@
 991:Source/queue.c **** 				if( xJustPeeking == pdFALSE )
 824              		.loc 1 991 0
 825 0032 3B68     		ldr	r3, [r7, #0]	@ tmp161, xJustPeeking
 826 0034 002B     		cmp	r3, #0	@ tmp161,
 827 0036 1ED1     		bne	.L43	@,
 996:Source/queue.c **** 					--( pxQueue->uxMessagesWaiting );
 828              		.loc 1 996 0
 829 0038 FB68     		ldr	r3, [r7, #12]	@ tmp162, pxQueue
 830 003a 9B6B     		ldr	r3, [r3, #56]	@ D.5308, pxQueue_5(D)->uxMessagesWaiting
 831 003c 03F1FF32 		add	r2, r3, #-1	@ D.5309, D.5308,
 832 0040 FB68     		ldr	r3, [r7, #12]	@ tmp163, pxQueue
 833 0042 9A63     		str	r2, [r3, #56]	@ D.5309, pxQueue_5(D)->uxMessagesWaiting
1000:Source/queue.c **** 						if( pxQueue->uxQueueType == queueQUEUE_IS_MUTEX )
 834              		.loc 1 1000 0
 835 0044 FB68     		ldr	r3, [r7, #12]	@ tmp164, pxQueue
 836 0046 1B68     		ldr	r3, [r3, #0]	@ D.5310, pxQueue_5(D)->pcHead
 837 0048 002B     		cmp	r3, #0	@ D.5310,
 838 004a 04D1     		bne	.L44	@,
1004:Source/queue.c **** 							pxQueue->pxMutexHolder = xTaskGetCurrentTaskHandle();
 839              		.loc 1 1004 0
 840 004c FFF7FEFF 		bl	xTaskGetCurrentTaskHandle	@
 841 0050 0246     		mov	r2, r0	@ D.5313,
 842 0052 FB68     		ldr	r3, [r7, #12]	@ tmp165, pxQueue
 843 0054 5A60     		str	r2, [r3, #4]	@ D.5313, pxQueue_5(D)->pcTail
 844              	.L44:
1009:Source/queue.c **** 					if( listLIST_IS_EMPTY( &( pxQueue->xTasksWaitingToSend ) ) == pdFALSE )
ARM GAS  C:\Users\Grzybek\AppData\Local\Temp\ccXBk3wH.s 			page 36


 845              		.loc 1 1009 0
 846 0056 FB68     		ldr	r3, [r7, #12]	@ tmp166, pxQueue
 847 0058 1B69     		ldr	r3, [r3, #16]	@ D.5314, pxQueue_5(D)->xTasksWaitingToSend.uxNumberOfItems
 848 005a 002B     		cmp	r3, #0	@ D.5314,
 849 005c 1DD0     		beq	.L45	@,
1011:Source/queue.c **** 						if( xTaskRemoveFromEventList( &( pxQueue->xTasksWaitingToSend ) ) == pdTRUE )
 850              		.loc 1 1011 0
 851 005e FB68     		ldr	r3, [r7, #12]	@ tmp167, pxQueue
 852 0060 03F11003 		add	r3, r3, #16	@ D.5317, tmp167,
 853 0064 1846     		mov	r0, r3	@, D.5317
 854 0066 FFF7FEFF 		bl	xTaskRemoveFromEventList	@
 855 006a 0346     		mov	r3, r0	@ D.5318,
 856 006c 012B     		cmp	r3, #1	@ D.5318,
 857 006e 14D1     		bne	.L45	@,
1013:Source/queue.c **** 							portYIELD_WITHIN_API();
 858              		.loc 1 1013 0
 859 0070 FFF7FEFF 		bl	vPortYieldFromISR	@
 860 0074 11E0     		b	.L45	@
 861              	.L43:
1023:Source/queue.c **** 					pxQueue->pcReadFrom = pcOriginalReadPosition;
 862              		.loc 1 1023 0
 863 0076 FB68     		ldr	r3, [r7, #12]	@ tmp168, pxQueue
 864 0078 BA69     		ldr	r2, [r7, #24]	@ tmp169, pcOriginalReadPosition
 865 007a DA60     		str	r2, [r3, #12]	@ tmp169, pxQueue_5(D)->pcReadFrom
1027:Source/queue.c **** 					if( listLIST_IS_EMPTY( &( pxQueue->xTasksWaitingToReceive ) ) == pdFALSE )
 866              		.loc 1 1027 0
 867 007c FB68     		ldr	r3, [r7, #12]	@ tmp170, pxQueue
 868 007e 5B6A     		ldr	r3, [r3, #36]	@ D.5322, pxQueue_5(D)->xTasksWaitingToReceive.uxNumberOfItems
 869 0080 002B     		cmp	r3, #0	@ D.5322,
 870 0082 0AD0     		beq	.L45	@,
1031:Source/queue.c **** 						if( xTaskRemoveFromEventList( &( pxQueue->xTasksWaitingToReceive ) ) != pdFALSE )
 871              		.loc 1 1031 0
 872 0084 FB68     		ldr	r3, [r7, #12]	@ tmp171, pxQueue
 873 0086 03F12403 		add	r3, r3, #36	@ D.5325, tmp171,
 874 008a 1846     		mov	r0, r3	@, D.5325
 875 008c FFF7FEFF 		bl	xTaskRemoveFromEventList	@
 876 0090 0346     		mov	r3, r0	@ D.5326,
 877 0092 002B     		cmp	r3, #0	@ D.5326,
 878 0094 01D0     		beq	.L45	@,
1034:Source/queue.c **** 							portYIELD_WITHIN_API();
 879              		.loc 1 1034 0
 880 0096 FFF7FEFF 		bl	vPortYieldFromISR	@
 881              	.L45:
1039:Source/queue.c **** 				taskEXIT_CRITICAL();
 882              		.loc 1 1039 0
 883 009a FFF7FEFF 		bl	vPortExitCritical	@
1040:Source/queue.c **** 				return pdPASS;
 884              		.loc 1 1040 0
 885 009e 4FF00103 		mov	r3, #1	@ D.5329,
 886 00a2 6BE0     		b	.L56	@
 887              	.L42:
1044:Source/queue.c **** 				if( xTicksToWait == ( portTickType ) 0 )
 888              		.loc 1 1044 0
 889 00a4 7B68     		ldr	r3, [r7, #4]	@ xTicksToWait.0, xTicksToWait
 890 00a6 002B     		cmp	r3, #0	@ xTicksToWait.0,
 891 00a8 04D1     		bne	.L47	@,
1048:Source/queue.c **** 					taskEXIT_CRITICAL();
ARM GAS  C:\Users\Grzybek\AppData\Local\Temp\ccXBk3wH.s 			page 37


 892              		.loc 1 1048 0
 893 00aa FFF7FEFF 		bl	vPortExitCritical	@
1050:Source/queue.c **** 					return errQUEUE_EMPTY;
 894              		.loc 1 1050 0
 895 00ae 4FF00003 		mov	r3, #0	@ D.5329,
 896 00b2 63E0     		b	.L56	@
 897              	.L47:
1052:Source/queue.c **** 				else if( xEntryTimeSet == pdFALSE )
 898              		.loc 1 1052 0
 899 00b4 FB69     		ldr	r3, [r7, #28]	@ tmp172, xEntryTimeSet
 900 00b6 002B     		cmp	r3, #0	@ tmp172,
 901 00b8 07D1     		bne	.L48	@,
1056:Source/queue.c **** 					vTaskSetTimeOutState( &xTimeOut );
 902              		.loc 1 1056 0
 903 00ba 07F11003 		add	r3, r7, #16	@ tmp173,,
 904 00be 1846     		mov	r0, r3	@, tmp173
 905 00c0 FFF7FEFF 		bl	vTaskSetTimeOutState	@
1057:Source/queue.c **** 					xEntryTimeSet = pdTRUE;
 906              		.loc 1 1057 0
 907 00c4 4FF00103 		mov	r3, #1	@ tmp174,
 908 00c8 FB61     		str	r3, [r7, #28]	@ tmp174, xEntryTimeSet
 909              	.L48:
1061:Source/queue.c **** 		taskEXIT_CRITICAL();
 910              		.loc 1 1061 0
 911 00ca FFF7FEFF 		bl	vPortExitCritical	@
1066:Source/queue.c **** 		vTaskSuspendAll();
 912              		.loc 1 1066 0
 913 00ce FFF7FEFF 		bl	vTaskSuspendAll	@
1067:Source/queue.c **** 		prvLockQueue( pxQueue );
 914              		.loc 1 1067 0
 915 00d2 FFF7FEFF 		bl	vPortEnterCritical	@
 916 00d6 FB68     		ldr	r3, [r7, #12]	@ tmp175, pxQueue
 917 00d8 5B6C     		ldr	r3, [r3, #68]	@ D.5335, pxQueue_5(D)->xRxLock
 918 00da B3F1FF3F 		cmp	r3, #-1	@ D.5335,
 919 00de 03D1     		bne	.L49	@,
1067:Source/queue.c **** 		prvLockQueue( pxQueue );
 920              		.loc 1 1067 0 is_stmt 0 discriminator 1
 921 00e0 FB68     		ldr	r3, [r7, #12]	@ tmp176, pxQueue
 922 00e2 4FF00002 		mov	r2, #0	@ tmp177,
 923 00e6 5A64     		str	r2, [r3, #68]	@ tmp177, pxQueue_5(D)->xRxLock
 924              	.L49:
1067:Source/queue.c **** 		prvLockQueue( pxQueue );
 925              		.loc 1 1067 0 discriminator 2
 926 00e8 FB68     		ldr	r3, [r7, #12]	@ tmp178, pxQueue
 927 00ea 9B6C     		ldr	r3, [r3, #72]	@ D.5338, pxQueue_5(D)->xTxLock
 928 00ec B3F1FF3F 		cmp	r3, #-1	@ D.5338,
 929 00f0 03D1     		bne	.L50	@,
1067:Source/queue.c **** 		prvLockQueue( pxQueue );
 930              		.loc 1 1067 0 discriminator 3
 931 00f2 FB68     		ldr	r3, [r7, #12]	@ tmp179, pxQueue
 932 00f4 4FF00002 		mov	r2, #0	@ tmp180,
 933 00f8 9A64     		str	r2, [r3, #72]	@ tmp180, pxQueue_5(D)->xTxLock
 934              	.L50:
1067:Source/queue.c **** 		prvLockQueue( pxQueue );
 935              		.loc 1 1067 0 discriminator 4
 936 00fa FFF7FEFF 		bl	vPortExitCritical	@
1070:Source/queue.c **** 		if( xTaskCheckForTimeOut( &xTimeOut, &xTicksToWait ) == pdFALSE )
ARM GAS  C:\Users\Grzybek\AppData\Local\Temp\ccXBk3wH.s 			page 38


 937              		.loc 1 1070 0 is_stmt 1 discriminator 4
 938 00fe 07F11002 		add	r2, r7, #16	@ tmp181,,
 939 0102 07F10403 		add	r3, r7, #4	@ tmp182,,
 940 0106 1046     		mov	r0, r2	@, tmp181
 941 0108 1946     		mov	r1, r3	@, tmp182
 942 010a FFF7FEFF 		bl	xTaskCheckForTimeOut	@
 943 010e 0346     		mov	r3, r0	@ D.5341,
 944 0110 002B     		cmp	r3, #0	@ D.5341,
 945 0112 2CD1     		bne	.L51	@,
1072:Source/queue.c **** 			if( prvIsQueueEmpty( pxQueue ) != pdFALSE )
 946              		.loc 1 1072 0
 947 0114 F868     		ldr	r0, [r7, #12]	@, pxQueue
 948 0116 FFF7FEFF 		bl	prvIsQueueEmpty	@
 949 011a 0346     		mov	r3, r0	@ D.5344,
 950 011c 002B     		cmp	r3, #0	@ D.5344,
 951 011e 20D0     		beq	.L52	@,
1078:Source/queue.c **** 					if( pxQueue->uxQueueType == queueQUEUE_IS_MUTEX )
 952              		.loc 1 1078 0
 953 0120 FB68     		ldr	r3, [r7, #12]	@ tmp183, pxQueue
 954 0122 1B68     		ldr	r3, [r3, #0]	@ D.5347, pxQueue_5(D)->pcHead
 955 0124 002B     		cmp	r3, #0	@ D.5347,
 956 0126 08D1     		bne	.L53	@,
1080:Source/queue.c **** 						portENTER_CRITICAL();
 957              		.loc 1 1080 0
 958 0128 FFF7FEFF 		bl	vPortEnterCritical	@
1082:Source/queue.c **** 							vTaskPriorityInherit( ( void * ) pxQueue->pxMutexHolder );
 959              		.loc 1 1082 0
 960 012c FB68     		ldr	r3, [r7, #12]	@ tmp184, pxQueue
 961 012e 5B68     		ldr	r3, [r3, #4]	@ D.5350, pxQueue_5(D)->pcTail
 962 0130 1846     		mov	r0, r3	@, D.5350
 963 0132 FFF7FEFF 		bl	vTaskPriorityInherit	@
1084:Source/queue.c **** 						portEXIT_CRITICAL();
 964              		.loc 1 1084 0
 965 0136 FFF7FEFF 		bl	vPortExitCritical	@
 966              	.L53:
1089:Source/queue.c **** 				vTaskPlaceOnEventList( &( pxQueue->xTasksWaitingToReceive ), xTicksToWait );
 967              		.loc 1 1089 0
 968 013a FB68     		ldr	r3, [r7, #12]	@ tmp185, pxQueue
 969 013c 03F12402 		add	r2, r3, #36	@ D.5351, tmp185,
 970 0140 7B68     		ldr	r3, [r7, #4]	@ xTicksToWait.1, xTicksToWait
 971 0142 1046     		mov	r0, r2	@, D.5351
 972 0144 1946     		mov	r1, r3	@, xTicksToWait.1
 973 0146 FFF7FEFF 		bl	vTaskPlaceOnEventList	@
1090:Source/queue.c **** 				prvUnlockQueue( pxQueue );
 974              		.loc 1 1090 0
 975 014a F868     		ldr	r0, [r7, #12]	@, pxQueue
 976 014c FFF7FEFF 		bl	prvUnlockQueue	@
1091:Source/queue.c **** 				if( xTaskResumeAll() == pdFALSE )
 977              		.loc 1 1091 0
 978 0150 FFF7FEFF 		bl	xTaskResumeAll	@
 979 0154 0346     		mov	r3, r0	@ D.5353,
 980 0156 002B     		cmp	r3, #0	@ D.5353,
 981 0158 7FF45DAF 		bne	.L57	@,
1093:Source/queue.c **** 					portYIELD_WITHIN_API();
 982              		.loc 1 1093 0
 983 015c FFF7FEFF 		bl	vPortYieldFromISR	@
 984              		.loc 1 1110 0
ARM GAS  C:\Users\Grzybek\AppData\Local\Temp\ccXBk3wH.s 			page 39


 985 0160 59E7     		b	.L57	@
 986              	.L52:
1099:Source/queue.c **** 				prvUnlockQueue( pxQueue );
 987              		.loc 1 1099 0
 988 0162 F868     		ldr	r0, [r7, #12]	@, pxQueue
 989 0164 FFF7FEFF 		bl	prvUnlockQueue	@
1100:Source/queue.c **** 				( void ) xTaskResumeAll();
 990              		.loc 1 1100 0
 991 0168 FFF7FEFF 		bl	xTaskResumeAll	@
 992              		.loc 1 1110 0
 993 016c 53E7     		b	.L57	@
 994              	.L51:
1105:Source/queue.c **** 			prvUnlockQueue( pxQueue );
 995              		.loc 1 1105 0
 996 016e F868     		ldr	r0, [r7, #12]	@, pxQueue
 997 0170 FFF7FEFF 		bl	prvUnlockQueue	@
1106:Source/queue.c **** 			( void ) xTaskResumeAll();
 998              		.loc 1 1106 0
 999 0174 FFF7FEFF 		bl	xTaskResumeAll	@
1108:Source/queue.c **** 			return errQUEUE_EMPTY;
 1000              		.loc 1 1108 0
 1001 0178 4FF00003 		mov	r3, #0	@ D.5329,
 1002              	.L56:
1111:Source/queue.c **** }
 1003              		.loc 1 1111 0
 1004 017c 1846     		mov	r0, r3	@, <retval>
 1005 017e 07F12007 		add	r7, r7, #32	@,,
 1006 0182 BD46     		mov	sp, r7
 1007 0184 80BD     		pop	{r7, pc}
 1008              		.cfi_endproc
 1009              	.LFE7:
 1010              		.size	xQueueGenericReceive, .-xQueueGenericReceive
 1011 0186 00BF     		.section	.text.xQueueReceiveFromISR,"ax",%progbits
 1012              		.align	2
 1013              		.global	xQueueReceiveFromISR
 1014              		.thumb
 1015              		.thumb_func
 1016              		.type	xQueueReceiveFromISR, %function
 1017              	xQueueReceiveFromISR:
 1018              	.LFB8:
1112:Source/queue.c **** /*-----------------------------------------------------------*/
1113:Source/queue.c **** 
1114:Source/queue.c **** signed portBASE_TYPE xQueueReceiveFromISR( xQueueHandle pxQueue, void * const pvBuffer, signed port
1115:Source/queue.c **** {
 1019              		.loc 1 1115 0
 1020              		.cfi_startproc
 1021              		@ args = 0, pretend = 0, frame = 24
 1022              		@ frame_needed = 1, uses_anonymous_args = 0
 1023 0000 80B5     		push	{r7, lr}	@
 1024              	.LCFI24:
 1025              		.cfi_def_cfa_offset 8
 1026              		.cfi_offset 7, -8
 1027              		.cfi_offset 14, -4
 1028 0002 86B0     		sub	sp, sp, #24	@,,
 1029              	.LCFI25:
 1030              		.cfi_def_cfa_offset 32
 1031 0004 00AF     		add	r7, sp, #0	@,,
ARM GAS  C:\Users\Grzybek\AppData\Local\Temp\ccXBk3wH.s 			page 40


 1032              	.LCFI26:
 1033              		.cfi_def_cfa_register 7
 1034 0006 F860     		str	r0, [r7, #12]	@ pxQueue, pxQueue
 1035 0008 B960     		str	r1, [r7, #8]	@ pvBuffer, pvBuffer
 1036 000a 7A60     		str	r2, [r7, #4]	@ pxHigherPriorityTaskWoken, pxHigherPriorityTaskWoken
1116:Source/queue.c **** signed portBASE_TYPE xReturn;
1117:Source/queue.c **** unsigned portBASE_TYPE uxSavedInterruptStatus;
1118:Source/queue.c **** 
1119:Source/queue.c **** 	configASSERT( pxQueue );
1120:Source/queue.c **** 	configASSERT( !( ( pvBuffer == NULL ) && ( pxQueue->uxItemSize != ( unsigned portBASE_TYPE ) 0U ) 
1121:Source/queue.c **** 
1122:Source/queue.c **** 	uxSavedInterruptStatus = portSET_INTERRUPT_MASK_FROM_ISR();
 1037              		.loc 1 1122 0
 1038 000c FFF7FEFF 		bl	ulPortSetInterruptMask	@
 1039 0010 3861     		str	r0, [r7, #16]	@, uxSavedInterruptStatus
1123:Source/queue.c **** 	{
1124:Source/queue.c **** 		/* We cannot block from an ISR, so check there is data available. */
1125:Source/queue.c **** 		if( pxQueue->uxMessagesWaiting > ( unsigned portBASE_TYPE ) 0 )
 1040              		.loc 1 1125 0
 1041 0012 FB68     		ldr	r3, [r7, #12]	@ tmp145, pxQueue
 1042 0014 9B6B     		ldr	r3, [r3, #56]	@ D.5280, pxQueue_3(D)->uxMessagesWaiting
 1043 0016 002B     		cmp	r3, #0	@ D.5280,
 1044 0018 2DD0     		beq	.L59	@,
1126:Source/queue.c **** 		{
1127:Source/queue.c **** 			traceQUEUE_RECEIVE_FROM_ISR( pxQueue );
1128:Source/queue.c **** 
1129:Source/queue.c **** 			prvCopyDataFromQueue( pxQueue, pvBuffer );
 1045              		.loc 1 1129 0
 1046 001a F868     		ldr	r0, [r7, #12]	@, pxQueue
 1047 001c B968     		ldr	r1, [r7, #8]	@, pvBuffer
 1048 001e FFF7FEFF 		bl	prvCopyDataFromQueue	@
1130:Source/queue.c **** 			--( pxQueue->uxMessagesWaiting );
 1049              		.loc 1 1130 0
 1050 0022 FB68     		ldr	r3, [r7, #12]	@ tmp146, pxQueue
 1051 0024 9B6B     		ldr	r3, [r3, #56]	@ D.5283, pxQueue_3(D)->uxMessagesWaiting
 1052 0026 03F1FF32 		add	r2, r3, #-1	@ D.5284, D.5283,
 1053 002a FB68     		ldr	r3, [r7, #12]	@ tmp147, pxQueue
 1054 002c 9A63     		str	r2, [r3, #56]	@ D.5284, pxQueue_3(D)->uxMessagesWaiting
1131:Source/queue.c **** 
1132:Source/queue.c **** 			/* If the queue is locked we will not modify the event list.  Instead
1133:Source/queue.c **** 			we update the lock count so the task that unlocks the queue will know
1134:Source/queue.c **** 			that an ISR has removed data while the queue was locked. */
1135:Source/queue.c **** 			if( pxQueue->xRxLock == queueUNLOCKED )
 1055              		.loc 1 1135 0
 1056 002e FB68     		ldr	r3, [r7, #12]	@ tmp148, pxQueue
 1057 0030 5B6C     		ldr	r3, [r3, #68]	@ D.5285, pxQueue_3(D)->xRxLock
 1058 0032 B3F1FF3F 		cmp	r3, #-1	@ D.5285,
 1059 0036 14D1     		bne	.L60	@,
1136:Source/queue.c **** 			{
1137:Source/queue.c **** 				if( listLIST_IS_EMPTY( &( pxQueue->xTasksWaitingToSend ) ) == pdFALSE )
 1060              		.loc 1 1137 0
 1061 0038 FB68     		ldr	r3, [r7, #12]	@ tmp149, pxQueue
 1062 003a 1B69     		ldr	r3, [r3, #16]	@ D.5288, pxQueue_3(D)->xTasksWaitingToSend.uxNumberOfItems
 1063 003c 002B     		cmp	r3, #0	@ D.5288,
 1064 003e 16D0     		beq	.L61	@,
1138:Source/queue.c **** 				{
1139:Source/queue.c **** 					if( xTaskRemoveFromEventList( &( pxQueue->xTasksWaitingToSend ) ) != pdFALSE )
ARM GAS  C:\Users\Grzybek\AppData\Local\Temp\ccXBk3wH.s 			page 41


 1065              		.loc 1 1139 0
 1066 0040 FB68     		ldr	r3, [r7, #12]	@ tmp150, pxQueue
 1067 0042 03F11003 		add	r3, r3, #16	@ D.5291, tmp150,
 1068 0046 1846     		mov	r0, r3	@, D.5291
 1069 0048 FFF7FEFF 		bl	xTaskRemoveFromEventList	@
 1070 004c 0346     		mov	r3, r0	@ D.5292,
 1071 004e 002B     		cmp	r3, #0	@ D.5292,
 1072 0050 0DD0     		beq	.L61	@,
1140:Source/queue.c **** 					{
1141:Source/queue.c **** 						/* The task waiting has a higher priority than us so
1142:Source/queue.c **** 						force a context switch. */
1143:Source/queue.c **** 						if( pxHigherPriorityTaskWoken != NULL )
 1073              		.loc 1 1143 0
 1074 0052 7B68     		ldr	r3, [r7, #4]	@ tmp151, pxHigherPriorityTaskWoken
 1075 0054 002B     		cmp	r3, #0	@ tmp151,
 1076 0056 0AD0     		beq	.L61	@,
1144:Source/queue.c **** 						{
1145:Source/queue.c **** 							*pxHigherPriorityTaskWoken = pdTRUE;
 1077              		.loc 1 1145 0
 1078 0058 7B68     		ldr	r3, [r7, #4]	@ tmp152, pxHigherPriorityTaskWoken
 1079 005a 4FF00102 		mov	r2, #1	@ tmp153,
 1080 005e 1A60     		str	r2, [r3, #0]	@ tmp153, *pxHigherPriorityTaskWoken_12(D)
 1081 0060 05E0     		b	.L61	@
 1082              	.L60:
1146:Source/queue.c **** 						}
1147:Source/queue.c **** 					}
1148:Source/queue.c **** 				}
1149:Source/queue.c **** 			}
1150:Source/queue.c **** 			else
1151:Source/queue.c **** 			{
1152:Source/queue.c **** 				/* Increment the lock count so the task that unlocks the queue
1153:Source/queue.c **** 				knows that data was removed while it was locked. */
1154:Source/queue.c **** 				++( pxQueue->xRxLock );
 1083              		.loc 1 1154 0
 1084 0062 FB68     		ldr	r3, [r7, #12]	@ tmp154, pxQueue
 1085 0064 5B6C     		ldr	r3, [r3, #68]	@ D.5298, pxQueue_3(D)->xRxLock
 1086 0066 03F10102 		add	r2, r3, #1	@ D.5299, D.5298,
 1087 006a FB68     		ldr	r3, [r7, #12]	@ tmp155, pxQueue
 1088 006c 5A64     		str	r2, [r3, #68]	@ D.5299, pxQueue_3(D)->xRxLock
 1089              	.L61:
1155:Source/queue.c **** 			}
1156:Source/queue.c **** 
1157:Source/queue.c **** 			xReturn = pdPASS;
 1090              		.loc 1 1157 0
 1091 006e 4FF00103 		mov	r3, #1	@ tmp156,
 1092 0072 7B61     		str	r3, [r7, #20]	@ tmp156, xReturn
 1093 0074 02E0     		b	.L62	@
 1094              	.L59:
1158:Source/queue.c **** 		}
1159:Source/queue.c **** 		else
1160:Source/queue.c **** 		{
1161:Source/queue.c **** 			xReturn = pdFAIL;
 1095              		.loc 1 1161 0
 1096 0076 4FF00003 		mov	r3, #0	@ tmp157,
 1097 007a 7B61     		str	r3, [r7, #20]	@ tmp157, xReturn
 1098              	.L62:
1162:Source/queue.c **** 			traceQUEUE_RECEIVE_FROM_ISR_FAILED( pxQueue );
ARM GAS  C:\Users\Grzybek\AppData\Local\Temp\ccXBk3wH.s 			page 42


1163:Source/queue.c **** 		}
1164:Source/queue.c **** 	}
1165:Source/queue.c **** 	portCLEAR_INTERRUPT_MASK_FROM_ISR( uxSavedInterruptStatus );
 1099              		.loc 1 1165 0
 1100 007c 3869     		ldr	r0, [r7, #16]	@, uxSavedInterruptStatus
 1101 007e FFF7FEFF 		bl	vPortClearInterruptMask	@
1166:Source/queue.c **** 
1167:Source/queue.c **** 	return xReturn;
 1102              		.loc 1 1167 0
 1103 0082 7B69     		ldr	r3, [r7, #20]	@ D.5301, xReturn
1168:Source/queue.c **** }
 1104              		.loc 1 1168 0
 1105 0084 1846     		mov	r0, r3	@, <retval>
 1106 0086 07F11807 		add	r7, r7, #24	@,,
 1107 008a BD46     		mov	sp, r7
 1108 008c 80BD     		pop	{r7, pc}
 1109              		.cfi_endproc
 1110              	.LFE8:
 1111              		.size	xQueueReceiveFromISR, .-xQueueReceiveFromISR
 1112 008e 00BF     		.section	.text.uxQueueMessagesWaiting,"ax",%progbits
 1113              		.align	2
 1114              		.global	uxQueueMessagesWaiting
 1115              		.thumb
 1116              		.thumb_func
 1117              		.type	uxQueueMessagesWaiting, %function
 1118              	uxQueueMessagesWaiting:
 1119              	.LFB9:
1169:Source/queue.c **** /*-----------------------------------------------------------*/
1170:Source/queue.c **** 
1171:Source/queue.c **** unsigned portBASE_TYPE uxQueueMessagesWaiting( const xQueueHandle pxQueue )
1172:Source/queue.c **** {
 1120              		.loc 1 1172 0
 1121              		.cfi_startproc
 1122              		@ args = 0, pretend = 0, frame = 16
 1123              		@ frame_needed = 1, uses_anonymous_args = 0
 1124 0000 80B5     		push	{r7, lr}	@
 1125              	.LCFI27:
 1126              		.cfi_def_cfa_offset 8
 1127              		.cfi_offset 7, -8
 1128              		.cfi_offset 14, -4
 1129 0002 84B0     		sub	sp, sp, #16	@,,
 1130              	.LCFI28:
 1131              		.cfi_def_cfa_offset 24
 1132 0004 00AF     		add	r7, sp, #0	@,,
 1133              	.LCFI29:
 1134              		.cfi_def_cfa_register 7
 1135 0006 7860     		str	r0, [r7, #4]	@ pxQueue, pxQueue
1173:Source/queue.c **** unsigned portBASE_TYPE uxReturn;
1174:Source/queue.c **** 
1175:Source/queue.c **** 	configASSERT( pxQueue );
1176:Source/queue.c **** 
1177:Source/queue.c **** 	taskENTER_CRITICAL();
 1136              		.loc 1 1177 0
 1137 0008 FFF7FEFF 		bl	vPortEnterCritical	@
1178:Source/queue.c **** 		uxReturn = pxQueue->uxMessagesWaiting;
 1138              		.loc 1 1178 0
 1139 000c 7B68     		ldr	r3, [r7, #4]	@ tmp136, pxQueue
ARM GAS  C:\Users\Grzybek\AppData\Local\Temp\ccXBk3wH.s 			page 43


 1140 000e 9B6B     		ldr	r3, [r3, #56]	@ tmp137, pxQueue_1(D)->uxMessagesWaiting
 1141 0010 FB60     		str	r3, [r7, #12]	@ tmp137, uxReturn
1179:Source/queue.c **** 	taskEXIT_CRITICAL();
 1142              		.loc 1 1179 0
 1143 0012 FFF7FEFF 		bl	vPortExitCritical	@
1180:Source/queue.c **** 
1181:Source/queue.c **** 	return uxReturn;
 1144              		.loc 1 1181 0
 1145 0016 FB68     		ldr	r3, [r7, #12]	@ D.5278, uxReturn
1182:Source/queue.c **** }
 1146              		.loc 1 1182 0
 1147 0018 1846     		mov	r0, r3	@, <retval>
 1148 001a 07F11007 		add	r7, r7, #16	@,,
 1149 001e BD46     		mov	sp, r7
 1150 0020 80BD     		pop	{r7, pc}
 1151              		.cfi_endproc
 1152              	.LFE9:
 1153              		.size	uxQueueMessagesWaiting, .-uxQueueMessagesWaiting
 1154 0022 00BF     		.section	.text.uxQueueMessagesWaitingFromISR,"ax",%progbits
 1155              		.align	2
 1156              		.global	uxQueueMessagesWaitingFromISR
 1157              		.thumb
 1158              		.thumb_func
 1159              		.type	uxQueueMessagesWaitingFromISR, %function
 1160              	uxQueueMessagesWaitingFromISR:
 1161              	.LFB10:
1183:Source/queue.c **** /*-----------------------------------------------------------*/
1184:Source/queue.c **** 
1185:Source/queue.c **** unsigned portBASE_TYPE uxQueueMessagesWaitingFromISR( const xQueueHandle pxQueue )
1186:Source/queue.c **** {
 1162              		.loc 1 1186 0
 1163              		.cfi_startproc
 1164              		@ args = 0, pretend = 0, frame = 16
 1165              		@ frame_needed = 1, uses_anonymous_args = 0
 1166              		@ link register save eliminated.
 1167 0000 80B4     		push	{r7}	@
 1168              	.LCFI30:
 1169              		.cfi_def_cfa_offset 4
 1170              		.cfi_offset 7, -4
 1171 0002 85B0     		sub	sp, sp, #20	@,,
 1172              	.LCFI31:
 1173              		.cfi_def_cfa_offset 24
 1174 0004 00AF     		add	r7, sp, #0	@,,
 1175              	.LCFI32:
 1176              		.cfi_def_cfa_register 7
 1177 0006 7860     		str	r0, [r7, #4]	@ pxQueue, pxQueue
1187:Source/queue.c **** unsigned portBASE_TYPE uxReturn;
1188:Source/queue.c **** 
1189:Source/queue.c **** 	configASSERT( pxQueue );
1190:Source/queue.c **** 
1191:Source/queue.c **** 	uxReturn = pxQueue->uxMessagesWaiting;
 1178              		.loc 1 1191 0
 1179 0008 7B68     		ldr	r3, [r7, #4]	@ tmp136, pxQueue
 1180 000a 9B6B     		ldr	r3, [r3, #56]	@ tmp137, pxQueue_1(D)->uxMessagesWaiting
 1181 000c FB60     		str	r3, [r7, #12]	@ tmp137, uxReturn
1192:Source/queue.c **** 
1193:Source/queue.c **** 	return uxReturn;
ARM GAS  C:\Users\Grzybek\AppData\Local\Temp\ccXBk3wH.s 			page 44


 1182              		.loc 1 1193 0
 1183 000e FB68     		ldr	r3, [r7, #12]	@ D.5276, uxReturn
1194:Source/queue.c **** }
 1184              		.loc 1 1194 0
 1185 0010 1846     		mov	r0, r3	@, <retval>
 1186 0012 07F11407 		add	r7, r7, #20	@,,
 1187 0016 BD46     		mov	sp, r7
 1188 0018 80BC     		pop	{r7}
 1189 001a 7047     		bx	lr
 1190              		.cfi_endproc
 1191              	.LFE10:
 1192              		.size	uxQueueMessagesWaitingFromISR, .-uxQueueMessagesWaitingFromISR
 1193              		.section	.text.vQueueDelete,"ax",%progbits
 1194              		.align	2
 1195              		.global	vQueueDelete
 1196              		.thumb
 1197              		.thumb_func
 1198              		.type	vQueueDelete, %function
 1199              	vQueueDelete:
 1200              	.LFB11:
1195:Source/queue.c **** /*-----------------------------------------------------------*/
1196:Source/queue.c **** 
1197:Source/queue.c **** void vQueueDelete( xQueueHandle pxQueue )
1198:Source/queue.c **** {
 1201              		.loc 1 1198 0
 1202              		.cfi_startproc
 1203              		@ args = 0, pretend = 0, frame = 8
 1204              		@ frame_needed = 1, uses_anonymous_args = 0
 1205 0000 80B5     		push	{r7, lr}	@
 1206              	.LCFI33:
 1207              		.cfi_def_cfa_offset 8
 1208              		.cfi_offset 7, -8
 1209              		.cfi_offset 14, -4
 1210 0002 82B0     		sub	sp, sp, #8	@,,
 1211              	.LCFI34:
 1212              		.cfi_def_cfa_offset 16
 1213 0004 00AF     		add	r7, sp, #0	@,,
 1214              	.LCFI35:
 1215              		.cfi_def_cfa_register 7
 1216 0006 7860     		str	r0, [r7, #4]	@ pxQueue, pxQueue
1199:Source/queue.c **** 	configASSERT( pxQueue );
1200:Source/queue.c **** 
1201:Source/queue.c **** 	traceQUEUE_DELETE( pxQueue );
1202:Source/queue.c **** 	vQueueUnregisterQueue( pxQueue );
1203:Source/queue.c **** 	vPortFree( pxQueue->pcHead );
 1217              		.loc 1 1203 0
 1218 0008 7B68     		ldr	r3, [r7, #4]	@ tmp135, pxQueue
 1219 000a 1B68     		ldr	r3, [r3, #0]	@ D.5275, pxQueue_1(D)->pcHead
 1220 000c 1846     		mov	r0, r3	@, D.5275
 1221 000e FFF7FEFF 		bl	vPortFree	@
1204:Source/queue.c **** 	vPortFree( pxQueue );
 1222              		.loc 1 1204 0
 1223 0012 7868     		ldr	r0, [r7, #4]	@, pxQueue
 1224 0014 FFF7FEFF 		bl	vPortFree	@
1205:Source/queue.c **** }
 1225              		.loc 1 1205 0
 1226 0018 07F10807 		add	r7, r7, #8	@,,
ARM GAS  C:\Users\Grzybek\AppData\Local\Temp\ccXBk3wH.s 			page 45


 1227 001c BD46     		mov	sp, r7
 1228 001e 80BD     		pop	{r7, pc}
 1229              		.cfi_endproc
 1230              	.LFE11:
 1231              		.size	vQueueDelete, .-vQueueDelete
 1232              		.section	.text.prvCopyDataToQueue,"ax",%progbits
 1233              		.align	2
 1234              		.thumb
 1235              		.thumb_func
 1236              		.type	prvCopyDataToQueue, %function
 1237              	prvCopyDataToQueue:
 1238              	.LFB12:
1206:Source/queue.c **** /*-----------------------------------------------------------*/
1207:Source/queue.c **** 
1208:Source/queue.c **** #if ( configUSE_TRACE_FACILITY == 1 )
1209:Source/queue.c **** 
1210:Source/queue.c **** 	unsigned char ucQueueGetQueueNumber( xQueueHandle pxQueue )
1211:Source/queue.c **** 	{
1212:Source/queue.c **** 		return pxQueue->ucQueueNumber;
1213:Source/queue.c **** 	}
1214:Source/queue.c **** 
1215:Source/queue.c **** #endif
1216:Source/queue.c **** /*-----------------------------------------------------------*/
1217:Source/queue.c **** 
1218:Source/queue.c **** #if ( configUSE_TRACE_FACILITY == 1 )
1219:Source/queue.c **** 
1220:Source/queue.c **** 	void vQueueSetQueueNumber( xQueueHandle pxQueue, unsigned char ucQueueNumber )
1221:Source/queue.c **** 	{
1222:Source/queue.c **** 		pxQueue->ucQueueNumber = ucQueueNumber;
1223:Source/queue.c **** 	}
1224:Source/queue.c **** 
1225:Source/queue.c **** #endif
1226:Source/queue.c **** /*-----------------------------------------------------------*/
1227:Source/queue.c **** 
1228:Source/queue.c **** #if ( configUSE_TRACE_FACILITY == 1 )
1229:Source/queue.c **** 
1230:Source/queue.c **** 	unsigned char ucQueueGetQueueType( xQueueHandle pxQueue )
1231:Source/queue.c **** 	{
1232:Source/queue.c **** 		return pxQueue->ucQueueType;
1233:Source/queue.c **** 	}
1234:Source/queue.c **** 
1235:Source/queue.c **** #endif
1236:Source/queue.c **** /*-----------------------------------------------------------*/
1237:Source/queue.c **** 
1238:Source/queue.c **** static void prvCopyDataToQueue( xQUEUE *pxQueue, const void *pvItemToQueue, portBASE_TYPE xPosition
1239:Source/queue.c **** {
 1239              		.loc 1 1239 0
 1240              		.cfi_startproc
 1241              		@ args = 0, pretend = 0, frame = 16
 1242              		@ frame_needed = 1, uses_anonymous_args = 0
 1243 0000 80B5     		push	{r7, lr}	@
 1244              	.LCFI36:
 1245              		.cfi_def_cfa_offset 8
 1246              		.cfi_offset 7, -8
 1247              		.cfi_offset 14, -4
 1248 0002 84B0     		sub	sp, sp, #16	@,,
 1249              	.LCFI37:
ARM GAS  C:\Users\Grzybek\AppData\Local\Temp\ccXBk3wH.s 			page 46


 1250              		.cfi_def_cfa_offset 24
 1251 0004 00AF     		add	r7, sp, #0	@,,
 1252              	.LCFI38:
 1253              		.cfi_def_cfa_register 7
 1254 0006 F860     		str	r0, [r7, #12]	@ pxQueue, pxQueue
 1255 0008 B960     		str	r1, [r7, #8]	@ pvItemToQueue, pvItemToQueue
 1256 000a 7A60     		str	r2, [r7, #4]	@ xPosition, xPosition
1240:Source/queue.c **** 	if( pxQueue->uxItemSize == ( unsigned portBASE_TYPE ) 0 )
 1257              		.loc 1 1240 0
 1258 000c FB68     		ldr	r3, [r7, #12]	@ tmp159, pxQueue
 1259 000e 1B6C     		ldr	r3, [r3, #64]	@ D.5238, pxQueue_1(D)->uxItemSize
 1260 0010 002B     		cmp	r3, #0	@ D.5238,
 1261 0012 0DD1     		bne	.L70	@,
1241:Source/queue.c **** 	{
1242:Source/queue.c **** 		#if ( configUSE_MUTEXES == 1 )
1243:Source/queue.c **** 		{
1244:Source/queue.c **** 			if( pxQueue->uxQueueType == queueQUEUE_IS_MUTEX )
 1262              		.loc 1 1244 0
 1263 0014 FB68     		ldr	r3, [r7, #12]	@ tmp160, pxQueue
 1264 0016 1B68     		ldr	r3, [r3, #0]	@ D.5241, pxQueue_1(D)->pcHead
 1265 0018 002B     		cmp	r3, #0	@ D.5241,
 1266 001a 48D1     		bne	.L71	@,
1245:Source/queue.c **** 			{
1246:Source/queue.c **** 				/* The mutex is no longer being held. */
1247:Source/queue.c **** 				vTaskPriorityDisinherit( ( void * ) pxQueue->pxMutexHolder );
 1267              		.loc 1 1247 0
 1268 001c FB68     		ldr	r3, [r7, #12]	@ tmp161, pxQueue
 1269 001e 5B68     		ldr	r3, [r3, #4]	@ D.5244, pxQueue_1(D)->pcTail
 1270 0020 1846     		mov	r0, r3	@, D.5244
 1271 0022 FFF7FEFF 		bl	vTaskPriorityDisinherit	@
1248:Source/queue.c **** 				pxQueue->pxMutexHolder = NULL;
 1272              		.loc 1 1248 0
 1273 0026 FB68     		ldr	r3, [r7, #12]	@ tmp162, pxQueue
 1274 0028 4FF00002 		mov	r2, #0	@ tmp163,
 1275 002c 5A60     		str	r2, [r3, #4]	@ tmp163, pxQueue_1(D)->pcTail
 1276 002e 3EE0     		b	.L71	@
 1277              	.L70:
1249:Source/queue.c **** 			}
1250:Source/queue.c **** 		}
1251:Source/queue.c **** 		#endif
1252:Source/queue.c **** 	}
1253:Source/queue.c **** 	else if( xPosition == queueSEND_TO_BACK )
 1278              		.loc 1 1253 0
 1279 0030 7B68     		ldr	r3, [r7, #4]	@ tmp164, xPosition
 1280 0032 002B     		cmp	r3, #0	@ tmp164,
 1281 0034 1AD1     		bne	.L72	@,
1254:Source/queue.c **** 	{
1255:Source/queue.c **** 		memcpy( ( void * ) pxQueue->pcWriteTo, pvItemToQueue, ( unsigned ) pxQueue->uxItemSize );
 1282              		.loc 1 1255 0
 1283 0036 FB68     		ldr	r3, [r7, #12]	@ tmp165, pxQueue
 1284 0038 9A68     		ldr	r2, [r3, #8]	@ D.5248, pxQueue_1(D)->pcWriteTo
 1285 003a FB68     		ldr	r3, [r7, #12]	@ tmp166, pxQueue
 1286 003c 1B6C     		ldr	r3, [r3, #64]	@ D.5249, pxQueue_1(D)->uxItemSize
 1287 003e 1046     		mov	r0, r2	@, D.5248
 1288 0040 B968     		ldr	r1, [r7, #8]	@, pvItemToQueue
 1289 0042 1A46     		mov	r2, r3	@, D.5249
 1290 0044 FFF7FEFF 		bl	memcpy	@
ARM GAS  C:\Users\Grzybek\AppData\Local\Temp\ccXBk3wH.s 			page 47


1256:Source/queue.c **** 		pxQueue->pcWriteTo += pxQueue->uxItemSize;
 1291              		.loc 1 1256 0
 1292 0048 FB68     		ldr	r3, [r7, #12]	@ tmp167, pxQueue
 1293 004a 9A68     		ldr	r2, [r3, #8]	@ D.5250, pxQueue_1(D)->pcWriteTo
 1294 004c FB68     		ldr	r3, [r7, #12]	@ tmp168, pxQueue
 1295 004e 1B6C     		ldr	r3, [r3, #64]	@ D.5251, pxQueue_1(D)->uxItemSize
 1296 0050 D218     		adds	r2, r2, r3	@ D.5252, D.5250, D.5251
 1297 0052 FB68     		ldr	r3, [r7, #12]	@ tmp169, pxQueue
 1298 0054 9A60     		str	r2, [r3, #8]	@ D.5252, pxQueue_1(D)->pcWriteTo
1257:Source/queue.c **** 		if( pxQueue->pcWriteTo >= pxQueue->pcTail )
 1299              		.loc 1 1257 0
 1300 0056 FB68     		ldr	r3, [r7, #12]	@ tmp170, pxQueue
 1301 0058 9A68     		ldr	r2, [r3, #8]	@ D.5253, pxQueue_1(D)->pcWriteTo
 1302 005a FB68     		ldr	r3, [r7, #12]	@ tmp171, pxQueue
 1303 005c 5B68     		ldr	r3, [r3, #4]	@ D.5254, pxQueue_1(D)->pcTail
 1304 005e 9A42     		cmp	r2, r3	@ D.5253, D.5254
 1305 0060 25D3     		bcc	.L71	@,
1258:Source/queue.c **** 		{
1259:Source/queue.c **** 			pxQueue->pcWriteTo = pxQueue->pcHead;
 1306              		.loc 1 1259 0
 1307 0062 FB68     		ldr	r3, [r7, #12]	@ tmp172, pxQueue
 1308 0064 1A68     		ldr	r2, [r3, #0]	@ D.5257, pxQueue_1(D)->pcHead
 1309 0066 FB68     		ldr	r3, [r7, #12]	@ tmp173, pxQueue
 1310 0068 9A60     		str	r2, [r3, #8]	@ D.5257, pxQueue_1(D)->pcWriteTo
 1311 006a 20E0     		b	.L71	@
 1312              	.L72:
1260:Source/queue.c **** 		}
1261:Source/queue.c **** 	}
1262:Source/queue.c **** 	else
1263:Source/queue.c **** 	{
1264:Source/queue.c **** 		memcpy( ( void * ) pxQueue->pcReadFrom, pvItemToQueue, ( unsigned ) pxQueue->uxItemSize );
 1313              		.loc 1 1264 0
 1314 006c FB68     		ldr	r3, [r7, #12]	@ tmp174, pxQueue
 1315 006e DA68     		ldr	r2, [r3, #12]	@ D.5259, pxQueue_1(D)->pcReadFrom
 1316 0070 FB68     		ldr	r3, [r7, #12]	@ tmp175, pxQueue
 1317 0072 1B6C     		ldr	r3, [r3, #64]	@ D.5260, pxQueue_1(D)->uxItemSize
 1318 0074 1046     		mov	r0, r2	@, D.5259
 1319 0076 B968     		ldr	r1, [r7, #8]	@, pvItemToQueue
 1320 0078 1A46     		mov	r2, r3	@, D.5260
 1321 007a FFF7FEFF 		bl	memcpy	@
1265:Source/queue.c **** 		pxQueue->pcReadFrom -= pxQueue->uxItemSize;
 1322              		.loc 1 1265 0
 1323 007e FB68     		ldr	r3, [r7, #12]	@ tmp176, pxQueue
 1324 0080 DA68     		ldr	r2, [r3, #12]	@ D.5261, pxQueue_1(D)->pcReadFrom
 1325 0082 FB68     		ldr	r3, [r7, #12]	@ tmp177, pxQueue
 1326 0084 1B6C     		ldr	r3, [r3, #64]	@ D.5262, pxQueue_1(D)->uxItemSize
 1327 0086 C3F10003 		rsb	r3, r3, #0	@ D.5263, D.5262
 1328 008a D218     		adds	r2, r2, r3	@ D.5264, D.5261, D.5263
 1329 008c FB68     		ldr	r3, [r7, #12]	@ tmp178, pxQueue
 1330 008e DA60     		str	r2, [r3, #12]	@ D.5264, pxQueue_1(D)->pcReadFrom
1266:Source/queue.c **** 		if( pxQueue->pcReadFrom < pxQueue->pcHead )
 1331              		.loc 1 1266 0
 1332 0090 FB68     		ldr	r3, [r7, #12]	@ tmp179, pxQueue
 1333 0092 DA68     		ldr	r2, [r3, #12]	@ D.5265, pxQueue_1(D)->pcReadFrom
 1334 0094 FB68     		ldr	r3, [r7, #12]	@ tmp180, pxQueue
 1335 0096 1B68     		ldr	r3, [r3, #0]	@ D.5266, pxQueue_1(D)->pcHead
 1336 0098 9A42     		cmp	r2, r3	@ D.5265, D.5266
ARM GAS  C:\Users\Grzybek\AppData\Local\Temp\ccXBk3wH.s 			page 48


 1337 009a 08D2     		bcs	.L71	@,
1267:Source/queue.c **** 		{
1268:Source/queue.c **** 			pxQueue->pcReadFrom = ( pxQueue->pcTail - pxQueue->uxItemSize );
 1338              		.loc 1 1268 0
 1339 009c FB68     		ldr	r3, [r7, #12]	@ tmp181, pxQueue
 1340 009e 5A68     		ldr	r2, [r3, #4]	@ D.5269, pxQueue_1(D)->pcTail
 1341 00a0 FB68     		ldr	r3, [r7, #12]	@ tmp182, pxQueue
 1342 00a2 1B6C     		ldr	r3, [r3, #64]	@ D.5270, pxQueue_1(D)->uxItemSize
 1343 00a4 C3F10003 		rsb	r3, r3, #0	@ D.5271, D.5270
 1344 00a8 D218     		adds	r2, r2, r3	@ D.5272, D.5269, D.5271
 1345 00aa FB68     		ldr	r3, [r7, #12]	@ tmp183, pxQueue
 1346 00ac DA60     		str	r2, [r3, #12]	@ D.5272, pxQueue_1(D)->pcReadFrom
 1347              	.L71:
1269:Source/queue.c **** 		}
1270:Source/queue.c **** 	}
1271:Source/queue.c **** 
1272:Source/queue.c **** 	++( pxQueue->uxMessagesWaiting );
 1348              		.loc 1 1272 0
 1349 00ae FB68     		ldr	r3, [r7, #12]	@ tmp184, pxQueue
 1350 00b0 9B6B     		ldr	r3, [r3, #56]	@ D.5273, pxQueue_1(D)->uxMessagesWaiting
 1351 00b2 03F10102 		add	r2, r3, #1	@ D.5274, D.5273,
 1352 00b6 FB68     		ldr	r3, [r7, #12]	@ tmp185, pxQueue
 1353 00b8 9A63     		str	r2, [r3, #56]	@ D.5274, pxQueue_1(D)->uxMessagesWaiting
1273:Source/queue.c **** }
 1354              		.loc 1 1273 0
 1355 00ba 07F11007 		add	r7, r7, #16	@,,
 1356 00be BD46     		mov	sp, r7
 1357 00c0 80BD     		pop	{r7, pc}
 1358              		.cfi_endproc
 1359              	.LFE12:
 1360              		.size	prvCopyDataToQueue, .-prvCopyDataToQueue
 1361 00c2 00BF     		.section	.text.prvCopyDataFromQueue,"ax",%progbits
 1362              		.align	2
 1363              		.thumb
 1364              		.thumb_func
 1365              		.type	prvCopyDataFromQueue, %function
 1366              	prvCopyDataFromQueue:
 1367              	.LFB13:
1274:Source/queue.c **** /*-----------------------------------------------------------*/
1275:Source/queue.c **** 
1276:Source/queue.c **** static void prvCopyDataFromQueue( xQUEUE * const pxQueue, const void *pvBuffer )
1277:Source/queue.c **** {
 1368              		.loc 1 1277 0
 1369              		.cfi_startproc
 1370              		@ args = 0, pretend = 0, frame = 8
 1371              		@ frame_needed = 1, uses_anonymous_args = 0
 1372 0000 80B5     		push	{r7, lr}	@
 1373              	.LCFI39:
 1374              		.cfi_def_cfa_offset 8
 1375              		.cfi_offset 7, -8
 1376              		.cfi_offset 14, -4
 1377 0002 82B0     		sub	sp, sp, #8	@,,
 1378              	.LCFI40:
 1379              		.cfi_def_cfa_offset 16
 1380 0004 00AF     		add	r7, sp, #0	@,,
 1381              	.LCFI41:
 1382              		.cfi_def_cfa_register 7
ARM GAS  C:\Users\Grzybek\AppData\Local\Temp\ccXBk3wH.s 			page 49


 1383 0006 7860     		str	r0, [r7, #4]	@ pxQueue, pxQueue
 1384 0008 3960     		str	r1, [r7, #0]	@ pvBuffer, pvBuffer
1278:Source/queue.c **** 	if( pxQueue->uxQueueType != queueQUEUE_IS_MUTEX )
 1385              		.loc 1 1278 0
 1386 000a 7B68     		ldr	r3, [r7, #4]	@ tmp143, pxQueue
 1387 000c 1B68     		ldr	r3, [r3, #0]	@ D.5225, pxQueue_1(D)->pcHead
 1388 000e 002B     		cmp	r3, #0	@ D.5225,
 1389 0010 19D0     		beq	.L73	@,
1279:Source/queue.c **** 	{
1280:Source/queue.c **** 		pxQueue->pcReadFrom += pxQueue->uxItemSize;
 1390              		.loc 1 1280 0
 1391 0012 7B68     		ldr	r3, [r7, #4]	@ tmp144, pxQueue
 1392 0014 DA68     		ldr	r2, [r3, #12]	@ D.5228, pxQueue_1(D)->pcReadFrom
 1393 0016 7B68     		ldr	r3, [r7, #4]	@ tmp145, pxQueue
 1394 0018 1B6C     		ldr	r3, [r3, #64]	@ D.5229, pxQueue_1(D)->uxItemSize
 1395 001a D218     		adds	r2, r2, r3	@ D.5230, D.5228, D.5229
 1396 001c 7B68     		ldr	r3, [r7, #4]	@ tmp146, pxQueue
 1397 001e DA60     		str	r2, [r3, #12]	@ D.5230, pxQueue_1(D)->pcReadFrom
1281:Source/queue.c **** 		if( pxQueue->pcReadFrom >= pxQueue->pcTail )
 1398              		.loc 1 1281 0
 1399 0020 7B68     		ldr	r3, [r7, #4]	@ tmp147, pxQueue
 1400 0022 DA68     		ldr	r2, [r3, #12]	@ D.5231, pxQueue_1(D)->pcReadFrom
 1401 0024 7B68     		ldr	r3, [r7, #4]	@ tmp148, pxQueue
 1402 0026 5B68     		ldr	r3, [r3, #4]	@ D.5232, pxQueue_1(D)->pcTail
 1403 0028 9A42     		cmp	r2, r3	@ D.5231, D.5232
 1404 002a 03D3     		bcc	.L75	@,
1282:Source/queue.c **** 		{
1283:Source/queue.c **** 			pxQueue->pcReadFrom = pxQueue->pcHead;
 1405              		.loc 1 1283 0
 1406 002c 7B68     		ldr	r3, [r7, #4]	@ tmp149, pxQueue
 1407 002e 1A68     		ldr	r2, [r3, #0]	@ D.5235, pxQueue_1(D)->pcHead
 1408 0030 7B68     		ldr	r3, [r7, #4]	@ tmp150, pxQueue
 1409 0032 DA60     		str	r2, [r3, #12]	@ D.5235, pxQueue_1(D)->pcReadFrom
 1410              	.L75:
1284:Source/queue.c **** 		}
1285:Source/queue.c **** 		memcpy( ( void * ) pvBuffer, ( void * ) pxQueue->pcReadFrom, ( unsigned ) pxQueue->uxItemSize );
 1411              		.loc 1 1285 0
 1412 0034 7B68     		ldr	r3, [r7, #4]	@ tmp151, pxQueue
 1413 0036 DA68     		ldr	r2, [r3, #12]	@ D.5236, pxQueue_1(D)->pcReadFrom
 1414 0038 7B68     		ldr	r3, [r7, #4]	@ tmp152, pxQueue
 1415 003a 1B6C     		ldr	r3, [r3, #64]	@ D.5237, pxQueue_1(D)->uxItemSize
 1416 003c 3868     		ldr	r0, [r7, #0]	@, pvBuffer
 1417 003e 1146     		mov	r1, r2	@, D.5236
 1418 0040 1A46     		mov	r2, r3	@, D.5237
 1419 0042 FFF7FEFF 		bl	memcpy	@
 1420              	.L73:
1286:Source/queue.c **** 	}
1287:Source/queue.c **** }
 1421              		.loc 1 1287 0
 1422 0046 07F10807 		add	r7, r7, #8	@,,
 1423 004a BD46     		mov	sp, r7
 1424 004c 80BD     		pop	{r7, pc}
 1425              		.cfi_endproc
 1426              	.LFE13:
 1427              		.size	prvCopyDataFromQueue, .-prvCopyDataFromQueue
 1428 004e 00BF     		.section	.text.prvUnlockQueue,"ax",%progbits
 1429              		.align	2
ARM GAS  C:\Users\Grzybek\AppData\Local\Temp\ccXBk3wH.s 			page 50


 1430              		.thumb
 1431              		.thumb_func
 1432              		.type	prvUnlockQueue, %function
 1433              	prvUnlockQueue:
 1434              	.LFB14:
1288:Source/queue.c **** /*-----------------------------------------------------------*/
1289:Source/queue.c **** 
1290:Source/queue.c **** static void prvUnlockQueue( xQueueHandle pxQueue )
1291:Source/queue.c **** {
 1435              		.loc 1 1291 0
 1436              		.cfi_startproc
 1437              		@ args = 0, pretend = 0, frame = 8
 1438              		@ frame_needed = 1, uses_anonymous_args = 0
 1439 0000 80B5     		push	{r7, lr}	@
 1440              	.LCFI42:
 1441              		.cfi_def_cfa_offset 8
 1442              		.cfi_offset 7, -8
 1443              		.cfi_offset 14, -4
 1444 0002 82B0     		sub	sp, sp, #8	@,,
 1445              	.LCFI43:
 1446              		.cfi_def_cfa_offset 16
 1447 0004 00AF     		add	r7, sp, #0	@,,
 1448              	.LCFI44:
 1449              		.cfi_def_cfa_register 7
 1450 0006 7860     		str	r0, [r7, #4]	@ pxQueue, pxQueue
1292:Source/queue.c **** 	/* THIS FUNCTION MUST BE CALLED WITH THE SCHEDULER SUSPENDED. */
1293:Source/queue.c **** 
1294:Source/queue.c **** 	/* The lock counts contains the number of extra data items placed or
1295:Source/queue.c **** 	removed from the queue while the queue was locked.  When a queue is
1296:Source/queue.c **** 	locked items can be added or removed, but the event lists cannot be
1297:Source/queue.c **** 	updated. */
1298:Source/queue.c **** 	taskENTER_CRITICAL();
 1451              		.loc 1 1298 0
 1452 0008 FFF7FEFF 		bl	vPortEnterCritical	@
1299:Source/queue.c **** 	{
1300:Source/queue.c **** 		/* See if data was added to the queue while it was locked. */
1301:Source/queue.c **** 		while( pxQueue->xTxLock > queueLOCKED_UNMODIFIED )
 1453              		.loc 1 1301 0
 1454 000c 14E0     		b	.L77	@
 1455              	.L81:
1302:Source/queue.c **** 		{
1303:Source/queue.c **** 			/* Data was posted while the queue was locked.  Are any tasks
1304:Source/queue.c **** 			blocked waiting for data to become available? */
1305:Source/queue.c **** 			if( listLIST_IS_EMPTY( &( pxQueue->xTasksWaitingToReceive ) ) == pdFALSE )
 1456              		.loc 1 1305 0
 1457 000e 7B68     		ldr	r3, [r7, #4]	@ tmp146, pxQueue
 1458 0010 5B6A     		ldr	r3, [r3, #36]	@ D.5203, pxQueue_1(D)->xTasksWaitingToReceive.uxNumberOfItems
 1459 0012 002B     		cmp	r3, #0	@ D.5203,
 1460 0014 15D0     		beq	.L87	@,
1306:Source/queue.c **** 			{
1307:Source/queue.c **** 				/* Tasks that are removed from the event list will get added to
1308:Source/queue.c **** 				the pending ready list as the scheduler is still suspended. */
1309:Source/queue.c **** 				if( xTaskRemoveFromEventList( &( pxQueue->xTasksWaitingToReceive ) ) != pdFALSE )
 1461              		.loc 1 1309 0
 1462 0016 7B68     		ldr	r3, [r7, #4]	@ tmp147, pxQueue
 1463 0018 03F12403 		add	r3, r3, #36	@ D.5206, tmp147,
 1464 001c 1846     		mov	r0, r3	@, D.5206
ARM GAS  C:\Users\Grzybek\AppData\Local\Temp\ccXBk3wH.s 			page 51


 1465 001e FFF7FEFF 		bl	xTaskRemoveFromEventList	@
 1466 0022 0346     		mov	r3, r0	@ D.5207,
 1467 0024 002B     		cmp	r3, #0	@ D.5207,
 1468 0026 01D0     		beq	.L79	@,
1310:Source/queue.c **** 				{
1311:Source/queue.c **** 					/* The task waiting has a higher priority so record that a
1312:Source/queue.c **** 					context	switch is required. */
1313:Source/queue.c **** 					vTaskMissedYield();
 1469              		.loc 1 1313 0
 1470 0028 FFF7FEFF 		bl	vTaskMissedYield	@
 1471              	.L79:
1314:Source/queue.c **** 				}
1315:Source/queue.c **** 
1316:Source/queue.c **** 				--( pxQueue->xTxLock );
 1472              		.loc 1 1316 0
 1473 002c 7B68     		ldr	r3, [r7, #4]	@ tmp148, pxQueue
 1474 002e 9B6C     		ldr	r3, [r3, #72]	@ D.5210, pxQueue_1(D)->xTxLock
 1475 0030 03F1FF32 		add	r2, r3, #-1	@ D.5211, D.5210,
 1476 0034 7B68     		ldr	r3, [r7, #4]	@ tmp149, pxQueue
 1477 0036 9A64     		str	r2, [r3, #72]	@ D.5211, pxQueue_1(D)->xTxLock
 1478              	.L77:
1301:Source/queue.c **** 		while( pxQueue->xTxLock > queueLOCKED_UNMODIFIED )
 1479              		.loc 1 1301 0 discriminator 1
 1480 0038 7B68     		ldr	r3, [r7, #4]	@ tmp150, pxQueue
 1481 003a 9B6C     		ldr	r3, [r3, #72]	@ D.5213, pxQueue_1(D)->xTxLock
 1482 003c 002B     		cmp	r3, #0	@ D.5213,
 1483 003e E6DC     		bgt	.L81	@,
 1484 0040 00E0     		b	.L80	@
 1485              	.L87:
1317:Source/queue.c **** 			}
1318:Source/queue.c **** 			else
1319:Source/queue.c **** 			{
1320:Source/queue.c **** 				break;
 1486              		.loc 1 1320 0
 1487 0042 00BF     		nop
 1488              	.L80:
1321:Source/queue.c **** 			}
1322:Source/queue.c **** 		}
1323:Source/queue.c **** 
1324:Source/queue.c **** 		pxQueue->xTxLock = queueUNLOCKED;
 1489              		.loc 1 1324 0
 1490 0044 7B68     		ldr	r3, [r7, #4]	@ tmp151, pxQueue
 1491 0046 4FF0FF32 		mov	r2, #-1	@ tmp152,
 1492 004a 9A64     		str	r2, [r3, #72]	@ tmp152, pxQueue_1(D)->xTxLock
1325:Source/queue.c **** 	}
1326:Source/queue.c **** 	taskEXIT_CRITICAL();
 1493              		.loc 1 1326 0
 1494 004c FFF7FEFF 		bl	vPortExitCritical	@
1327:Source/queue.c **** 
1328:Source/queue.c **** 	/* Do the same for the Rx lock. */
1329:Source/queue.c **** 	taskENTER_CRITICAL();
 1495              		.loc 1 1329 0
 1496 0050 FFF7FEFF 		bl	vPortEnterCritical	@
1330:Source/queue.c **** 	{
1331:Source/queue.c **** 		while( pxQueue->xRxLock > queueLOCKED_UNMODIFIED )
 1497              		.loc 1 1331 0
 1498 0054 14E0     		b	.L82	@
ARM GAS  C:\Users\Grzybek\AppData\Local\Temp\ccXBk3wH.s 			page 52


 1499              	.L86:
1332:Source/queue.c **** 		{
1333:Source/queue.c **** 			if( listLIST_IS_EMPTY( &( pxQueue->xTasksWaitingToSend ) ) == pdFALSE )
 1500              		.loc 1 1333 0
 1501 0056 7B68     		ldr	r3, [r7, #4]	@ tmp153, pxQueue
 1502 0058 1B69     		ldr	r3, [r3, #16]	@ D.5214, pxQueue_1(D)->xTasksWaitingToSend.uxNumberOfItems
 1503 005a 002B     		cmp	r3, #0	@ D.5214,
 1504 005c 15D0     		beq	.L88	@,
1334:Source/queue.c **** 			{
1335:Source/queue.c **** 				if( xTaskRemoveFromEventList( &( pxQueue->xTasksWaitingToSend ) ) != pdFALSE )
 1505              		.loc 1 1335 0
 1506 005e 7B68     		ldr	r3, [r7, #4]	@ tmp154, pxQueue
 1507 0060 03F11003 		add	r3, r3, #16	@ D.5217, tmp154,
 1508 0064 1846     		mov	r0, r3	@, D.5217
 1509 0066 FFF7FEFF 		bl	xTaskRemoveFromEventList	@
 1510 006a 0346     		mov	r3, r0	@ D.5218,
 1511 006c 002B     		cmp	r3, #0	@ D.5218,
 1512 006e 01D0     		beq	.L84	@,
1336:Source/queue.c **** 				{
1337:Source/queue.c **** 					vTaskMissedYield();
 1513              		.loc 1 1337 0
 1514 0070 FFF7FEFF 		bl	vTaskMissedYield	@
 1515              	.L84:
1338:Source/queue.c **** 				}
1339:Source/queue.c **** 
1340:Source/queue.c **** 				--( pxQueue->xRxLock );
 1516              		.loc 1 1340 0
 1517 0074 7B68     		ldr	r3, [r7, #4]	@ tmp155, pxQueue
 1518 0076 5B6C     		ldr	r3, [r3, #68]	@ D.5221, pxQueue_1(D)->xRxLock
 1519 0078 03F1FF32 		add	r2, r3, #-1	@ D.5222, D.5221,
 1520 007c 7B68     		ldr	r3, [r7, #4]	@ tmp156, pxQueue
 1521 007e 5A64     		str	r2, [r3, #68]	@ D.5222, pxQueue_1(D)->xRxLock
 1522              	.L82:
1331:Source/queue.c **** 		while( pxQueue->xRxLock > queueLOCKED_UNMODIFIED )
 1523              		.loc 1 1331 0 discriminator 1
 1524 0080 7B68     		ldr	r3, [r7, #4]	@ tmp157, pxQueue
 1525 0082 5B6C     		ldr	r3, [r3, #68]	@ D.5224, pxQueue_1(D)->xRxLock
 1526 0084 002B     		cmp	r3, #0	@ D.5224,
 1527 0086 E6DC     		bgt	.L86	@,
 1528 0088 00E0     		b	.L85	@
 1529              	.L88:
1341:Source/queue.c **** 			}
1342:Source/queue.c **** 			else
1343:Source/queue.c **** 			{
1344:Source/queue.c **** 				break;
 1530              		.loc 1 1344 0
 1531 008a 00BF     		nop
 1532              	.L85:
1345:Source/queue.c **** 			}
1346:Source/queue.c **** 		}
1347:Source/queue.c **** 
1348:Source/queue.c **** 		pxQueue->xRxLock = queueUNLOCKED;
 1533              		.loc 1 1348 0
 1534 008c 7B68     		ldr	r3, [r7, #4]	@ tmp158, pxQueue
 1535 008e 4FF0FF32 		mov	r2, #-1	@ tmp159,
 1536 0092 5A64     		str	r2, [r3, #68]	@ tmp159, pxQueue_1(D)->xRxLock
1349:Source/queue.c **** 	}
ARM GAS  C:\Users\Grzybek\AppData\Local\Temp\ccXBk3wH.s 			page 53


1350:Source/queue.c **** 	taskEXIT_CRITICAL();
 1537              		.loc 1 1350 0
 1538 0094 FFF7FEFF 		bl	vPortExitCritical	@
1351:Source/queue.c **** }
 1539              		.loc 1 1351 0
 1540 0098 07F10807 		add	r7, r7, #8	@,,
 1541 009c BD46     		mov	sp, r7
 1542 009e 80BD     		pop	{r7, pc}
 1543              		.cfi_endproc
 1544              	.LFE14:
 1545              		.size	prvUnlockQueue, .-prvUnlockQueue
 1546              		.section	.text.prvIsQueueEmpty,"ax",%progbits
 1547              		.align	2
 1548              		.thumb
 1549              		.thumb_func
 1550              		.type	prvIsQueueEmpty, %function
 1551              	prvIsQueueEmpty:
 1552              	.LFB15:
1352:Source/queue.c **** /*-----------------------------------------------------------*/
1353:Source/queue.c **** 
1354:Source/queue.c **** static signed portBASE_TYPE prvIsQueueEmpty( const xQueueHandle pxQueue )
1355:Source/queue.c **** {
 1553              		.loc 1 1355 0
 1554              		.cfi_startproc
 1555              		@ args = 0, pretend = 0, frame = 16
 1556              		@ frame_needed = 1, uses_anonymous_args = 0
 1557 0000 80B5     		push	{r7, lr}	@
 1558              	.LCFI45:
 1559              		.cfi_def_cfa_offset 8
 1560              		.cfi_offset 7, -8
 1561              		.cfi_offset 14, -4
 1562 0002 84B0     		sub	sp, sp, #16	@,,
 1563              	.LCFI46:
 1564              		.cfi_def_cfa_offset 24
 1565 0004 00AF     		add	r7, sp, #0	@,,
 1566              	.LCFI47:
 1567              		.cfi_def_cfa_register 7
 1568 0006 7860     		str	r0, [r7, #4]	@ pxQueue, pxQueue
1356:Source/queue.c **** signed portBASE_TYPE xReturn;
1357:Source/queue.c **** 
1358:Source/queue.c **** 	taskENTER_CRITICAL();
 1569              		.loc 1 1358 0
 1570 0008 FFF7FEFF 		bl	vPortEnterCritical	@
1359:Source/queue.c **** 		xReturn = ( pxQueue->uxMessagesWaiting == ( unsigned portBASE_TYPE ) 0 );
 1571              		.loc 1 1359 0
 1572 000c 7B68     		ldr	r3, [r7, #4]	@ tmp138, pxQueue
 1573 000e 9B6B     		ldr	r3, [r3, #56]	@ D.5199, pxQueue_1(D)->uxMessagesWaiting
 1574 0010 002B     		cmp	r3, #0	@ D.5199,
 1575 0012 14BF     		ite	ne	@
 1576 0014 0023     		movne	r3, #0	@, tmp140
 1577 0016 0123     		moveq	r3, #1	@, tmp140
 1578 0018 DBB2     		uxtb	r3, r3	@ D.5200, tmp139
 1579 001a FB60     		str	r3, [r7, #12]	@ D.5200, xReturn
1360:Source/queue.c **** 	taskEXIT_CRITICAL();
 1580              		.loc 1 1360 0
 1581 001c FFF7FEFF 		bl	vPortExitCritical	@
1361:Source/queue.c **** 
ARM GAS  C:\Users\Grzybek\AppData\Local\Temp\ccXBk3wH.s 			page 54


1362:Source/queue.c **** 	return xReturn;
 1582              		.loc 1 1362 0
 1583 0020 FB68     		ldr	r3, [r7, #12]	@ D.5201, xReturn
1363:Source/queue.c **** }
 1584              		.loc 1 1363 0
 1585 0022 1846     		mov	r0, r3	@, <retval>
 1586 0024 07F11007 		add	r7, r7, #16	@,,
 1587 0028 BD46     		mov	sp, r7
 1588 002a 80BD     		pop	{r7, pc}
 1589              		.cfi_endproc
 1590              	.LFE15:
 1591              		.size	prvIsQueueEmpty, .-prvIsQueueEmpty
 1592              		.section	.text.xQueueIsQueueEmptyFromISR,"ax",%progbits
 1593              		.align	2
 1594              		.global	xQueueIsQueueEmptyFromISR
 1595              		.thumb
 1596              		.thumb_func
 1597              		.type	xQueueIsQueueEmptyFromISR, %function
 1598              	xQueueIsQueueEmptyFromISR:
 1599              	.LFB16:
1364:Source/queue.c **** /*-----------------------------------------------------------*/
1365:Source/queue.c **** 
1366:Source/queue.c **** signed portBASE_TYPE xQueueIsQueueEmptyFromISR( const xQueueHandle pxQueue )
1367:Source/queue.c **** {
 1600              		.loc 1 1367 0
 1601              		.cfi_startproc
 1602              		@ args = 0, pretend = 0, frame = 16
 1603              		@ frame_needed = 1, uses_anonymous_args = 0
 1604              		@ link register save eliminated.
 1605 0000 80B4     		push	{r7}	@
 1606              	.LCFI48:
 1607              		.cfi_def_cfa_offset 4
 1608              		.cfi_offset 7, -4
 1609 0002 85B0     		sub	sp, sp, #20	@,,
 1610              	.LCFI49:
 1611              		.cfi_def_cfa_offset 24
 1612 0004 00AF     		add	r7, sp, #0	@,,
 1613              	.LCFI50:
 1614              		.cfi_def_cfa_register 7
 1615 0006 7860     		str	r0, [r7, #4]	@ pxQueue, pxQueue
1368:Source/queue.c **** signed portBASE_TYPE xReturn;
1369:Source/queue.c **** 
1370:Source/queue.c **** 	configASSERT( pxQueue );
1371:Source/queue.c **** 	xReturn = ( pxQueue->uxMessagesWaiting == ( unsigned portBASE_TYPE ) 0 );
 1616              		.loc 1 1371 0
 1617 0008 7B68     		ldr	r3, [r7, #4]	@ tmp138, pxQueue
 1618 000a 9B6B     		ldr	r3, [r3, #56]	@ D.5195, pxQueue_1(D)->uxMessagesWaiting
 1619 000c 002B     		cmp	r3, #0	@ D.5195,
 1620 000e 14BF     		ite	ne	@
 1621 0010 0023     		movne	r3, #0	@, tmp140
 1622 0012 0123     		moveq	r3, #1	@, tmp140
 1623 0014 DBB2     		uxtb	r3, r3	@ D.5196, tmp139
 1624 0016 FB60     		str	r3, [r7, #12]	@ D.5196, xReturn
1372:Source/queue.c **** 
1373:Source/queue.c **** 	return xReturn;
 1625              		.loc 1 1373 0
 1626 0018 FB68     		ldr	r3, [r7, #12]	@ D.5197, xReturn
ARM GAS  C:\Users\Grzybek\AppData\Local\Temp\ccXBk3wH.s 			page 55


1374:Source/queue.c **** }
 1627              		.loc 1 1374 0
 1628 001a 1846     		mov	r0, r3	@, <retval>
 1629 001c 07F11407 		add	r7, r7, #20	@,,
 1630 0020 BD46     		mov	sp, r7
 1631 0022 80BC     		pop	{r7}
 1632 0024 7047     		bx	lr
 1633              		.cfi_endproc
 1634              	.LFE16:
 1635              		.size	xQueueIsQueueEmptyFromISR, .-xQueueIsQueueEmptyFromISR
 1636 0026 00BF     		.section	.text.prvIsQueueFull,"ax",%progbits
 1637              		.align	2
 1638              		.thumb
 1639              		.thumb_func
 1640              		.type	prvIsQueueFull, %function
 1641              	prvIsQueueFull:
 1642              	.LFB17:
1375:Source/queue.c **** /*-----------------------------------------------------------*/
1376:Source/queue.c **** 
1377:Source/queue.c **** static signed portBASE_TYPE prvIsQueueFull( const xQueueHandle pxQueue )
1378:Source/queue.c **** {
 1643              		.loc 1 1378 0
 1644              		.cfi_startproc
 1645              		@ args = 0, pretend = 0, frame = 16
 1646              		@ frame_needed = 1, uses_anonymous_args = 0
 1647 0000 80B5     		push	{r7, lr}	@
 1648              	.LCFI51:
 1649              		.cfi_def_cfa_offset 8
 1650              		.cfi_offset 7, -8
 1651              		.cfi_offset 14, -4
 1652 0002 84B0     		sub	sp, sp, #16	@,,
 1653              	.LCFI52:
 1654              		.cfi_def_cfa_offset 24
 1655 0004 00AF     		add	r7, sp, #0	@,,
 1656              	.LCFI53:
 1657              		.cfi_def_cfa_register 7
 1658 0006 7860     		str	r0, [r7, #4]	@ pxQueue, pxQueue
1379:Source/queue.c **** signed portBASE_TYPE xReturn;
1380:Source/queue.c **** 
1381:Source/queue.c **** 	taskENTER_CRITICAL();
 1659              		.loc 1 1381 0
 1660 0008 FFF7FEFF 		bl	vPortEnterCritical	@
1382:Source/queue.c **** 		xReturn = ( pxQueue->uxMessagesWaiting == pxQueue->uxLength );
 1661              		.loc 1 1382 0
 1662 000c 7B68     		ldr	r3, [r7, #4]	@ tmp139, pxQueue
 1663 000e 9A6B     		ldr	r2, [r3, #56]	@ D.5190, pxQueue_1(D)->uxMessagesWaiting
 1664 0010 7B68     		ldr	r3, [r7, #4]	@ tmp140, pxQueue
 1665 0012 DB6B     		ldr	r3, [r3, #60]	@ D.5191, pxQueue_1(D)->uxLength
 1666 0014 9A42     		cmp	r2, r3	@ D.5190, D.5191
 1667 0016 14BF     		ite	ne	@
 1668 0018 0023     		movne	r3, #0	@, tmp142
 1669 001a 0123     		moveq	r3, #1	@, tmp142
 1670 001c DBB2     		uxtb	r3, r3	@ D.5192, tmp141
 1671 001e FB60     		str	r3, [r7, #12]	@ D.5192, xReturn
1383:Source/queue.c **** 	taskEXIT_CRITICAL();
 1672              		.loc 1 1383 0
 1673 0020 FFF7FEFF 		bl	vPortExitCritical	@
ARM GAS  C:\Users\Grzybek\AppData\Local\Temp\ccXBk3wH.s 			page 56


1384:Source/queue.c **** 
1385:Source/queue.c **** 	return xReturn;
 1674              		.loc 1 1385 0
 1675 0024 FB68     		ldr	r3, [r7, #12]	@ D.5193, xReturn
1386:Source/queue.c **** }
 1676              		.loc 1 1386 0
 1677 0026 1846     		mov	r0, r3	@, <retval>
 1678 0028 07F11007 		add	r7, r7, #16	@,,
 1679 002c BD46     		mov	sp, r7
 1680 002e 80BD     		pop	{r7, pc}
 1681              		.cfi_endproc
 1682              	.LFE17:
 1683              		.size	prvIsQueueFull, .-prvIsQueueFull
 1684              		.section	.text.xQueueIsQueueFullFromISR,"ax",%progbits
 1685              		.align	2
 1686              		.global	xQueueIsQueueFullFromISR
 1687              		.thumb
 1688              		.thumb_func
 1689              		.type	xQueueIsQueueFullFromISR, %function
 1690              	xQueueIsQueueFullFromISR:
 1691              	.LFB18:
1387:Source/queue.c **** /*-----------------------------------------------------------*/
1388:Source/queue.c **** 
1389:Source/queue.c **** signed portBASE_TYPE xQueueIsQueueFullFromISR( const xQueueHandle pxQueue )
1390:Source/queue.c **** {
 1692              		.loc 1 1390 0
 1693              		.cfi_startproc
 1694              		@ args = 0, pretend = 0, frame = 16
 1695              		@ frame_needed = 1, uses_anonymous_args = 0
 1696              		@ link register save eliminated.
 1697 0000 80B4     		push	{r7}	@
 1698              	.LCFI54:
 1699              		.cfi_def_cfa_offset 4
 1700              		.cfi_offset 7, -4
 1701 0002 85B0     		sub	sp, sp, #20	@,,
 1702              	.LCFI55:
 1703              		.cfi_def_cfa_offset 24
 1704 0004 00AF     		add	r7, sp, #0	@,,
 1705              	.LCFI56:
 1706              		.cfi_def_cfa_register 7
 1707 0006 7860     		str	r0, [r7, #4]	@ pxQueue, pxQueue
1391:Source/queue.c **** signed portBASE_TYPE xReturn;
1392:Source/queue.c **** 
1393:Source/queue.c **** 	configASSERT( pxQueue );
1394:Source/queue.c **** 	xReturn = ( pxQueue->uxMessagesWaiting == pxQueue->uxLength );
 1708              		.loc 1 1394 0
 1709 0008 7B68     		ldr	r3, [r7, #4]	@ tmp139, pxQueue
 1710 000a 9A6B     		ldr	r2, [r3, #56]	@ D.5185, pxQueue_1(D)->uxMessagesWaiting
 1711 000c 7B68     		ldr	r3, [r7, #4]	@ tmp140, pxQueue
 1712 000e DB6B     		ldr	r3, [r3, #60]	@ D.5186, pxQueue_1(D)->uxLength
 1713 0010 9A42     		cmp	r2, r3	@ D.5185, D.5186
 1714 0012 14BF     		ite	ne	@
 1715 0014 0023     		movne	r3, #0	@, tmp142
 1716 0016 0123     		moveq	r3, #1	@, tmp142
 1717 0018 DBB2     		uxtb	r3, r3	@ D.5187, tmp141
 1718 001a FB60     		str	r3, [r7, #12]	@ D.5187, xReturn
1395:Source/queue.c **** 
ARM GAS  C:\Users\Grzybek\AppData\Local\Temp\ccXBk3wH.s 			page 57


1396:Source/queue.c **** 	return xReturn;
 1719              		.loc 1 1396 0
 1720 001c FB68     		ldr	r3, [r7, #12]	@ D.5188, xReturn
1397:Source/queue.c **** }
 1721              		.loc 1 1397 0
 1722 001e 1846     		mov	r0, r3	@, <retval>
 1723 0020 07F11407 		add	r7, r7, #20	@,,
 1724 0024 BD46     		mov	sp, r7
 1725 0026 80BC     		pop	{r7}
 1726 0028 7047     		bx	lr
 1727              		.cfi_endproc
 1728              	.LFE18:
 1729              		.size	xQueueIsQueueFullFromISR, .-xQueueIsQueueFullFromISR
 1730 002a 00BF     		.text
 1731              	.Letext0:
 1732              		.file 2 "c:\\codesourcery\\sourcery_codebench_lite_for_arm_eabi\\bin\\../lib/gcc/arm-none-eabi/4.7
 1733              		.file 3 "./Source/include/../../Source/portable/GCC/ARM_CM3/portmacro.h"
 1734              		.file 4 "./Source/include/list.h"
 1735              		.file 5 "./Source/include/task.h"
 1736              		.section	.debug_info,"",%progbits
 1737              	.Ldebug_info0:
 1738 0000 68080000 		.4byte	0x868
 1739 0004 0200     		.2byte	0x2
 1740 0006 00000000 		.4byte	.Ldebug_abbrev0
 1741 000a 04       		.byte	0x4
 1742 000b 01       		.uleb128 0x1
 1743 000c E3090000 		.4byte	.LASF85
 1744 0010 01       		.byte	0x1
 1745 0011 DC1F0000 		.4byte	.LASF86
 1746 0015 F8640000 		.4byte	.LASF87
 1747 0019 00000000 		.4byte	.Ldebug_ranges0+0
 1748 001d 00000000 		.4byte	0
 1749 0021 00000000 		.4byte	0
 1750 0025 00000000 		.4byte	.Ldebug_line0
 1751 0029 00000000 		.4byte	.Ldebug_macro0
 1752 002d 02       		.uleb128 0x2
 1753 002e 7B000000 		.4byte	.LASF11
 1754 0032 02       		.byte	0x2
 1755 0033 D5       		.byte	0xd5
 1756 0034 38000000 		.4byte	0x38
 1757 0038 03       		.uleb128 0x3
 1758 0039 04       		.byte	0x4
 1759 003a 07       		.byte	0x7
 1760 003b 0D3A0000 		.4byte	.LASF0
 1761 003f 03       		.uleb128 0x3
 1762 0040 01       		.byte	0x1
 1763 0041 06       		.byte	0x6
 1764 0042 C9130000 		.4byte	.LASF1
 1765 0046 03       		.uleb128 0x3
 1766 0047 01       		.byte	0x1
 1767 0048 08       		.byte	0x8
 1768 0049 38000000 		.4byte	.LASF2
 1769 004d 03       		.uleb128 0x3
 1770 004e 02       		.byte	0x2
 1771 004f 05       		.byte	0x5
 1772 0050 B2540000 		.4byte	.LASF3
 1773 0054 03       		.uleb128 0x3
ARM GAS  C:\Users\Grzybek\AppData\Local\Temp\ccXBk3wH.s 			page 58


 1774 0055 02       		.byte	0x2
 1775 0056 07       		.byte	0x7
 1776 0057 EE240000 		.4byte	.LASF4
 1777 005b 04       		.uleb128 0x4
 1778 005c 04       		.byte	0x4
 1779 005d 05       		.byte	0x5
 1780 005e 696E7400 		.ascii	"int\000"
 1781 0062 03       		.uleb128 0x3
 1782 0063 08       		.byte	0x8
 1783 0064 05       		.byte	0x5
 1784 0065 EA310000 		.4byte	.LASF5
 1785 0069 03       		.uleb128 0x3
 1786 006a 08       		.byte	0x8
 1787 006b 07       		.byte	0x7
 1788 006c ED460000 		.4byte	.LASF6
 1789 0070 03       		.uleb128 0x3
 1790 0071 04       		.byte	0x4
 1791 0072 05       		.byte	0x5
 1792 0073 060F0000 		.4byte	.LASF7
 1793 0077 03       		.uleb128 0x3
 1794 0078 04       		.byte	0x4
 1795 0079 07       		.byte	0x7
 1796 007a AD000000 		.4byte	.LASF8
 1797 007e 05       		.uleb128 0x5
 1798 007f 04       		.byte	0x4
 1799 0080 03       		.uleb128 0x3
 1800 0081 04       		.byte	0x4
 1801 0082 07       		.byte	0x7
 1802 0083 402A0000 		.4byte	.LASF9
 1803 0087 03       		.uleb128 0x3
 1804 0088 01       		.byte	0x1
 1805 0089 08       		.byte	0x8
 1806 008a 36190000 		.4byte	.LASF10
 1807 008e 02       		.uleb128 0x2
 1808 008f 2C3A0000 		.4byte	.LASF12
 1809 0093 03       		.byte	0x3
 1810 0094 64       		.byte	0x64
 1811 0095 80000000 		.4byte	0x80
 1812 0099 06       		.uleb128 0x6
 1813 009a BA370000 		.4byte	.LASF19
 1814 009e 14       		.byte	0x14
 1815 009f 04       		.byte	0x4
 1816 00a0 6B       		.byte	0x6b
 1817 00a1 EC000000 		.4byte	0xec
 1818 00a5 07       		.uleb128 0x7
 1819 00a6 C6640000 		.4byte	.LASF13
 1820 00aa 04       		.byte	0x4
 1821 00ab 6D       		.byte	0x6d
 1822 00ac 8E000000 		.4byte	0x8e
 1823 00b0 02       		.byte	0x2
 1824 00b1 23       		.byte	0x23
 1825 00b2 00       		.uleb128 0
 1826 00b3 07       		.uleb128 0x7
 1827 00b4 3C0B0000 		.4byte	.LASF14
 1828 00b8 04       		.byte	0x4
 1829 00b9 6E       		.byte	0x6e
 1830 00ba EC000000 		.4byte	0xec
ARM GAS  C:\Users\Grzybek\AppData\Local\Temp\ccXBk3wH.s 			page 59


 1831 00be 02       		.byte	0x2
 1832 00bf 23       		.byte	0x23
 1833 00c0 04       		.uleb128 0x4
 1834 00c1 07       		.uleb128 0x7
 1835 00c2 434A0000 		.4byte	.LASF15
 1836 00c6 04       		.byte	0x4
 1837 00c7 6F       		.byte	0x6f
 1838 00c8 EC000000 		.4byte	0xec
 1839 00cc 02       		.byte	0x2
 1840 00cd 23       		.byte	0x23
 1841 00ce 08       		.uleb128 0x8
 1842 00cf 07       		.uleb128 0x7
 1843 00d0 001E0000 		.4byte	.LASF16
 1844 00d4 04       		.byte	0x4
 1845 00d5 70       		.byte	0x70
 1846 00d6 7E000000 		.4byte	0x7e
 1847 00da 02       		.byte	0x2
 1848 00db 23       		.byte	0x23
 1849 00dc 0C       		.uleb128 0xc
 1850 00dd 07       		.uleb128 0x7
 1851 00de C51C0000 		.4byte	.LASF17
 1852 00e2 04       		.byte	0x4
 1853 00e3 71       		.byte	0x71
 1854 00e4 7E000000 		.4byte	0x7e
 1855 00e8 02       		.byte	0x2
 1856 00e9 23       		.byte	0x23
 1857 00ea 10       		.uleb128 0x10
 1858 00eb 00       		.byte	0
 1859 00ec 08       		.uleb128 0x8
 1860 00ed 04       		.byte	0x4
 1861 00ee F2000000 		.4byte	0xf2
 1862 00f2 09       		.uleb128 0x9
 1863 00f3 99000000 		.4byte	0x99
 1864 00f7 02       		.uleb128 0x2
 1865 00f8 9D4D0000 		.4byte	.LASF18
 1866 00fc 04       		.byte	0x4
 1867 00fd 73       		.byte	0x73
 1868 00fe 99000000 		.4byte	0x99
 1869 0102 06       		.uleb128 0x6
 1870 0103 C0190000 		.4byte	.LASF20
 1871 0107 0C       		.byte	0xc
 1872 0108 04       		.byte	0x4
 1873 0109 75       		.byte	0x75
 1874 010a 39010000 		.4byte	0x139
 1875 010e 07       		.uleb128 0x7
 1876 010f C6640000 		.4byte	.LASF13
 1877 0113 04       		.byte	0x4
 1878 0114 77       		.byte	0x77
 1879 0115 8E000000 		.4byte	0x8e
 1880 0119 02       		.byte	0x2
 1881 011a 23       		.byte	0x23
 1882 011b 00       		.uleb128 0
 1883 011c 07       		.uleb128 0x7
 1884 011d 3C0B0000 		.4byte	.LASF14
 1885 0121 04       		.byte	0x4
 1886 0122 78       		.byte	0x78
 1887 0123 EC000000 		.4byte	0xec
ARM GAS  C:\Users\Grzybek\AppData\Local\Temp\ccXBk3wH.s 			page 60


 1888 0127 02       		.byte	0x2
 1889 0128 23       		.byte	0x23
 1890 0129 04       		.uleb128 0x4
 1891 012a 07       		.uleb128 0x7
 1892 012b 434A0000 		.4byte	.LASF15
 1893 012f 04       		.byte	0x4
 1894 0130 79       		.byte	0x79
 1895 0131 EC000000 		.4byte	0xec
 1896 0135 02       		.byte	0x2
 1897 0136 23       		.byte	0x23
 1898 0137 08       		.uleb128 0x8
 1899 0138 00       		.byte	0
 1900 0139 02       		.uleb128 0x2
 1901 013a 34450000 		.4byte	.LASF21
 1902 013e 04       		.byte	0x4
 1903 013f 7B       		.byte	0x7b
 1904 0140 02010000 		.4byte	0x102
 1905 0144 06       		.uleb128 0x6
 1906 0145 FE520000 		.4byte	.LASF22
 1907 0149 14       		.byte	0x14
 1908 014a 04       		.byte	0x4
 1909 014b 80       		.byte	0x80
 1910 014c 7B010000 		.4byte	0x17b
 1911 0150 07       		.uleb128 0x7
 1912 0151 6E3B0000 		.4byte	.LASF23
 1913 0155 04       		.byte	0x4
 1914 0156 82       		.byte	0x82
 1915 0157 7B010000 		.4byte	0x17b
 1916 015b 02       		.byte	0x2
 1917 015c 23       		.byte	0x23
 1918 015d 00       		.uleb128 0
 1919 015e 07       		.uleb128 0x7
 1920 015f 80180000 		.4byte	.LASF24
 1921 0163 04       		.byte	0x4
 1922 0164 83       		.byte	0x83
 1923 0165 80010000 		.4byte	0x180
 1924 0169 02       		.byte	0x2
 1925 016a 23       		.byte	0x23
 1926 016b 04       		.uleb128 0x4
 1927 016c 07       		.uleb128 0x7
 1928 016d 37410000 		.4byte	.LASF25
 1929 0171 04       		.byte	0x4
 1930 0172 84       		.byte	0x84
 1931 0173 8B010000 		.4byte	0x18b
 1932 0177 02       		.byte	0x2
 1933 0178 23       		.byte	0x23
 1934 0179 08       		.uleb128 0x8
 1935 017a 00       		.byte	0
 1936 017b 09       		.uleb128 0x9
 1937 017c 80000000 		.4byte	0x80
 1938 0180 08       		.uleb128 0x8
 1939 0181 04       		.byte	0x4
 1940 0182 86010000 		.4byte	0x186
 1941 0186 09       		.uleb128 0x9
 1942 0187 F7000000 		.4byte	0xf7
 1943 018b 09       		.uleb128 0x9
 1944 018c 39010000 		.4byte	0x139
ARM GAS  C:\Users\Grzybek\AppData\Local\Temp\ccXBk3wH.s 			page 61


 1945 0190 02       		.uleb128 0x2
 1946 0191 6E460000 		.4byte	.LASF26
 1947 0195 04       		.byte	0x4
 1948 0196 85       		.byte	0x85
 1949 0197 44010000 		.4byte	0x144
 1950 019b 06       		.uleb128 0x6
 1951 019c 6C040000 		.4byte	.LASF27
 1952 01a0 08       		.byte	0x8
 1953 01a1 05       		.byte	0x5
 1954 01a2 68       		.byte	0x68
 1955 01a3 C4010000 		.4byte	0x1c4
 1956 01a7 07       		.uleb128 0x7
 1957 01a8 1E280000 		.4byte	.LASF28
 1958 01ac 05       		.byte	0x5
 1959 01ad 6A       		.byte	0x6a
 1960 01ae 70000000 		.4byte	0x70
 1961 01b2 02       		.byte	0x2
 1962 01b3 23       		.byte	0x23
 1963 01b4 00       		.uleb128 0
 1964 01b5 07       		.uleb128 0x7
 1965 01b6 00180000 		.4byte	.LASF29
 1966 01ba 05       		.byte	0x5
 1967 01bb 6B       		.byte	0x6b
 1968 01bc 8E000000 		.4byte	0x8e
 1969 01c0 02       		.byte	0x2
 1970 01c1 23       		.byte	0x23
 1971 01c2 04       		.uleb128 0x4
 1972 01c3 00       		.byte	0
 1973 01c4 02       		.uleb128 0x2
 1974 01c5 005A0000 		.4byte	.LASF30
 1975 01c9 05       		.byte	0x5
 1976 01ca 6C       		.byte	0x6c
 1977 01cb 9B010000 		.4byte	0x19b
 1978 01cf 06       		.uleb128 0x6
 1979 01d0 BA0F0000 		.4byte	.LASF31
 1980 01d4 4C       		.byte	0x4c
 1981 01d5 01       		.byte	0x1
 1982 01d6 7B       		.byte	0x7b
 1983 01d7 76020000 		.4byte	0x276
 1984 01db 07       		.uleb128 0x7
 1985 01dc E6200000 		.4byte	.LASF32
 1986 01e0 01       		.byte	0x1
 1987 01e1 7D       		.byte	0x7d
 1988 01e2 76020000 		.4byte	0x276
 1989 01e6 02       		.byte	0x2
 1990 01e7 23       		.byte	0x23
 1991 01e8 00       		.uleb128 0
 1992 01e9 07       		.uleb128 0x7
 1993 01ea DC090000 		.4byte	.LASF33
 1994 01ee 01       		.byte	0x1
 1995 01ef 7E       		.byte	0x7e
 1996 01f0 76020000 		.4byte	0x276
 1997 01f4 02       		.byte	0x2
 1998 01f5 23       		.byte	0x23
 1999 01f6 04       		.uleb128 0x4
 2000 01f7 07       		.uleb128 0x7
 2001 01f8 3E3E0000 		.4byte	.LASF34
ARM GAS  C:\Users\Grzybek\AppData\Local\Temp\ccXBk3wH.s 			page 62


 2002 01fc 01       		.byte	0x1
 2003 01fd 80       		.byte	0x80
 2004 01fe 76020000 		.4byte	0x276
 2005 0202 02       		.byte	0x2
 2006 0203 23       		.byte	0x23
 2007 0204 08       		.uleb128 0x8
 2008 0205 07       		.uleb128 0x7
 2009 0206 640A0000 		.4byte	.LASF35
 2010 020a 01       		.byte	0x1
 2011 020b 81       		.byte	0x81
 2012 020c 76020000 		.4byte	0x276
 2013 0210 02       		.byte	0x2
 2014 0211 23       		.byte	0x23
 2015 0212 0C       		.uleb128 0xc
 2016 0213 07       		.uleb128 0x7
 2017 0214 DE150000 		.4byte	.LASF36
 2018 0218 01       		.byte	0x1
 2019 0219 83       		.byte	0x83
 2020 021a 90010000 		.4byte	0x190
 2021 021e 02       		.byte	0x2
 2022 021f 23       		.byte	0x23
 2023 0220 10       		.uleb128 0x10
 2024 0221 07       		.uleb128 0x7
 2025 0222 CC4B0000 		.4byte	.LASF37
 2026 0226 01       		.byte	0x1
 2027 0227 84       		.byte	0x84
 2028 0228 90010000 		.4byte	0x190
 2029 022c 02       		.byte	0x2
 2030 022d 23       		.byte	0x23
 2031 022e 24       		.uleb128 0x24
 2032 022f 07       		.uleb128 0x7
 2033 0230 64390000 		.4byte	.LASF38
 2034 0234 01       		.byte	0x1
 2035 0235 86       		.byte	0x86
 2036 0236 7B010000 		.4byte	0x17b
 2037 023a 02       		.byte	0x2
 2038 023b 23       		.byte	0x23
 2039 023c 38       		.uleb128 0x38
 2040 023d 07       		.uleb128 0x7
 2041 023e CE460000 		.4byte	.LASF39
 2042 0242 01       		.byte	0x1
 2043 0243 87       		.byte	0x87
 2044 0244 80000000 		.4byte	0x80
 2045 0248 02       		.byte	0x2
 2046 0249 23       		.byte	0x23
 2047 024a 3C       		.uleb128 0x3c
 2048 024b 07       		.uleb128 0x7
 2049 024c 65590000 		.4byte	.LASF40
 2050 0250 01       		.byte	0x1
 2051 0251 88       		.byte	0x88
 2052 0252 80000000 		.4byte	0x80
 2053 0256 02       		.byte	0x2
 2054 0257 23       		.byte	0x23
 2055 0258 40       		.uleb128 0x40
 2056 0259 07       		.uleb128 0x7
 2057 025a FD250000 		.4byte	.LASF41
 2058 025e 01       		.byte	0x1
ARM GAS  C:\Users\Grzybek\AppData\Local\Temp\ccXBk3wH.s 			page 63


 2059 025f 8A       		.byte	0x8a
 2060 0260 7C020000 		.4byte	0x27c
 2061 0264 02       		.byte	0x2
 2062 0265 23       		.byte	0x23
 2063 0266 44       		.uleb128 0x44
 2064 0267 07       		.uleb128 0x7
 2065 0268 E4610000 		.4byte	.LASF42
 2066 026c 01       		.byte	0x1
 2067 026d 8B       		.byte	0x8b
 2068 026e 7C020000 		.4byte	0x27c
 2069 0272 02       		.byte	0x2
 2070 0273 23       		.byte	0x23
 2071 0274 48       		.uleb128 0x48
 2072 0275 00       		.byte	0
 2073 0276 08       		.uleb128 0x8
 2074 0277 04       		.byte	0x4
 2075 0278 3F000000 		.4byte	0x3f
 2076 027c 09       		.uleb128 0x9
 2077 027d 70000000 		.4byte	0x70
 2078 0281 02       		.uleb128 0x2
 2079 0282 9D620000 		.4byte	.LASF43
 2080 0286 01       		.byte	0x1
 2081 0287 92       		.byte	0x92
 2082 0288 CF010000 		.4byte	0x1cf
 2083 028c 02       		.uleb128 0x2
 2084 028d 382B0000 		.4byte	.LASF44
 2085 0291 01       		.byte	0x1
 2086 0292 9A       		.byte	0x9a
 2087 0293 97020000 		.4byte	0x297
 2088 0297 08       		.uleb128 0x8
 2089 0298 04       		.byte	0x4
 2090 0299 81020000 		.4byte	0x281
 2091 029d 0A       		.uleb128 0xa
 2092 029e 01       		.byte	0x1
 2093 029f 57630000 		.4byte	.LASF47
 2094 02a3 01       		.byte	0x1
 2095 02a4 1901     		.2byte	0x119
 2096 02a6 01       		.byte	0x1
 2097 02a7 70000000 		.4byte	0x70
 2098 02ab 00000000 		.4byte	.LFB0
 2099 02af AE000000 		.4byte	.LFE0
 2100 02b3 00000000 		.4byte	.LLST0
 2101 02b7 01       		.byte	0x1
 2102 02b8 DB020000 		.4byte	0x2db
 2103 02bc 0B       		.uleb128 0xb
 2104 02bd 3B0F0000 		.4byte	.LASF45
 2105 02c1 01       		.byte	0x1
 2106 02c2 1901     		.2byte	0x119
 2107 02c4 8C020000 		.4byte	0x28c
 2108 02c8 02       		.byte	0x2
 2109 02c9 91       		.byte	0x91
 2110 02ca 74       		.sleb128 -12
 2111 02cb 0B       		.uleb128 0xb
 2112 02cc 784E0000 		.4byte	.LASF46
 2113 02d0 01       		.byte	0x1
 2114 02d1 1901     		.2byte	0x119
 2115 02d3 70000000 		.4byte	0x70
ARM GAS  C:\Users\Grzybek\AppData\Local\Temp\ccXBk3wH.s 			page 64


 2116 02d7 02       		.byte	0x2
 2117 02d8 91       		.byte	0x91
 2118 02d9 70       		.sleb128 -16
 2119 02da 00       		.byte	0
 2120 02db 0A       		.uleb128 0xa
 2121 02dc 01       		.byte	0x1
 2122 02dd 95170000 		.4byte	.LASF48
 2123 02e1 01       		.byte	0x1
 2124 02e2 4401     		.2byte	0x144
 2125 02e4 01       		.byte	0x1
 2126 02e5 8C020000 		.4byte	0x28c
 2127 02e9 00000000 		.4byte	.LFB1
 2128 02ed 7A000000 		.4byte	.LFE1
 2129 02f1 38000000 		.4byte	.LLST1
 2130 02f5 01       		.byte	0x1
 2131 02f6 55030000 		.4byte	0x355
 2132 02fa 0B       		.uleb128 0xb
 2133 02fb CD0B0000 		.4byte	.LASF49
 2134 02ff 01       		.byte	0x1
 2135 0300 4401     		.2byte	0x144
 2136 0302 80000000 		.4byte	0x80
 2137 0306 02       		.byte	0x2
 2138 0307 91       		.byte	0x91
 2139 0308 64       		.sleb128 -28
 2140 0309 0B       		.uleb128 0xb
 2141 030a 65590000 		.4byte	.LASF40
 2142 030e 01       		.byte	0x1
 2143 030f 4401     		.2byte	0x144
 2144 0311 80000000 		.4byte	0x80
 2145 0315 02       		.byte	0x2
 2146 0316 91       		.byte	0x91
 2147 0317 60       		.sleb128 -32
 2148 0318 0B       		.uleb128 0xb
 2149 0319 F2370000 		.4byte	.LASF50
 2150 031d 01       		.byte	0x1
 2151 031e 4401     		.2byte	0x144
 2152 0320 46000000 		.4byte	0x46
 2153 0324 02       		.byte	0x2
 2154 0325 91       		.byte	0x91
 2155 0326 5F       		.sleb128 -33
 2156 0327 0C       		.uleb128 0xc
 2157 0328 01620000 		.4byte	.LASF51
 2158 032c 01       		.byte	0x1
 2159 032d 4601     		.2byte	0x146
 2160 032f 97020000 		.4byte	0x297
 2161 0333 02       		.byte	0x2
 2162 0334 91       		.byte	0x91
 2163 0335 70       		.sleb128 -16
 2164 0336 0C       		.uleb128 0xc
 2165 0337 36540000 		.4byte	.LASF52
 2166 033b 01       		.byte	0x1
 2167 033c 4701     		.2byte	0x147
 2168 033e 2D000000 		.4byte	0x2d
 2169 0342 02       		.byte	0x2
 2170 0343 91       		.byte	0x91
 2171 0344 6C       		.sleb128 -20
 2172 0345 0C       		.uleb128 0xc
ARM GAS  C:\Users\Grzybek\AppData\Local\Temp\ccXBk3wH.s 			page 65


 2173 0346 74170000 		.4byte	.LASF53
 2174 034a 01       		.byte	0x1
 2175 034b 4801     		.2byte	0x148
 2176 034d 8C020000 		.4byte	0x28c
 2177 0351 02       		.byte	0x2
 2178 0352 91       		.byte	0x91
 2179 0353 74       		.sleb128 -12
 2180 0354 00       		.byte	0
 2181 0355 0A       		.uleb128 0xa
 2182 0356 01       		.byte	0x1
 2183 0357 B4180000 		.4byte	.LASF54
 2184 035b 01       		.byte	0x1
 2185 035c 7901     		.2byte	0x179
 2186 035e 01       		.byte	0x1
 2187 035f 8C020000 		.4byte	0x28c
 2188 0363 00000000 		.4byte	.LFB2
 2189 0367 98000000 		.4byte	.LFE2
 2190 036b 70000000 		.4byte	.LLST2
 2191 036f 01       		.byte	0x1
 2192 0370 93030000 		.4byte	0x393
 2193 0374 0B       		.uleb128 0xb
 2194 0375 F2370000 		.4byte	.LASF50
 2195 0379 01       		.byte	0x1
 2196 037a 7901     		.2byte	0x179
 2197 037c 46000000 		.4byte	0x46
 2198 0380 02       		.byte	0x2
 2199 0381 91       		.byte	0x91
 2200 0382 6F       		.sleb128 -17
 2201 0383 0C       		.uleb128 0xc
 2202 0384 01620000 		.4byte	.LASF51
 2203 0388 01       		.byte	0x1
 2204 0389 7B01     		.2byte	0x17b
 2205 038b 97020000 		.4byte	0x297
 2206 038f 02       		.byte	0x2
 2207 0390 91       		.byte	0x91
 2208 0391 74       		.sleb128 -12
 2209 0392 00       		.byte	0
 2210 0393 0A       		.uleb128 0xa
 2211 0394 01       		.byte	0x1
 2212 0395 1D0C0000 		.4byte	.LASF55
 2213 0399 01       		.byte	0x1
 2214 039a D201     		.2byte	0x1d2
 2215 039c 01       		.byte	0x1
 2216 039d 70000000 		.4byte	0x70
 2217 03a1 00000000 		.4byte	.LFB3
 2218 03a5 56000000 		.4byte	.LFE3
 2219 03a9 A8000000 		.4byte	.LLST3
 2220 03ad 01       		.byte	0x1
 2221 03ae D1030000 		.4byte	0x3d1
 2222 03b2 0B       		.uleb128 0xb
 2223 03b3 16280000 		.4byte	.LASF56
 2224 03b7 01       		.byte	0x1
 2225 03b8 D201     		.2byte	0x1d2
 2226 03ba 8C020000 		.4byte	0x28c
 2227 03be 02       		.byte	0x2
 2228 03bf 91       		.byte	0x91
 2229 03c0 64       		.sleb128 -28
ARM GAS  C:\Users\Grzybek\AppData\Local\Temp\ccXBk3wH.s 			page 66


 2230 03c1 0C       		.uleb128 0xc
 2231 03c2 74170000 		.4byte	.LASF53
 2232 03c6 01       		.byte	0x1
 2233 03c7 D401     		.2byte	0x1d4
 2234 03c9 70000000 		.4byte	0x70
 2235 03cd 02       		.byte	0x2
 2236 03ce 91       		.byte	0x91
 2237 03cf 6C       		.sleb128 -20
 2238 03d0 00       		.byte	0
 2239 03d1 0A       		.uleb128 0xa
 2240 03d2 01       		.byte	0x1
 2241 03d3 F3490000 		.4byte	.LASF57
 2242 03d7 01       		.byte	0x1
 2243 03d8 0302     		.2byte	0x203
 2244 03da 01       		.byte	0x1
 2245 03db 70000000 		.4byte	0x70
 2246 03df 00000000 		.4byte	.LFB4
 2247 03e3 5C000000 		.4byte	.LFE4
 2248 03e7 E0000000 		.4byte	.LLST4
 2249 03eb 01       		.byte	0x1
 2250 03ec 1E040000 		.4byte	0x41e
 2251 03f0 0B       		.uleb128 0xb
 2252 03f1 16280000 		.4byte	.LASF56
 2253 03f5 01       		.byte	0x1
 2254 03f6 0302     		.2byte	0x203
 2255 03f8 8C020000 		.4byte	0x28c
 2256 03fc 02       		.byte	0x2
 2257 03fd 91       		.byte	0x91
 2258 03fe 64       		.sleb128 -28
 2259 03ff 0B       		.uleb128 0xb
 2260 0400 D9020000 		.4byte	.LASF58
 2261 0404 01       		.byte	0x1
 2262 0405 0302     		.2byte	0x203
 2263 0407 8E000000 		.4byte	0x8e
 2264 040b 02       		.byte	0x2
 2265 040c 91       		.byte	0x91
 2266 040d 60       		.sleb128 -32
 2267 040e 0C       		.uleb128 0xc
 2268 040f 74170000 		.4byte	.LASF53
 2269 0413 01       		.byte	0x1
 2270 0414 0502     		.2byte	0x205
 2271 0416 70000000 		.4byte	0x70
 2272 041a 02       		.byte	0x2
 2273 041b 91       		.byte	0x91
 2274 041c 6C       		.sleb128 -20
 2275 041d 00       		.byte	0
 2276 041e 0A       		.uleb128 0xa
 2277 041f 01       		.byte	0x1
 2278 0420 B0260000 		.4byte	.LASF59
 2279 0424 01       		.byte	0x1
 2280 0425 4302     		.2byte	0x243
 2281 0427 01       		.byte	0x1
 2282 0428 70000000 		.4byte	0x70
 2283 042c 00000000 		.4byte	.LFB5
 2284 0430 20010000 		.4byte	.LFE5
 2285 0434 18010000 		.4byte	.LLST5
 2286 0438 01       		.byte	0x1
ARM GAS  C:\Users\Grzybek\AppData\Local\Temp\ccXBk3wH.s 			page 67


 2287 0439 98040000 		.4byte	0x498
 2288 043d 0B       		.uleb128 0xb
 2289 043e 3B0F0000 		.4byte	.LASF45
 2290 0442 01       		.byte	0x1
 2291 0443 4302     		.2byte	0x243
 2292 0445 8C020000 		.4byte	0x28c
 2293 0449 02       		.byte	0x2
 2294 044a 91       		.byte	0x91
 2295 044b 64       		.sleb128 -28
 2296 044c 0B       		.uleb128 0xb
 2297 044d 00000000 		.4byte	.LASF60
 2298 0451 01       		.byte	0x1
 2299 0452 4302     		.2byte	0x243
 2300 0454 98040000 		.4byte	0x498
 2301 0458 02       		.byte	0x2
 2302 0459 91       		.byte	0x91
 2303 045a 60       		.sleb128 -32
 2304 045b 0B       		.uleb128 0xb
 2305 045c A73E0000 		.4byte	.LASF61
 2306 0460 01       		.byte	0x1
 2307 0461 4302     		.2byte	0x243
 2308 0463 8E000000 		.4byte	0x8e
 2309 0467 02       		.byte	0x2
 2310 0468 91       		.byte	0x91
 2311 0469 5C       		.sleb128 -36
 2312 046a 0B       		.uleb128 0xb
 2313 046b 03370000 		.4byte	.LASF62
 2314 046f 01       		.byte	0x1
 2315 0470 4302     		.2byte	0x243
 2316 0472 70000000 		.4byte	0x70
 2317 0476 02       		.byte	0x2
 2318 0477 91       		.byte	0x91
 2319 0478 58       		.sleb128 -40
 2320 0479 0C       		.uleb128 0xc
 2321 047a F62B0000 		.4byte	.LASF63
 2322 047e 01       		.byte	0x1
 2323 047f 4502     		.2byte	0x245
 2324 0481 70000000 		.4byte	0x70
 2325 0485 02       		.byte	0x2
 2326 0486 91       		.byte	0x91
 2327 0487 74       		.sleb128 -12
 2328 0488 0C       		.uleb128 0xc
 2329 0489 26420000 		.4byte	.LASF64
 2330 048d 01       		.byte	0x1
 2331 048e 4602     		.2byte	0x246
 2332 0490 C4010000 		.4byte	0x1c4
 2333 0494 02       		.byte	0x2
 2334 0495 91       		.byte	0x91
 2335 0496 6C       		.sleb128 -20
 2336 0497 00       		.byte	0
 2337 0498 0D       		.uleb128 0xd
 2338 0499 9D040000 		.4byte	0x49d
 2339 049d 08       		.uleb128 0x8
 2340 049e 04       		.byte	0x4
 2341 049f A3040000 		.4byte	0x4a3
 2342 04a3 0E       		.uleb128 0xe
 2343 04a4 0A       		.uleb128 0xa
ARM GAS  C:\Users\Grzybek\AppData\Local\Temp\ccXBk3wH.s 			page 68


 2344 04a5 01       		.byte	0x1
 2345 04a6 85120000 		.4byte	.LASF65
 2346 04aa 01       		.byte	0x1
 2347 04ab 8A03     		.2byte	0x38a
 2348 04ad 01       		.byte	0x1
 2349 04ae 70000000 		.4byte	0x70
 2350 04b2 00000000 		.4byte	.LFB6
 2351 04b6 8A000000 		.4byte	.LFE6
 2352 04ba 50010000 		.4byte	.LLST6
 2353 04be 01       		.byte	0x1
 2354 04bf 1E050000 		.4byte	0x51e
 2355 04c3 0B       		.uleb128 0xb
 2356 04c4 3B0F0000 		.4byte	.LASF45
 2357 04c8 01       		.byte	0x1
 2358 04c9 8A03     		.2byte	0x38a
 2359 04cb 8C020000 		.4byte	0x28c
 2360 04cf 02       		.byte	0x2
 2361 04d0 91       		.byte	0x91
 2362 04d1 6C       		.sleb128 -20
 2363 04d2 0B       		.uleb128 0xb
 2364 04d3 00000000 		.4byte	.LASF60
 2365 04d7 01       		.byte	0x1
 2366 04d8 8A03     		.2byte	0x38a
 2367 04da 98040000 		.4byte	0x498
 2368 04de 02       		.byte	0x2
 2369 04df 91       		.byte	0x91
 2370 04e0 68       		.sleb128 -24
 2371 04e1 0B       		.uleb128 0xb
 2372 04e2 59530000 		.4byte	.LASF66
 2373 04e6 01       		.byte	0x1
 2374 04e7 8A03     		.2byte	0x38a
 2375 04e9 1E050000 		.4byte	0x51e
 2376 04ed 02       		.byte	0x2
 2377 04ee 91       		.byte	0x91
 2378 04ef 64       		.sleb128 -28
 2379 04f0 0B       		.uleb128 0xb
 2380 04f1 03370000 		.4byte	.LASF62
 2381 04f5 01       		.byte	0x1
 2382 04f6 8A03     		.2byte	0x38a
 2383 04f8 70000000 		.4byte	0x70
 2384 04fc 02       		.byte	0x2
 2385 04fd 91       		.byte	0x91
 2386 04fe 60       		.sleb128 -32
 2387 04ff 0C       		.uleb128 0xc
 2388 0500 74170000 		.4byte	.LASF53
 2389 0504 01       		.byte	0x1
 2390 0505 8C03     		.2byte	0x38c
 2391 0507 70000000 		.4byte	0x70
 2392 050b 02       		.byte	0x2
 2393 050c 91       		.byte	0x91
 2394 050d 74       		.sleb128 -12
 2395 050e 0C       		.uleb128 0xc
 2396 050f 95310000 		.4byte	.LASF67
 2397 0513 01       		.byte	0x1
 2398 0514 8D03     		.2byte	0x38d
 2399 0516 80000000 		.4byte	0x80
 2400 051a 02       		.byte	0x2
ARM GAS  C:\Users\Grzybek\AppData\Local\Temp\ccXBk3wH.s 			page 69


 2401 051b 91       		.byte	0x91
 2402 051c 70       		.sleb128 -16
 2403 051d 00       		.byte	0
 2404 051e 08       		.uleb128 0x8
 2405 051f 04       		.byte	0x4
 2406 0520 70000000 		.4byte	0x70
 2407 0524 0A       		.uleb128 0xa
 2408 0525 01       		.byte	0x1
 2409 0526 EC610000 		.4byte	.LASF68
 2410 052a 01       		.byte	0x1
 2411 052b C503     		.2byte	0x3c5
 2412 052d 01       		.byte	0x1
 2413 052e 70000000 		.4byte	0x70
 2414 0532 00000000 		.4byte	.LFB7
 2415 0536 86010000 		.4byte	.LFE7
 2416 053a 88010000 		.4byte	.LLST7
 2417 053e 01       		.byte	0x1
 2418 053f AD050000 		.4byte	0x5ad
 2419 0543 0B       		.uleb128 0xb
 2420 0544 3B0F0000 		.4byte	.LASF45
 2421 0548 01       		.byte	0x1
 2422 0549 C503     		.2byte	0x3c5
 2423 054b 8C020000 		.4byte	0x28c
 2424 054f 02       		.byte	0x2
 2425 0550 91       		.byte	0x91
 2426 0551 64       		.sleb128 -28
 2427 0552 0B       		.uleb128 0xb
 2428 0553 E4020000 		.4byte	.LASF69
 2429 0557 01       		.byte	0x1
 2430 0558 C503     		.2byte	0x3c5
 2431 055a AD050000 		.4byte	0x5ad
 2432 055e 02       		.byte	0x2
 2433 055f 91       		.byte	0x91
 2434 0560 60       		.sleb128 -32
 2435 0561 0B       		.uleb128 0xb
 2436 0562 A73E0000 		.4byte	.LASF61
 2437 0566 01       		.byte	0x1
 2438 0567 C503     		.2byte	0x3c5
 2439 0569 8E000000 		.4byte	0x8e
 2440 056d 02       		.byte	0x2
 2441 056e 91       		.byte	0x91
 2442 056f 5C       		.sleb128 -36
 2443 0570 0B       		.uleb128 0xb
 2444 0571 46060000 		.4byte	.LASF70
 2445 0575 01       		.byte	0x1
 2446 0576 C503     		.2byte	0x3c5
 2447 0578 70000000 		.4byte	0x70
 2448 057c 02       		.byte	0x2
 2449 057d 91       		.byte	0x91
 2450 057e 58       		.sleb128 -40
 2451 057f 0C       		.uleb128 0xc
 2452 0580 F62B0000 		.4byte	.LASF63
 2453 0584 01       		.byte	0x1
 2454 0585 C703     		.2byte	0x3c7
 2455 0587 70000000 		.4byte	0x70
 2456 058b 02       		.byte	0x2
 2457 058c 91       		.byte	0x91
ARM GAS  C:\Users\Grzybek\AppData\Local\Temp\ccXBk3wH.s 			page 70


 2458 058d 74       		.sleb128 -12
 2459 058e 0C       		.uleb128 0xc
 2460 058f 26420000 		.4byte	.LASF64
 2461 0593 01       		.byte	0x1
 2462 0594 C803     		.2byte	0x3c8
 2463 0596 C4010000 		.4byte	0x1c4
 2464 059a 02       		.byte	0x2
 2465 059b 91       		.byte	0x91
 2466 059c 68       		.sleb128 -24
 2467 059d 0C       		.uleb128 0xc
 2468 059e EF0E0000 		.4byte	.LASF71
 2469 05a2 01       		.byte	0x1
 2470 05a3 C903     		.2byte	0x3c9
 2471 05a5 76020000 		.4byte	0x276
 2472 05a9 02       		.byte	0x2
 2473 05aa 91       		.byte	0x91
 2474 05ab 70       		.sleb128 -16
 2475 05ac 00       		.byte	0
 2476 05ad 0D       		.uleb128 0xd
 2477 05ae 7E000000 		.4byte	0x7e
 2478 05b2 0A       		.uleb128 0xa
 2479 05b3 01       		.byte	0x1
 2480 05b4 57040000 		.4byte	.LASF72
 2481 05b8 01       		.byte	0x1
 2482 05b9 5A04     		.2byte	0x45a
 2483 05bb 01       		.byte	0x1
 2484 05bc 70000000 		.4byte	0x70
 2485 05c0 00000000 		.4byte	.LFB8
 2486 05c4 8E000000 		.4byte	.LFE8
 2487 05c8 C0010000 		.4byte	.LLST8
 2488 05cc 01       		.byte	0x1
 2489 05cd 1D060000 		.4byte	0x61d
 2490 05d1 0B       		.uleb128 0xb
 2491 05d2 3B0F0000 		.4byte	.LASF45
 2492 05d6 01       		.byte	0x1
 2493 05d7 5A04     		.2byte	0x45a
 2494 05d9 8C020000 		.4byte	0x28c
 2495 05dd 02       		.byte	0x2
 2496 05de 91       		.byte	0x91
 2497 05df 6C       		.sleb128 -20
 2498 05e0 0B       		.uleb128 0xb
 2499 05e1 E4020000 		.4byte	.LASF69
 2500 05e5 01       		.byte	0x1
 2501 05e6 5A04     		.2byte	0x45a
 2502 05e8 AD050000 		.4byte	0x5ad
 2503 05ec 02       		.byte	0x2
 2504 05ed 91       		.byte	0x91
 2505 05ee 68       		.sleb128 -24
 2506 05ef 0B       		.uleb128 0xb
 2507 05f0 59530000 		.4byte	.LASF66
 2508 05f4 01       		.byte	0x1
 2509 05f5 5A04     		.2byte	0x45a
 2510 05f7 1E050000 		.4byte	0x51e
 2511 05fb 02       		.byte	0x2
 2512 05fc 91       		.byte	0x91
 2513 05fd 64       		.sleb128 -28
 2514 05fe 0C       		.uleb128 0xc
ARM GAS  C:\Users\Grzybek\AppData\Local\Temp\ccXBk3wH.s 			page 71


 2515 05ff 74170000 		.4byte	.LASF53
 2516 0603 01       		.byte	0x1
 2517 0604 5C04     		.2byte	0x45c
 2518 0606 70000000 		.4byte	0x70
 2519 060a 02       		.byte	0x2
 2520 060b 91       		.byte	0x91
 2521 060c 74       		.sleb128 -12
 2522 060d 0C       		.uleb128 0xc
 2523 060e 95310000 		.4byte	.LASF67
 2524 0612 01       		.byte	0x1
 2525 0613 5D04     		.2byte	0x45d
 2526 0615 80000000 		.4byte	0x80
 2527 0619 02       		.byte	0x2
 2528 061a 91       		.byte	0x91
 2529 061b 70       		.sleb128 -16
 2530 061c 00       		.byte	0
 2531 061d 0A       		.uleb128 0xa
 2532 061e 01       		.byte	0x1
 2533 061f 024C0000 		.4byte	.LASF73
 2534 0623 01       		.byte	0x1
 2535 0624 9304     		.2byte	0x493
 2536 0626 01       		.byte	0x1
 2537 0627 80000000 		.4byte	0x80
 2538 062b 00000000 		.4byte	.LFB9
 2539 062f 22000000 		.4byte	.LFE9
 2540 0633 F8010000 		.4byte	.LLST9
 2541 0637 01       		.byte	0x1
 2542 0638 5B060000 		.4byte	0x65b
 2543 063c 0B       		.uleb128 0xb
 2544 063d 3B0F0000 		.4byte	.LASF45
 2545 0641 01       		.byte	0x1
 2546 0642 9304     		.2byte	0x493
 2547 0644 5B060000 		.4byte	0x65b
 2548 0648 02       		.byte	0x2
 2549 0649 91       		.byte	0x91
 2550 064a 6C       		.sleb128 -20
 2551 064b 0C       		.uleb128 0xc
 2552 064c F90A0000 		.4byte	.LASF74
 2553 0650 01       		.byte	0x1
 2554 0651 9504     		.2byte	0x495
 2555 0653 80000000 		.4byte	0x80
 2556 0657 02       		.byte	0x2
 2557 0658 91       		.byte	0x91
 2558 0659 74       		.sleb128 -12
 2559 065a 00       		.byte	0
 2560 065b 0D       		.uleb128 0xd
 2561 065c 8C020000 		.4byte	0x28c
 2562 0660 0F       		.uleb128 0xf
 2563 0661 01       		.byte	0x1
 2564 0662 914F0000 		.4byte	.LASF75
 2565 0666 01       		.byte	0x1
 2566 0667 A104     		.2byte	0x4a1
 2567 0669 01       		.byte	0x1
 2568 066a 80000000 		.4byte	0x80
 2569 066e 00000000 		.4byte	.LFB10
 2570 0672 1C000000 		.4byte	.LFE10
 2571 0676 30020000 		.4byte	.LLST10
ARM GAS  C:\Users\Grzybek\AppData\Local\Temp\ccXBk3wH.s 			page 72


 2572 067a 01       		.byte	0x1
 2573 067b 9E060000 		.4byte	0x69e
 2574 067f 0B       		.uleb128 0xb
 2575 0680 3B0F0000 		.4byte	.LASF45
 2576 0684 01       		.byte	0x1
 2577 0685 A104     		.2byte	0x4a1
 2578 0687 5B060000 		.4byte	0x65b
 2579 068b 02       		.byte	0x2
 2580 068c 91       		.byte	0x91
 2581 068d 6C       		.sleb128 -20
 2582 068e 0C       		.uleb128 0xc
 2583 068f F90A0000 		.4byte	.LASF74
 2584 0693 01       		.byte	0x1
 2585 0694 A304     		.2byte	0x4a3
 2586 0696 80000000 		.4byte	0x80
 2587 069a 02       		.byte	0x2
 2588 069b 91       		.byte	0x91
 2589 069c 74       		.sleb128 -12
 2590 069d 00       		.byte	0
 2591 069e 10       		.uleb128 0x10
 2592 069f 01       		.byte	0x1
 2593 06a0 70190000 		.4byte	.LASF83
 2594 06a4 01       		.byte	0x1
 2595 06a5 AD04     		.2byte	0x4ad
 2596 06a7 01       		.byte	0x1
 2597 06a8 00000000 		.4byte	.LFB11
 2598 06ac 20000000 		.4byte	.LFE11
 2599 06b0 68020000 		.4byte	.LLST11
 2600 06b4 01       		.byte	0x1
 2601 06b5 C9060000 		.4byte	0x6c9
 2602 06b9 0B       		.uleb128 0xb
 2603 06ba 3B0F0000 		.4byte	.LASF45
 2604 06be 01       		.byte	0x1
 2605 06bf AD04     		.2byte	0x4ad
 2606 06c1 8C020000 		.4byte	0x28c
 2607 06c5 02       		.byte	0x2
 2608 06c6 91       		.byte	0x91
 2609 06c7 74       		.sleb128 -12
 2610 06c8 00       		.byte	0
 2611 06c9 11       		.uleb128 0x11
 2612 06ca BB5A0000 		.4byte	.LASF77
 2613 06ce 01       		.byte	0x1
 2614 06cf D604     		.2byte	0x4d6
 2615 06d1 01       		.byte	0x1
 2616 06d2 00000000 		.4byte	.LFB12
 2617 06d6 C2000000 		.4byte	.LFE12
 2618 06da A0020000 		.4byte	.LLST12
 2619 06de 01       		.byte	0x1
 2620 06df 11070000 		.4byte	0x711
 2621 06e3 0B       		.uleb128 0xb
 2622 06e4 3B0F0000 		.4byte	.LASF45
 2623 06e8 01       		.byte	0x1
 2624 06e9 D604     		.2byte	0x4d6
 2625 06eb 97020000 		.4byte	0x297
 2626 06ef 02       		.byte	0x2
 2627 06f0 91       		.byte	0x91
 2628 06f1 74       		.sleb128 -12
ARM GAS  C:\Users\Grzybek\AppData\Local\Temp\ccXBk3wH.s 			page 73


 2629 06f2 0B       		.uleb128 0xb
 2630 06f3 00000000 		.4byte	.LASF60
 2631 06f7 01       		.byte	0x1
 2632 06f8 D604     		.2byte	0x4d6
 2633 06fa 9D040000 		.4byte	0x49d
 2634 06fe 02       		.byte	0x2
 2635 06ff 91       		.byte	0x91
 2636 0700 70       		.sleb128 -16
 2637 0701 0B       		.uleb128 0xb
 2638 0702 482F0000 		.4byte	.LASF76
 2639 0706 01       		.byte	0x1
 2640 0707 D604     		.2byte	0x4d6
 2641 0709 70000000 		.4byte	0x70
 2642 070d 02       		.byte	0x2
 2643 070e 91       		.byte	0x91
 2644 070f 6C       		.sleb128 -20
 2645 0710 00       		.byte	0
 2646 0711 11       		.uleb128 0x11
 2647 0712 F23A0000 		.4byte	.LASF78
 2648 0716 01       		.byte	0x1
 2649 0717 FC04     		.2byte	0x4fc
 2650 0719 01       		.byte	0x1
 2651 071a 00000000 		.4byte	.LFB13
 2652 071e 4E000000 		.4byte	.LFE13
 2653 0722 D8020000 		.4byte	.LLST13
 2654 0726 01       		.byte	0x1
 2655 0727 4A070000 		.4byte	0x74a
 2656 072b 0B       		.uleb128 0xb
 2657 072c 3B0F0000 		.4byte	.LASF45
 2658 0730 01       		.byte	0x1
 2659 0731 FC04     		.2byte	0x4fc
 2660 0733 4A070000 		.4byte	0x74a
 2661 0737 02       		.byte	0x2
 2662 0738 91       		.byte	0x91
 2663 0739 74       		.sleb128 -12
 2664 073a 0B       		.uleb128 0xb
 2665 073b E4020000 		.4byte	.LASF69
 2666 073f 01       		.byte	0x1
 2667 0740 FC04     		.2byte	0x4fc
 2668 0742 9D040000 		.4byte	0x49d
 2669 0746 02       		.byte	0x2
 2670 0747 91       		.byte	0x91
 2671 0748 70       		.sleb128 -16
 2672 0749 00       		.byte	0
 2673 074a 0D       		.uleb128 0xd
 2674 074b 97020000 		.4byte	0x297
 2675 074f 11       		.uleb128 0x11
 2676 0750 311D0000 		.4byte	.LASF79
 2677 0754 01       		.byte	0x1
 2678 0755 0A05     		.2byte	0x50a
 2679 0757 01       		.byte	0x1
 2680 0758 00000000 		.4byte	.LFB14
 2681 075c A0000000 		.4byte	.LFE14
 2682 0760 10030000 		.4byte	.LLST14
 2683 0764 01       		.byte	0x1
 2684 0765 79070000 		.4byte	0x779
 2685 0769 0B       		.uleb128 0xb
ARM GAS  C:\Users\Grzybek\AppData\Local\Temp\ccXBk3wH.s 			page 74


 2686 076a 3B0F0000 		.4byte	.LASF45
 2687 076e 01       		.byte	0x1
 2688 076f 0A05     		.2byte	0x50a
 2689 0771 8C020000 		.4byte	0x28c
 2690 0775 02       		.byte	0x2
 2691 0776 91       		.byte	0x91
 2692 0777 74       		.sleb128 -12
 2693 0778 00       		.byte	0
 2694 0779 12       		.uleb128 0x12
 2695 077a CD0E0000 		.4byte	.LASF81
 2696 077e 01       		.byte	0x1
 2697 077f 4A05     		.2byte	0x54a
 2698 0781 01       		.byte	0x1
 2699 0782 70000000 		.4byte	0x70
 2700 0786 00000000 		.4byte	.LFB15
 2701 078a 2C000000 		.4byte	.LFE15
 2702 078e 48030000 		.4byte	.LLST15
 2703 0792 01       		.byte	0x1
 2704 0793 B6070000 		.4byte	0x7b6
 2705 0797 0B       		.uleb128 0xb
 2706 0798 3B0F0000 		.4byte	.LASF45
 2707 079c 01       		.byte	0x1
 2708 079d 4A05     		.2byte	0x54a
 2709 079f 5B060000 		.4byte	0x65b
 2710 07a3 02       		.byte	0x2
 2711 07a4 91       		.byte	0x91
 2712 07a5 6C       		.sleb128 -20
 2713 07a6 0C       		.uleb128 0xc
 2714 07a7 74170000 		.4byte	.LASF53
 2715 07ab 01       		.byte	0x1
 2716 07ac 4C05     		.2byte	0x54c
 2717 07ae 70000000 		.4byte	0x70
 2718 07b2 02       		.byte	0x2
 2719 07b3 91       		.byte	0x91
 2720 07b4 74       		.sleb128 -12
 2721 07b5 00       		.byte	0
 2722 07b6 0F       		.uleb128 0xf
 2723 07b7 01       		.byte	0x1
 2724 07b8 64290000 		.4byte	.LASF80
 2725 07bc 01       		.byte	0x1
 2726 07bd 5605     		.2byte	0x556
 2727 07bf 01       		.byte	0x1
 2728 07c0 70000000 		.4byte	0x70
 2729 07c4 00000000 		.4byte	.LFB16
 2730 07c8 26000000 		.4byte	.LFE16
 2731 07cc 80030000 		.4byte	.LLST16
 2732 07d0 01       		.byte	0x1
 2733 07d1 F4070000 		.4byte	0x7f4
 2734 07d5 0B       		.uleb128 0xb
 2735 07d6 3B0F0000 		.4byte	.LASF45
 2736 07da 01       		.byte	0x1
 2737 07db 5605     		.2byte	0x556
 2738 07dd 5B060000 		.4byte	0x65b
 2739 07e1 02       		.byte	0x2
 2740 07e2 91       		.byte	0x91
 2741 07e3 6C       		.sleb128 -20
 2742 07e4 0C       		.uleb128 0xc
ARM GAS  C:\Users\Grzybek\AppData\Local\Temp\ccXBk3wH.s 			page 75


 2743 07e5 74170000 		.4byte	.LASF53
 2744 07e9 01       		.byte	0x1
 2745 07ea 5805     		.2byte	0x558
 2746 07ec 70000000 		.4byte	0x70
 2747 07f0 02       		.byte	0x2
 2748 07f1 91       		.byte	0x91
 2749 07f2 74       		.sleb128 -12
 2750 07f3 00       		.byte	0
 2751 07f4 12       		.uleb128 0x12
 2752 07f5 E7100000 		.4byte	.LASF82
 2753 07f9 01       		.byte	0x1
 2754 07fa 6105     		.2byte	0x561
 2755 07fc 01       		.byte	0x1
 2756 07fd 70000000 		.4byte	0x70
 2757 0801 00000000 		.4byte	.LFB17
 2758 0805 30000000 		.4byte	.LFE17
 2759 0809 B8030000 		.4byte	.LLST17
 2760 080d 01       		.byte	0x1
 2761 080e 31080000 		.4byte	0x831
 2762 0812 0B       		.uleb128 0xb
 2763 0813 3B0F0000 		.4byte	.LASF45
 2764 0817 01       		.byte	0x1
 2765 0818 6105     		.2byte	0x561
 2766 081a 5B060000 		.4byte	0x65b
 2767 081e 02       		.byte	0x2
 2768 081f 91       		.byte	0x91
 2769 0820 6C       		.sleb128 -20
 2770 0821 0C       		.uleb128 0xc
 2771 0822 74170000 		.4byte	.LASF53
 2772 0826 01       		.byte	0x1
 2773 0827 6305     		.2byte	0x563
 2774 0829 70000000 		.4byte	0x70
 2775 082d 02       		.byte	0x2
 2776 082e 91       		.byte	0x91
 2777 082f 74       		.sleb128 -12
 2778 0830 00       		.byte	0
 2779 0831 13       		.uleb128 0x13
 2780 0832 01       		.byte	0x1
 2781 0833 650E0000 		.4byte	.LASF84
 2782 0837 01       		.byte	0x1
 2783 0838 6D05     		.2byte	0x56d
 2784 083a 01       		.byte	0x1
 2785 083b 70000000 		.4byte	0x70
 2786 083f 00000000 		.4byte	.LFB18
 2787 0843 2A000000 		.4byte	.LFE18
 2788 0847 F0030000 		.4byte	.LLST18
 2789 084b 01       		.byte	0x1
 2790 084c 0B       		.uleb128 0xb
 2791 084d 3B0F0000 		.4byte	.LASF45
 2792 0851 01       		.byte	0x1
 2793 0852 6D05     		.2byte	0x56d
 2794 0854 5B060000 		.4byte	0x65b
 2795 0858 02       		.byte	0x2
 2796 0859 91       		.byte	0x91
 2797 085a 6C       		.sleb128 -20
 2798 085b 0C       		.uleb128 0xc
 2799 085c 74170000 		.4byte	.LASF53
ARM GAS  C:\Users\Grzybek\AppData\Local\Temp\ccXBk3wH.s 			page 76


 2800 0860 01       		.byte	0x1
 2801 0861 6F05     		.2byte	0x56f
 2802 0863 70000000 		.4byte	0x70
 2803 0867 02       		.byte	0x2
 2804 0868 91       		.byte	0x91
 2805 0869 74       		.sleb128 -12
 2806 086a 00       		.byte	0
 2807 086b 00       		.byte	0
 2808              		.section	.debug_abbrev,"",%progbits
 2809              	.Ldebug_abbrev0:
 2810 0000 01       		.uleb128 0x1
 2811 0001 11       		.uleb128 0x11
 2812 0002 01       		.byte	0x1
 2813 0003 25       		.uleb128 0x25
 2814 0004 0E       		.uleb128 0xe
 2815 0005 13       		.uleb128 0x13
 2816 0006 0B       		.uleb128 0xb
 2817 0007 03       		.uleb128 0x3
 2818 0008 0E       		.uleb128 0xe
 2819 0009 1B       		.uleb128 0x1b
 2820 000a 0E       		.uleb128 0xe
 2821 000b 55       		.uleb128 0x55
 2822 000c 06       		.uleb128 0x6
 2823 000d 11       		.uleb128 0x11
 2824 000e 01       		.uleb128 0x1
 2825 000f 52       		.uleb128 0x52
 2826 0010 01       		.uleb128 0x1
 2827 0011 10       		.uleb128 0x10
 2828 0012 06       		.uleb128 0x6
 2829 0013 9942     		.uleb128 0x2119
 2830 0015 06       		.uleb128 0x6
 2831 0016 00       		.byte	0
 2832 0017 00       		.byte	0
 2833 0018 02       		.uleb128 0x2
 2834 0019 16       		.uleb128 0x16
 2835 001a 00       		.byte	0
 2836 001b 03       		.uleb128 0x3
 2837 001c 0E       		.uleb128 0xe
 2838 001d 3A       		.uleb128 0x3a
 2839 001e 0B       		.uleb128 0xb
 2840 001f 3B       		.uleb128 0x3b
 2841 0020 0B       		.uleb128 0xb
 2842 0021 49       		.uleb128 0x49
 2843 0022 13       		.uleb128 0x13
 2844 0023 00       		.byte	0
 2845 0024 00       		.byte	0
 2846 0025 03       		.uleb128 0x3
 2847 0026 24       		.uleb128 0x24
 2848 0027 00       		.byte	0
 2849 0028 0B       		.uleb128 0xb
 2850 0029 0B       		.uleb128 0xb
 2851 002a 3E       		.uleb128 0x3e
 2852 002b 0B       		.uleb128 0xb
 2853 002c 03       		.uleb128 0x3
 2854 002d 0E       		.uleb128 0xe
 2855 002e 00       		.byte	0
 2856 002f 00       		.byte	0
ARM GAS  C:\Users\Grzybek\AppData\Local\Temp\ccXBk3wH.s 			page 77


 2857 0030 04       		.uleb128 0x4
 2858 0031 24       		.uleb128 0x24
 2859 0032 00       		.byte	0
 2860 0033 0B       		.uleb128 0xb
 2861 0034 0B       		.uleb128 0xb
 2862 0035 3E       		.uleb128 0x3e
 2863 0036 0B       		.uleb128 0xb
 2864 0037 03       		.uleb128 0x3
 2865 0038 08       		.uleb128 0x8
 2866 0039 00       		.byte	0
 2867 003a 00       		.byte	0
 2868 003b 05       		.uleb128 0x5
 2869 003c 0F       		.uleb128 0xf
 2870 003d 00       		.byte	0
 2871 003e 0B       		.uleb128 0xb
 2872 003f 0B       		.uleb128 0xb
 2873 0040 00       		.byte	0
 2874 0041 00       		.byte	0
 2875 0042 06       		.uleb128 0x6
 2876 0043 13       		.uleb128 0x13
 2877 0044 01       		.byte	0x1
 2878 0045 03       		.uleb128 0x3
 2879 0046 0E       		.uleb128 0xe
 2880 0047 0B       		.uleb128 0xb
 2881 0048 0B       		.uleb128 0xb
 2882 0049 3A       		.uleb128 0x3a
 2883 004a 0B       		.uleb128 0xb
 2884 004b 3B       		.uleb128 0x3b
 2885 004c 0B       		.uleb128 0xb
 2886 004d 01       		.uleb128 0x1
 2887 004e 13       		.uleb128 0x13
 2888 004f 00       		.byte	0
 2889 0050 00       		.byte	0
 2890 0051 07       		.uleb128 0x7
 2891 0052 0D       		.uleb128 0xd
 2892 0053 00       		.byte	0
 2893 0054 03       		.uleb128 0x3
 2894 0055 0E       		.uleb128 0xe
 2895 0056 3A       		.uleb128 0x3a
 2896 0057 0B       		.uleb128 0xb
 2897 0058 3B       		.uleb128 0x3b
 2898 0059 0B       		.uleb128 0xb
 2899 005a 49       		.uleb128 0x49
 2900 005b 13       		.uleb128 0x13
 2901 005c 38       		.uleb128 0x38
 2902 005d 0A       		.uleb128 0xa
 2903 005e 00       		.byte	0
 2904 005f 00       		.byte	0
 2905 0060 08       		.uleb128 0x8
 2906 0061 0F       		.uleb128 0xf
 2907 0062 00       		.byte	0
 2908 0063 0B       		.uleb128 0xb
 2909 0064 0B       		.uleb128 0xb
 2910 0065 49       		.uleb128 0x49
 2911 0066 13       		.uleb128 0x13
 2912 0067 00       		.byte	0
 2913 0068 00       		.byte	0
ARM GAS  C:\Users\Grzybek\AppData\Local\Temp\ccXBk3wH.s 			page 78


 2914 0069 09       		.uleb128 0x9
 2915 006a 35       		.uleb128 0x35
 2916 006b 00       		.byte	0
 2917 006c 49       		.uleb128 0x49
 2918 006d 13       		.uleb128 0x13
 2919 006e 00       		.byte	0
 2920 006f 00       		.byte	0
 2921 0070 0A       		.uleb128 0xa
 2922 0071 2E       		.uleb128 0x2e
 2923 0072 01       		.byte	0x1
 2924 0073 3F       		.uleb128 0x3f
 2925 0074 0C       		.uleb128 0xc
 2926 0075 03       		.uleb128 0x3
 2927 0076 0E       		.uleb128 0xe
 2928 0077 3A       		.uleb128 0x3a
 2929 0078 0B       		.uleb128 0xb
 2930 0079 3B       		.uleb128 0x3b
 2931 007a 05       		.uleb128 0x5
 2932 007b 27       		.uleb128 0x27
 2933 007c 0C       		.uleb128 0xc
 2934 007d 49       		.uleb128 0x49
 2935 007e 13       		.uleb128 0x13
 2936 007f 11       		.uleb128 0x11
 2937 0080 01       		.uleb128 0x1
 2938 0081 12       		.uleb128 0x12
 2939 0082 01       		.uleb128 0x1
 2940 0083 40       		.uleb128 0x40
 2941 0084 06       		.uleb128 0x6
 2942 0085 9642     		.uleb128 0x2116
 2943 0087 0C       		.uleb128 0xc
 2944 0088 01       		.uleb128 0x1
 2945 0089 13       		.uleb128 0x13
 2946 008a 00       		.byte	0
 2947 008b 00       		.byte	0
 2948 008c 0B       		.uleb128 0xb
 2949 008d 05       		.uleb128 0x5
 2950 008e 00       		.byte	0
 2951 008f 03       		.uleb128 0x3
 2952 0090 0E       		.uleb128 0xe
 2953 0091 3A       		.uleb128 0x3a
 2954 0092 0B       		.uleb128 0xb
 2955 0093 3B       		.uleb128 0x3b
 2956 0094 05       		.uleb128 0x5
 2957 0095 49       		.uleb128 0x49
 2958 0096 13       		.uleb128 0x13
 2959 0097 02       		.uleb128 0x2
 2960 0098 0A       		.uleb128 0xa
 2961 0099 00       		.byte	0
 2962 009a 00       		.byte	0
 2963 009b 0C       		.uleb128 0xc
 2964 009c 34       		.uleb128 0x34
 2965 009d 00       		.byte	0
 2966 009e 03       		.uleb128 0x3
 2967 009f 0E       		.uleb128 0xe
 2968 00a0 3A       		.uleb128 0x3a
 2969 00a1 0B       		.uleb128 0xb
 2970 00a2 3B       		.uleb128 0x3b
ARM GAS  C:\Users\Grzybek\AppData\Local\Temp\ccXBk3wH.s 			page 79


 2971 00a3 05       		.uleb128 0x5
 2972 00a4 49       		.uleb128 0x49
 2973 00a5 13       		.uleb128 0x13
 2974 00a6 02       		.uleb128 0x2
 2975 00a7 0A       		.uleb128 0xa
 2976 00a8 00       		.byte	0
 2977 00a9 00       		.byte	0
 2978 00aa 0D       		.uleb128 0xd
 2979 00ab 26       		.uleb128 0x26
 2980 00ac 00       		.byte	0
 2981 00ad 49       		.uleb128 0x49
 2982 00ae 13       		.uleb128 0x13
 2983 00af 00       		.byte	0
 2984 00b0 00       		.byte	0
 2985 00b1 0E       		.uleb128 0xe
 2986 00b2 26       		.uleb128 0x26
 2987 00b3 00       		.byte	0
 2988 00b4 00       		.byte	0
 2989 00b5 00       		.byte	0
 2990 00b6 0F       		.uleb128 0xf
 2991 00b7 2E       		.uleb128 0x2e
 2992 00b8 01       		.byte	0x1
 2993 00b9 3F       		.uleb128 0x3f
 2994 00ba 0C       		.uleb128 0xc
 2995 00bb 03       		.uleb128 0x3
 2996 00bc 0E       		.uleb128 0xe
 2997 00bd 3A       		.uleb128 0x3a
 2998 00be 0B       		.uleb128 0xb
 2999 00bf 3B       		.uleb128 0x3b
 3000 00c0 05       		.uleb128 0x5
 3001 00c1 27       		.uleb128 0x27
 3002 00c2 0C       		.uleb128 0xc
 3003 00c3 49       		.uleb128 0x49
 3004 00c4 13       		.uleb128 0x13
 3005 00c5 11       		.uleb128 0x11
 3006 00c6 01       		.uleb128 0x1
 3007 00c7 12       		.uleb128 0x12
 3008 00c8 01       		.uleb128 0x1
 3009 00c9 40       		.uleb128 0x40
 3010 00ca 06       		.uleb128 0x6
 3011 00cb 9742     		.uleb128 0x2117
 3012 00cd 0C       		.uleb128 0xc
 3013 00ce 01       		.uleb128 0x1
 3014 00cf 13       		.uleb128 0x13
 3015 00d0 00       		.byte	0
 3016 00d1 00       		.byte	0
 3017 00d2 10       		.uleb128 0x10
 3018 00d3 2E       		.uleb128 0x2e
 3019 00d4 01       		.byte	0x1
 3020 00d5 3F       		.uleb128 0x3f
 3021 00d6 0C       		.uleb128 0xc
 3022 00d7 03       		.uleb128 0x3
 3023 00d8 0E       		.uleb128 0xe
 3024 00d9 3A       		.uleb128 0x3a
 3025 00da 0B       		.uleb128 0xb
 3026 00db 3B       		.uleb128 0x3b
 3027 00dc 05       		.uleb128 0x5
ARM GAS  C:\Users\Grzybek\AppData\Local\Temp\ccXBk3wH.s 			page 80


 3028 00dd 27       		.uleb128 0x27
 3029 00de 0C       		.uleb128 0xc
 3030 00df 11       		.uleb128 0x11
 3031 00e0 01       		.uleb128 0x1
 3032 00e1 12       		.uleb128 0x12
 3033 00e2 01       		.uleb128 0x1
 3034 00e3 40       		.uleb128 0x40
 3035 00e4 06       		.uleb128 0x6
 3036 00e5 9642     		.uleb128 0x2116
 3037 00e7 0C       		.uleb128 0xc
 3038 00e8 01       		.uleb128 0x1
 3039 00e9 13       		.uleb128 0x13
 3040 00ea 00       		.byte	0
 3041 00eb 00       		.byte	0
 3042 00ec 11       		.uleb128 0x11
 3043 00ed 2E       		.uleb128 0x2e
 3044 00ee 01       		.byte	0x1
 3045 00ef 03       		.uleb128 0x3
 3046 00f0 0E       		.uleb128 0xe
 3047 00f1 3A       		.uleb128 0x3a
 3048 00f2 0B       		.uleb128 0xb
 3049 00f3 3B       		.uleb128 0x3b
 3050 00f4 05       		.uleb128 0x5
 3051 00f5 27       		.uleb128 0x27
 3052 00f6 0C       		.uleb128 0xc
 3053 00f7 11       		.uleb128 0x11
 3054 00f8 01       		.uleb128 0x1
 3055 00f9 12       		.uleb128 0x12
 3056 00fa 01       		.uleb128 0x1
 3057 00fb 40       		.uleb128 0x40
 3058 00fc 06       		.uleb128 0x6
 3059 00fd 9642     		.uleb128 0x2116
 3060 00ff 0C       		.uleb128 0xc
 3061 0100 01       		.uleb128 0x1
 3062 0101 13       		.uleb128 0x13
 3063 0102 00       		.byte	0
 3064 0103 00       		.byte	0
 3065 0104 12       		.uleb128 0x12
 3066 0105 2E       		.uleb128 0x2e
 3067 0106 01       		.byte	0x1
 3068 0107 03       		.uleb128 0x3
 3069 0108 0E       		.uleb128 0xe
 3070 0109 3A       		.uleb128 0x3a
 3071 010a 0B       		.uleb128 0xb
 3072 010b 3B       		.uleb128 0x3b
 3073 010c 05       		.uleb128 0x5
 3074 010d 27       		.uleb128 0x27
 3075 010e 0C       		.uleb128 0xc
 3076 010f 49       		.uleb128 0x49
 3077 0110 13       		.uleb128 0x13
 3078 0111 11       		.uleb128 0x11
 3079 0112 01       		.uleb128 0x1
 3080 0113 12       		.uleb128 0x12
 3081 0114 01       		.uleb128 0x1
 3082 0115 40       		.uleb128 0x40
 3083 0116 06       		.uleb128 0x6
 3084 0117 9642     		.uleb128 0x2116
ARM GAS  C:\Users\Grzybek\AppData\Local\Temp\ccXBk3wH.s 			page 81


 3085 0119 0C       		.uleb128 0xc
 3086 011a 01       		.uleb128 0x1
 3087 011b 13       		.uleb128 0x13
 3088 011c 00       		.byte	0
 3089 011d 00       		.byte	0
 3090 011e 13       		.uleb128 0x13
 3091 011f 2E       		.uleb128 0x2e
 3092 0120 01       		.byte	0x1
 3093 0121 3F       		.uleb128 0x3f
 3094 0122 0C       		.uleb128 0xc
 3095 0123 03       		.uleb128 0x3
 3096 0124 0E       		.uleb128 0xe
 3097 0125 3A       		.uleb128 0x3a
 3098 0126 0B       		.uleb128 0xb
 3099 0127 3B       		.uleb128 0x3b
 3100 0128 05       		.uleb128 0x5
 3101 0129 27       		.uleb128 0x27
 3102 012a 0C       		.uleb128 0xc
 3103 012b 49       		.uleb128 0x49
 3104 012c 13       		.uleb128 0x13
 3105 012d 11       		.uleb128 0x11
 3106 012e 01       		.uleb128 0x1
 3107 012f 12       		.uleb128 0x12
 3108 0130 01       		.uleb128 0x1
 3109 0131 40       		.uleb128 0x40
 3110 0132 06       		.uleb128 0x6
 3111 0133 9742     		.uleb128 0x2117
 3112 0135 0C       		.uleb128 0xc
 3113 0136 00       		.byte	0
 3114 0137 00       		.byte	0
 3115 0138 00       		.byte	0
 3116              		.section	.debug_loc,"",%progbits
 3117              	.Ldebug_loc0:
 3118              	.LLST0:
 3119 0000 00000000 		.4byte	.LFB0
 3120 0004 02000000 		.4byte	.LCFI0
 3121 0008 0200     		.2byte	0x2
 3122 000a 7D       		.byte	0x7d
 3123 000b 00       		.sleb128 0
 3124 000c 02000000 		.4byte	.LCFI0
 3125 0010 04000000 		.4byte	.LCFI1
 3126 0014 0200     		.2byte	0x2
 3127 0016 7D       		.byte	0x7d
 3128 0017 08       		.sleb128 8
 3129 0018 04000000 		.4byte	.LCFI1
 3130 001c 06000000 		.4byte	.LCFI2
 3131 0020 0200     		.2byte	0x2
 3132 0022 7D       		.byte	0x7d
 3133 0023 10       		.sleb128 16
 3134 0024 06000000 		.4byte	.LCFI2
 3135 0028 AE000000 		.4byte	.LFE0
 3136 002c 0200     		.2byte	0x2
 3137 002e 77       		.byte	0x77
 3138 002f 10       		.sleb128 16
 3139 0030 00000000 		.4byte	0
 3140 0034 00000000 		.4byte	0
 3141              	.LLST1:
ARM GAS  C:\Users\Grzybek\AppData\Local\Temp\ccXBk3wH.s 			page 82


 3142 0038 00000000 		.4byte	.LFB1
 3143 003c 02000000 		.4byte	.LCFI3
 3144 0040 0200     		.2byte	0x2
 3145 0042 7D       		.byte	0x7d
 3146 0043 00       		.sleb128 0
 3147 0044 02000000 		.4byte	.LCFI3
 3148 0048 04000000 		.4byte	.LCFI4
 3149 004c 0200     		.2byte	0x2
 3150 004e 7D       		.byte	0x7d
 3151 004f 08       		.sleb128 8
 3152 0050 04000000 		.4byte	.LCFI4
 3153 0054 06000000 		.4byte	.LCFI5
 3154 0058 0200     		.2byte	0x2
 3155 005a 7D       		.byte	0x7d
 3156 005b 28       		.sleb128 40
 3157 005c 06000000 		.4byte	.LCFI5
 3158 0060 7A000000 		.4byte	.LFE1
 3159 0064 0200     		.2byte	0x2
 3160 0066 77       		.byte	0x77
 3161 0067 28       		.sleb128 40
 3162 0068 00000000 		.4byte	0
 3163 006c 00000000 		.4byte	0
 3164              	.LLST2:
 3165 0070 00000000 		.4byte	.LFB2
 3166 0074 02000000 		.4byte	.LCFI6
 3167 0078 0200     		.2byte	0x2
 3168 007a 7D       		.byte	0x7d
 3169 007b 00       		.sleb128 0
 3170 007c 02000000 		.4byte	.LCFI6
 3171 0080 04000000 		.4byte	.LCFI7
 3172 0084 0200     		.2byte	0x2
 3173 0086 7D       		.byte	0x7d
 3174 0087 08       		.sleb128 8
 3175 0088 04000000 		.4byte	.LCFI7
 3176 008c 06000000 		.4byte	.LCFI8
 3177 0090 0200     		.2byte	0x2
 3178 0092 7D       		.byte	0x7d
 3179 0093 18       		.sleb128 24
 3180 0094 06000000 		.4byte	.LCFI8
 3181 0098 98000000 		.4byte	.LFE2
 3182 009c 0200     		.2byte	0x2
 3183 009e 77       		.byte	0x77
 3184 009f 18       		.sleb128 24
 3185 00a0 00000000 		.4byte	0
 3186 00a4 00000000 		.4byte	0
 3187              	.LLST3:
 3188 00a8 00000000 		.4byte	.LFB3
 3189 00ac 02000000 		.4byte	.LCFI9
 3190 00b0 0200     		.2byte	0x2
 3191 00b2 7D       		.byte	0x7d
 3192 00b3 00       		.sleb128 0
 3193 00b4 02000000 		.4byte	.LCFI9
 3194 00b8 04000000 		.4byte	.LCFI10
 3195 00bc 0200     		.2byte	0x2
 3196 00be 7D       		.byte	0x7d
 3197 00bf 0C       		.sleb128 12
 3198 00c0 04000000 		.4byte	.LCFI10
ARM GAS  C:\Users\Grzybek\AppData\Local\Temp\ccXBk3wH.s 			page 83


 3199 00c4 06000000 		.4byte	.LCFI11
 3200 00c8 0200     		.2byte	0x2
 3201 00ca 7D       		.byte	0x7d
 3202 00cb 20       		.sleb128 32
 3203 00cc 06000000 		.4byte	.LCFI11
 3204 00d0 56000000 		.4byte	.LFE3
 3205 00d4 0200     		.2byte	0x2
 3206 00d6 77       		.byte	0x77
 3207 00d7 20       		.sleb128 32
 3208 00d8 00000000 		.4byte	0
 3209 00dc 00000000 		.4byte	0
 3210              	.LLST4:
 3211 00e0 00000000 		.4byte	.LFB4
 3212 00e4 02000000 		.4byte	.LCFI12
 3213 00e8 0200     		.2byte	0x2
 3214 00ea 7D       		.byte	0x7d
 3215 00eb 00       		.sleb128 0
 3216 00ec 02000000 		.4byte	.LCFI12
 3217 00f0 04000000 		.4byte	.LCFI13
 3218 00f4 0200     		.2byte	0x2
 3219 00f6 7D       		.byte	0x7d
 3220 00f7 0C       		.sleb128 12
 3221 00f8 04000000 		.4byte	.LCFI13
 3222 00fc 06000000 		.4byte	.LCFI14
 3223 0100 0200     		.2byte	0x2
 3224 0102 7D       		.byte	0x7d
 3225 0103 20       		.sleb128 32
 3226 0104 06000000 		.4byte	.LCFI14
 3227 0108 5C000000 		.4byte	.LFE4
 3228 010c 0200     		.2byte	0x2
 3229 010e 77       		.byte	0x77
 3230 010f 20       		.sleb128 32
 3231 0110 00000000 		.4byte	0
 3232 0114 00000000 		.4byte	0
 3233              	.LLST5:
 3234 0118 00000000 		.4byte	.LFB5
 3235 011c 02000000 		.4byte	.LCFI15
 3236 0120 0200     		.2byte	0x2
 3237 0122 7D       		.byte	0x7d
 3238 0123 00       		.sleb128 0
 3239 0124 02000000 		.4byte	.LCFI15
 3240 0128 04000000 		.4byte	.LCFI16
 3241 012c 0200     		.2byte	0x2
 3242 012e 7D       		.byte	0x7d
 3243 012f 08       		.sleb128 8
 3244 0130 04000000 		.4byte	.LCFI16
 3245 0134 06000000 		.4byte	.LCFI17
 3246 0138 0200     		.2byte	0x2
 3247 013a 7D       		.byte	0x7d
 3248 013b 28       		.sleb128 40
 3249 013c 06000000 		.4byte	.LCFI17
 3250 0140 20010000 		.4byte	.LFE5
 3251 0144 0200     		.2byte	0x2
 3252 0146 77       		.byte	0x77
 3253 0147 28       		.sleb128 40
 3254 0148 00000000 		.4byte	0
 3255 014c 00000000 		.4byte	0
ARM GAS  C:\Users\Grzybek\AppData\Local\Temp\ccXBk3wH.s 			page 84


 3256              	.LLST6:
 3257 0150 00000000 		.4byte	.LFB6
 3258 0154 02000000 		.4byte	.LCFI18
 3259 0158 0200     		.2byte	0x2
 3260 015a 7D       		.byte	0x7d
 3261 015b 00       		.sleb128 0
 3262 015c 02000000 		.4byte	.LCFI18
 3263 0160 04000000 		.4byte	.LCFI19
 3264 0164 0200     		.2byte	0x2
 3265 0166 7D       		.byte	0x7d
 3266 0167 08       		.sleb128 8
 3267 0168 04000000 		.4byte	.LCFI19
 3268 016c 06000000 		.4byte	.LCFI20
 3269 0170 0200     		.2byte	0x2
 3270 0172 7D       		.byte	0x7d
 3271 0173 20       		.sleb128 32
 3272 0174 06000000 		.4byte	.LCFI20
 3273 0178 8A000000 		.4byte	.LFE6
 3274 017c 0200     		.2byte	0x2
 3275 017e 77       		.byte	0x77
 3276 017f 20       		.sleb128 32
 3277 0180 00000000 		.4byte	0
 3278 0184 00000000 		.4byte	0
 3279              	.LLST7:
 3280 0188 00000000 		.4byte	.LFB7
 3281 018c 02000000 		.4byte	.LCFI21
 3282 0190 0200     		.2byte	0x2
 3283 0192 7D       		.byte	0x7d
 3284 0193 00       		.sleb128 0
 3285 0194 02000000 		.4byte	.LCFI21
 3286 0198 04000000 		.4byte	.LCFI22
 3287 019c 0200     		.2byte	0x2
 3288 019e 7D       		.byte	0x7d
 3289 019f 08       		.sleb128 8
 3290 01a0 04000000 		.4byte	.LCFI22
 3291 01a4 06000000 		.4byte	.LCFI23
 3292 01a8 0200     		.2byte	0x2
 3293 01aa 7D       		.byte	0x7d
 3294 01ab 28       		.sleb128 40
 3295 01ac 06000000 		.4byte	.LCFI23
 3296 01b0 86010000 		.4byte	.LFE7
 3297 01b4 0200     		.2byte	0x2
 3298 01b6 77       		.byte	0x77
 3299 01b7 28       		.sleb128 40
 3300 01b8 00000000 		.4byte	0
 3301 01bc 00000000 		.4byte	0
 3302              	.LLST8:
 3303 01c0 00000000 		.4byte	.LFB8
 3304 01c4 02000000 		.4byte	.LCFI24
 3305 01c8 0200     		.2byte	0x2
 3306 01ca 7D       		.byte	0x7d
 3307 01cb 00       		.sleb128 0
 3308 01cc 02000000 		.4byte	.LCFI24
 3309 01d0 04000000 		.4byte	.LCFI25
 3310 01d4 0200     		.2byte	0x2
 3311 01d6 7D       		.byte	0x7d
 3312 01d7 08       		.sleb128 8
ARM GAS  C:\Users\Grzybek\AppData\Local\Temp\ccXBk3wH.s 			page 85


 3313 01d8 04000000 		.4byte	.LCFI25
 3314 01dc 06000000 		.4byte	.LCFI26
 3315 01e0 0200     		.2byte	0x2
 3316 01e2 7D       		.byte	0x7d
 3317 01e3 20       		.sleb128 32
 3318 01e4 06000000 		.4byte	.LCFI26
 3319 01e8 8E000000 		.4byte	.LFE8
 3320 01ec 0200     		.2byte	0x2
 3321 01ee 77       		.byte	0x77
 3322 01ef 20       		.sleb128 32
 3323 01f0 00000000 		.4byte	0
 3324 01f4 00000000 		.4byte	0
 3325              	.LLST9:
 3326 01f8 00000000 		.4byte	.LFB9
 3327 01fc 02000000 		.4byte	.LCFI27
 3328 0200 0200     		.2byte	0x2
 3329 0202 7D       		.byte	0x7d
 3330 0203 00       		.sleb128 0
 3331 0204 02000000 		.4byte	.LCFI27
 3332 0208 04000000 		.4byte	.LCFI28
 3333 020c 0200     		.2byte	0x2
 3334 020e 7D       		.byte	0x7d
 3335 020f 08       		.sleb128 8
 3336 0210 04000000 		.4byte	.LCFI28
 3337 0214 06000000 		.4byte	.LCFI29
 3338 0218 0200     		.2byte	0x2
 3339 021a 7D       		.byte	0x7d
 3340 021b 18       		.sleb128 24
 3341 021c 06000000 		.4byte	.LCFI29
 3342 0220 22000000 		.4byte	.LFE9
 3343 0224 0200     		.2byte	0x2
 3344 0226 77       		.byte	0x77
 3345 0227 18       		.sleb128 24
 3346 0228 00000000 		.4byte	0
 3347 022c 00000000 		.4byte	0
 3348              	.LLST10:
 3349 0230 00000000 		.4byte	.LFB10
 3350 0234 02000000 		.4byte	.LCFI30
 3351 0238 0200     		.2byte	0x2
 3352 023a 7D       		.byte	0x7d
 3353 023b 00       		.sleb128 0
 3354 023c 02000000 		.4byte	.LCFI30
 3355 0240 04000000 		.4byte	.LCFI31
 3356 0244 0200     		.2byte	0x2
 3357 0246 7D       		.byte	0x7d
 3358 0247 04       		.sleb128 4
 3359 0248 04000000 		.4byte	.LCFI31
 3360 024c 06000000 		.4byte	.LCFI32
 3361 0250 0200     		.2byte	0x2
 3362 0252 7D       		.byte	0x7d
 3363 0253 18       		.sleb128 24
 3364 0254 06000000 		.4byte	.LCFI32
 3365 0258 1C000000 		.4byte	.LFE10
 3366 025c 0200     		.2byte	0x2
 3367 025e 77       		.byte	0x77
 3368 025f 18       		.sleb128 24
 3369 0260 00000000 		.4byte	0
ARM GAS  C:\Users\Grzybek\AppData\Local\Temp\ccXBk3wH.s 			page 86


 3370 0264 00000000 		.4byte	0
 3371              	.LLST11:
 3372 0268 00000000 		.4byte	.LFB11
 3373 026c 02000000 		.4byte	.LCFI33
 3374 0270 0200     		.2byte	0x2
 3375 0272 7D       		.byte	0x7d
 3376 0273 00       		.sleb128 0
 3377 0274 02000000 		.4byte	.LCFI33
 3378 0278 04000000 		.4byte	.LCFI34
 3379 027c 0200     		.2byte	0x2
 3380 027e 7D       		.byte	0x7d
 3381 027f 08       		.sleb128 8
 3382 0280 04000000 		.4byte	.LCFI34
 3383 0284 06000000 		.4byte	.LCFI35
 3384 0288 0200     		.2byte	0x2
 3385 028a 7D       		.byte	0x7d
 3386 028b 10       		.sleb128 16
 3387 028c 06000000 		.4byte	.LCFI35
 3388 0290 20000000 		.4byte	.LFE11
 3389 0294 0200     		.2byte	0x2
 3390 0296 77       		.byte	0x77
 3391 0297 10       		.sleb128 16
 3392 0298 00000000 		.4byte	0
 3393 029c 00000000 		.4byte	0
 3394              	.LLST12:
 3395 02a0 00000000 		.4byte	.LFB12
 3396 02a4 02000000 		.4byte	.LCFI36
 3397 02a8 0200     		.2byte	0x2
 3398 02aa 7D       		.byte	0x7d
 3399 02ab 00       		.sleb128 0
 3400 02ac 02000000 		.4byte	.LCFI36
 3401 02b0 04000000 		.4byte	.LCFI37
 3402 02b4 0200     		.2byte	0x2
 3403 02b6 7D       		.byte	0x7d
 3404 02b7 08       		.sleb128 8
 3405 02b8 04000000 		.4byte	.LCFI37
 3406 02bc 06000000 		.4byte	.LCFI38
 3407 02c0 0200     		.2byte	0x2
 3408 02c2 7D       		.byte	0x7d
 3409 02c3 18       		.sleb128 24
 3410 02c4 06000000 		.4byte	.LCFI38
 3411 02c8 C2000000 		.4byte	.LFE12
 3412 02cc 0200     		.2byte	0x2
 3413 02ce 77       		.byte	0x77
 3414 02cf 18       		.sleb128 24
 3415 02d0 00000000 		.4byte	0
 3416 02d4 00000000 		.4byte	0
 3417              	.LLST13:
 3418 02d8 00000000 		.4byte	.LFB13
 3419 02dc 02000000 		.4byte	.LCFI39
 3420 02e0 0200     		.2byte	0x2
 3421 02e2 7D       		.byte	0x7d
 3422 02e3 00       		.sleb128 0
 3423 02e4 02000000 		.4byte	.LCFI39
 3424 02e8 04000000 		.4byte	.LCFI40
 3425 02ec 0200     		.2byte	0x2
 3426 02ee 7D       		.byte	0x7d
ARM GAS  C:\Users\Grzybek\AppData\Local\Temp\ccXBk3wH.s 			page 87


 3427 02ef 08       		.sleb128 8
 3428 02f0 04000000 		.4byte	.LCFI40
 3429 02f4 06000000 		.4byte	.LCFI41
 3430 02f8 0200     		.2byte	0x2
 3431 02fa 7D       		.byte	0x7d
 3432 02fb 10       		.sleb128 16
 3433 02fc 06000000 		.4byte	.LCFI41
 3434 0300 4E000000 		.4byte	.LFE13
 3435 0304 0200     		.2byte	0x2
 3436 0306 77       		.byte	0x77
 3437 0307 10       		.sleb128 16
 3438 0308 00000000 		.4byte	0
 3439 030c 00000000 		.4byte	0
 3440              	.LLST14:
 3441 0310 00000000 		.4byte	.LFB14
 3442 0314 02000000 		.4byte	.LCFI42
 3443 0318 0200     		.2byte	0x2
 3444 031a 7D       		.byte	0x7d
 3445 031b 00       		.sleb128 0
 3446 031c 02000000 		.4byte	.LCFI42
 3447 0320 04000000 		.4byte	.LCFI43
 3448 0324 0200     		.2byte	0x2
 3449 0326 7D       		.byte	0x7d
 3450 0327 08       		.sleb128 8
 3451 0328 04000000 		.4byte	.LCFI43
 3452 032c 06000000 		.4byte	.LCFI44
 3453 0330 0200     		.2byte	0x2
 3454 0332 7D       		.byte	0x7d
 3455 0333 10       		.sleb128 16
 3456 0334 06000000 		.4byte	.LCFI44
 3457 0338 A0000000 		.4byte	.LFE14
 3458 033c 0200     		.2byte	0x2
 3459 033e 77       		.byte	0x77
 3460 033f 10       		.sleb128 16
 3461 0340 00000000 		.4byte	0
 3462 0344 00000000 		.4byte	0
 3463              	.LLST15:
 3464 0348 00000000 		.4byte	.LFB15
 3465 034c 02000000 		.4byte	.LCFI45
 3466 0350 0200     		.2byte	0x2
 3467 0352 7D       		.byte	0x7d
 3468 0353 00       		.sleb128 0
 3469 0354 02000000 		.4byte	.LCFI45
 3470 0358 04000000 		.4byte	.LCFI46
 3471 035c 0200     		.2byte	0x2
 3472 035e 7D       		.byte	0x7d
 3473 035f 08       		.sleb128 8
 3474 0360 04000000 		.4byte	.LCFI46
 3475 0364 06000000 		.4byte	.LCFI47
 3476 0368 0200     		.2byte	0x2
 3477 036a 7D       		.byte	0x7d
 3478 036b 18       		.sleb128 24
 3479 036c 06000000 		.4byte	.LCFI47
 3480 0370 2C000000 		.4byte	.LFE15
 3481 0374 0200     		.2byte	0x2
 3482 0376 77       		.byte	0x77
 3483 0377 18       		.sleb128 24
ARM GAS  C:\Users\Grzybek\AppData\Local\Temp\ccXBk3wH.s 			page 88


 3484 0378 00000000 		.4byte	0
 3485 037c 00000000 		.4byte	0
 3486              	.LLST16:
 3487 0380 00000000 		.4byte	.LFB16
 3488 0384 02000000 		.4byte	.LCFI48
 3489 0388 0200     		.2byte	0x2
 3490 038a 7D       		.byte	0x7d
 3491 038b 00       		.sleb128 0
 3492 038c 02000000 		.4byte	.LCFI48
 3493 0390 04000000 		.4byte	.LCFI49
 3494 0394 0200     		.2byte	0x2
 3495 0396 7D       		.byte	0x7d
 3496 0397 04       		.sleb128 4
 3497 0398 04000000 		.4byte	.LCFI49
 3498 039c 06000000 		.4byte	.LCFI50
 3499 03a0 0200     		.2byte	0x2
 3500 03a2 7D       		.byte	0x7d
 3501 03a3 18       		.sleb128 24
 3502 03a4 06000000 		.4byte	.LCFI50
 3503 03a8 26000000 		.4byte	.LFE16
 3504 03ac 0200     		.2byte	0x2
 3505 03ae 77       		.byte	0x77
 3506 03af 18       		.sleb128 24
 3507 03b0 00000000 		.4byte	0
 3508 03b4 00000000 		.4byte	0
 3509              	.LLST17:
 3510 03b8 00000000 		.4byte	.LFB17
 3511 03bc 02000000 		.4byte	.LCFI51
 3512 03c0 0200     		.2byte	0x2
 3513 03c2 7D       		.byte	0x7d
 3514 03c3 00       		.sleb128 0
 3515 03c4 02000000 		.4byte	.LCFI51
 3516 03c8 04000000 		.4byte	.LCFI52
 3517 03cc 0200     		.2byte	0x2
 3518 03ce 7D       		.byte	0x7d
 3519 03cf 08       		.sleb128 8
 3520 03d0 04000000 		.4byte	.LCFI52
 3521 03d4 06000000 		.4byte	.LCFI53
 3522 03d8 0200     		.2byte	0x2
 3523 03da 7D       		.byte	0x7d
 3524 03db 18       		.sleb128 24
 3525 03dc 06000000 		.4byte	.LCFI53
 3526 03e0 30000000 		.4byte	.LFE17
 3527 03e4 0200     		.2byte	0x2
 3528 03e6 77       		.byte	0x77
 3529 03e7 18       		.sleb128 24
 3530 03e8 00000000 		.4byte	0
 3531 03ec 00000000 		.4byte	0
 3532              	.LLST18:
 3533 03f0 00000000 		.4byte	.LFB18
 3534 03f4 02000000 		.4byte	.LCFI54
 3535 03f8 0200     		.2byte	0x2
 3536 03fa 7D       		.byte	0x7d
 3537 03fb 00       		.sleb128 0
 3538 03fc 02000000 		.4byte	.LCFI54
 3539 0400 04000000 		.4byte	.LCFI55
 3540 0404 0200     		.2byte	0x2
ARM GAS  C:\Users\Grzybek\AppData\Local\Temp\ccXBk3wH.s 			page 89


 3541 0406 7D       		.byte	0x7d
 3542 0407 04       		.sleb128 4
 3543 0408 04000000 		.4byte	.LCFI55
 3544 040c 06000000 		.4byte	.LCFI56
 3545 0410 0200     		.2byte	0x2
 3546 0412 7D       		.byte	0x7d
 3547 0413 18       		.sleb128 24
 3548 0414 06000000 		.4byte	.LCFI56
 3549 0418 2A000000 		.4byte	.LFE18
 3550 041c 0200     		.2byte	0x2
 3551 041e 77       		.byte	0x77
 3552 041f 18       		.sleb128 24
 3553 0420 00000000 		.4byte	0
 3554 0424 00000000 		.4byte	0
 3555              		.section	.debug_aranges,"",%progbits
 3556 0000 AC000000 		.4byte	0xac
 3557 0004 0200     		.2byte	0x2
 3558 0006 00000000 		.4byte	.Ldebug_info0
 3559 000a 04       		.byte	0x4
 3560 000b 00       		.byte	0
 3561 000c 0000     		.2byte	0
 3562 000e 0000     		.2byte	0
 3563 0010 00000000 		.4byte	.LFB0
 3564 0014 AE000000 		.4byte	.LFE0-.LFB0
 3565 0018 00000000 		.4byte	.LFB1
 3566 001c 7A000000 		.4byte	.LFE1-.LFB1
 3567 0020 00000000 		.4byte	.LFB2
 3568 0024 98000000 		.4byte	.LFE2-.LFB2
 3569 0028 00000000 		.4byte	.LFB3
 3570 002c 56000000 		.4byte	.LFE3-.LFB3
 3571 0030 00000000 		.4byte	.LFB4
 3572 0034 5C000000 		.4byte	.LFE4-.LFB4
 3573 0038 00000000 		.4byte	.LFB5
 3574 003c 20010000 		.4byte	.LFE5-.LFB5
 3575 0040 00000000 		.4byte	.LFB6
 3576 0044 8A000000 		.4byte	.LFE6-.LFB6
 3577 0048 00000000 		.4byte	.LFB7
 3578 004c 86010000 		.4byte	.LFE7-.LFB7
 3579 0050 00000000 		.4byte	.LFB8
 3580 0054 8E000000 		.4byte	.LFE8-.LFB8
 3581 0058 00000000 		.4byte	.LFB9
 3582 005c 22000000 		.4byte	.LFE9-.LFB9
 3583 0060 00000000 		.4byte	.LFB10
 3584 0064 1C000000 		.4byte	.LFE10-.LFB10
 3585 0068 00000000 		.4byte	.LFB11
 3586 006c 20000000 		.4byte	.LFE11-.LFB11
 3587 0070 00000000 		.4byte	.LFB12
 3588 0074 C2000000 		.4byte	.LFE12-.LFB12
 3589 0078 00000000 		.4byte	.LFB13
 3590 007c 4E000000 		.4byte	.LFE13-.LFB13
 3591 0080 00000000 		.4byte	.LFB14
 3592 0084 A0000000 		.4byte	.LFE14-.LFB14
 3593 0088 00000000 		.4byte	.LFB15
 3594 008c 2C000000 		.4byte	.LFE15-.LFB15
 3595 0090 00000000 		.4byte	.LFB16
 3596 0094 26000000 		.4byte	.LFE16-.LFB16
 3597 0098 00000000 		.4byte	.LFB17
ARM GAS  C:\Users\Grzybek\AppData\Local\Temp\ccXBk3wH.s 			page 90


 3598 009c 30000000 		.4byte	.LFE17-.LFB17
 3599 00a0 00000000 		.4byte	.LFB18
 3600 00a4 2A000000 		.4byte	.LFE18-.LFB18
 3601 00a8 00000000 		.4byte	0
 3602 00ac 00000000 		.4byte	0
 3603              		.section	.debug_ranges,"",%progbits
 3604              	.Ldebug_ranges0:
 3605 0000 00000000 		.4byte	.LFB0
 3606 0004 AE000000 		.4byte	.LFE0
 3607 0008 00000000 		.4byte	.LFB1
 3608 000c 7A000000 		.4byte	.LFE1
 3609 0010 00000000 		.4byte	.LFB2
 3610 0014 98000000 		.4byte	.LFE2
 3611 0018 00000000 		.4byte	.LFB3
 3612 001c 56000000 		.4byte	.LFE3
 3613 0020 00000000 		.4byte	.LFB4
 3614 0024 5C000000 		.4byte	.LFE4
 3615 0028 00000000 		.4byte	.LFB5
 3616 002c 20010000 		.4byte	.LFE5
 3617 0030 00000000 		.4byte	.LFB6
 3618 0034 8A000000 		.4byte	.LFE6
 3619 0038 00000000 		.4byte	.LFB7
 3620 003c 86010000 		.4byte	.LFE7
 3621 0040 00000000 		.4byte	.LFB8
 3622 0044 8E000000 		.4byte	.LFE8
 3623 0048 00000000 		.4byte	.LFB9
 3624 004c 22000000 		.4byte	.LFE9
 3625 0050 00000000 		.4byte	.LFB10
 3626 0054 1C000000 		.4byte	.LFE10
 3627 0058 00000000 		.4byte	.LFB11
 3628 005c 20000000 		.4byte	.LFE11
 3629 0060 00000000 		.4byte	.LFB12
 3630 0064 C2000000 		.4byte	.LFE12
 3631 0068 00000000 		.4byte	.LFB13
 3632 006c 4E000000 		.4byte	.LFE13
 3633 0070 00000000 		.4byte	.LFB14
 3634 0074 A0000000 		.4byte	.LFE14
 3635 0078 00000000 		.4byte	.LFB15
 3636 007c 2C000000 		.4byte	.LFE15
 3637 0080 00000000 		.4byte	.LFB16
 3638 0084 26000000 		.4byte	.LFE16
 3639 0088 00000000 		.4byte	.LFB17
 3640 008c 30000000 		.4byte	.LFE17
 3641 0090 00000000 		.4byte	.LFB18
 3642 0094 2A000000 		.4byte	.LFE18
 3643 0098 00000000 		.4byte	0
 3644 009c 00000000 		.4byte	0
 3645              		.section	.debug_macro,"",%progbits
 3646              	.Ldebug_macro0:
 3647 0000 0400     		.2byte	0x4
 3648 0002 02       		.byte	0x2
 3649 0003 00000000 		.4byte	.Ldebug_line0
 3650 0007 07       		.byte	0x7
 3651 0008 00000000 		.4byte	.Ldebug_macro1
 3652 000c 03       		.byte	0x3
 3653 000d 00       		.uleb128 0
 3654 000e 01       		.uleb128 0x1
ARM GAS  C:\Users\Grzybek\AppData\Local\Temp\ccXBk3wH.s 			page 91


 3655              		.file 6 "c:\\codesourcery\\sourcery_codebench_lite_for_arm_eabi\\bin\\../lib/gcc/arm-none-eabi/4.7
 3656 000f 03       		.byte	0x3
 3657 0010 45       		.uleb128 0x45
 3658 0011 06       		.uleb128 0x6
 3659 0012 05       		.byte	0x5
 3660 0013 08       		.uleb128 0x8
 3661 0014 30500000 		.4byte	.LASF88
 3662              		.file 7 "c:\\codesourcery\\sourcery_codebench_lite_for_arm_eabi\\bin\\../lib/gcc/arm-none-eabi/4.7
 3663 0018 03       		.byte	0x3
 3664 0019 0A       		.uleb128 0xa
 3665 001a 07       		.uleb128 0x7
 3666 001b 05       		.byte	0x5
 3667 001c 3C       		.uleb128 0x3c
 3668 001d E83E0000 		.4byte	.LASF89
 3669 0021 04       		.byte	0x4
 3670              		.file 8 "c:\\codesourcery\\sourcery_codebench_lite_for_arm_eabi\\bin\\../lib/gcc/arm-none-eabi/4.7
 3671 0022 03       		.byte	0x3
 3672 0023 0B       		.uleb128 0xb
 3673 0024 08       		.uleb128 0x8
 3674 0025 05       		.byte	0x5
 3675 0026 0D       		.uleb128 0xd
 3676 0027 E6380000 		.4byte	.LASF90
 3677              		.file 9 "c:\\codesourcery\\sourcery_codebench_lite_for_arm_eabi\\bin\\../lib/gcc/arm-none-eabi/4.7
 3678 002b 03       		.byte	0x3
 3679 002c 0F       		.uleb128 0xf
 3680 002d 09       		.uleb128 0x9
 3681 002e 07       		.byte	0x7
 3682 002f 00000000 		.4byte	.Ldebug_macro2
 3683 0033 04       		.byte	0x4
 3684              		.file 10 "c:\\codesourcery\\sourcery_codebench_lite_for_arm_eabi\\bin\\../lib/gcc/arm-none-eabi/4.
 3685 0034 03       		.byte	0x3
 3686 0035 10       		.uleb128 0x10
 3687 0036 0A       		.uleb128 0xa
 3688 0037 05       		.byte	0x5
 3689 0038 02       		.uleb128 0x2
 3690 0039 D0360000 		.4byte	.LASF91
 3691 003d 03       		.byte	0x3
 3692 003e 04       		.uleb128 0x4
 3693 003f 07       		.uleb128 0x7
 3694 0040 04       		.byte	0x4
 3695              		.file 11 "c:\\codesourcery\\sourcery_codebench_lite_for_arm_eabi\\bin\\../lib/gcc/arm-none-eabi/4.
 3696 0041 03       		.byte	0x3
 3697 0042 05       		.uleb128 0x5
 3698 0043 0B       		.uleb128 0xb
 3699 0044 05       		.byte	0x5
 3700 0045 16       		.uleb128 0x16
 3701 0046 6F180000 		.4byte	.LASF92
 3702 004a 04       		.byte	0x4
 3703 004b 07       		.byte	0x7
 3704 004c 00000000 		.4byte	.Ldebug_macro3
 3705 0050 04       		.byte	0x4
 3706 0051 07       		.byte	0x7
 3707 0052 00000000 		.4byte	.Ldebug_macro4
 3708 0056 04       		.byte	0x4
 3709 0057 07       		.byte	0x7
 3710 0058 00000000 		.4byte	.Ldebug_macro5
 3711 005c 03       		.byte	0x3
ARM GAS  C:\Users\Grzybek\AppData\Local\Temp\ccXBk3wH.s 			page 92


 3712 005d 14       		.uleb128 0x14
 3713 005e 02       		.uleb128 0x2
 3714 005f 07       		.byte	0x7
 3715 0060 00000000 		.4byte	.Ldebug_macro6
 3716 0064 04       		.byte	0x4
 3717              		.file 12 "c:\\codesourcery\\sourcery_codebench_lite_for_arm_eabi\\bin\\../lib/gcc/arm-none-eabi/4.
 3718 0065 03       		.byte	0x3
 3719 0066 16       		.uleb128 0x16
 3720 0067 0C       		.uleb128 0xc
 3721 0068 05       		.byte	0x5
 3722 0069 0B       		.uleb128 0xb
 3723 006a 493B0000 		.4byte	.LASF93
 3724 006e 03       		.byte	0x3
 3725 006f 0D       		.uleb128 0xd
 3726 0070 08       		.uleb128 0x8
 3727 0071 04       		.byte	0x4
 3728              		.file 13 "c:\\codesourcery\\sourcery_codebench_lite_for_arm_eabi\\bin\\../lib/gcc/arm-none-eabi/4.
 3729 0072 03       		.byte	0x3
 3730 0073 0E       		.uleb128 0xe
 3731 0074 0D       		.uleb128 0xd
 3732 0075 05       		.byte	0x5
 3733 0076 0A       		.uleb128 0xa
 3734 0077 671F0000 		.4byte	.LASF94
 3735              		.file 14 "c:\\codesourcery\\sourcery_codebench_lite_for_arm_eabi\\bin\\../lib/gcc/arm-none-eabi/4.
 3736 007b 03       		.byte	0x3
 3737 007c 0C       		.uleb128 0xc
 3738 007d 0E       		.uleb128 0xe
 3739 007e 05       		.byte	0x5
 3740 007f 06       		.uleb128 0x6
 3741 0080 B43E0000 		.4byte	.LASF95
 3742              		.file 15 "c:\\codesourcery\\sourcery_codebench_lite_for_arm_eabi\\bin\\../lib/gcc/arm-none-eabi/4.
 3743 0084 03       		.byte	0x3
 3744 0085 07       		.uleb128 0x7
 3745 0086 0F       		.uleb128 0xf
 3746 0087 07       		.byte	0x7
 3747 0088 00000000 		.4byte	.Ldebug_macro7
 3748 008c 04       		.byte	0x4
 3749 008d 04       		.byte	0x4
 3750              		.file 16 "c:\\codesourcery\\sourcery_codebench_lite_for_arm_eabi\\bin\\../lib/gcc/arm-none-eabi/4.
 3751 008e 03       		.byte	0x3
 3752 008f 0D       		.uleb128 0xd
 3753 0090 10       		.uleb128 0x10
 3754 0091 07       		.byte	0x7
 3755 0092 00000000 		.4byte	.Ldebug_macro8
 3756 0096 04       		.byte	0x4
 3757 0097 05       		.byte	0x5
 3758 0098 44       		.uleb128 0x44
 3759 0099 01600000 		.4byte	.LASF96
 3760 009d 03       		.byte	0x3
 3761 009e 45       		.uleb128 0x45
 3762 009f 02       		.uleb128 0x2
 3763 00a0 07       		.byte	0x7
 3764 00a1 00000000 		.4byte	.Ldebug_macro9
 3765 00a5 04       		.byte	0x4
 3766 00a6 04       		.byte	0x4
 3767 00a7 07       		.byte	0x7
 3768 00a8 00000000 		.4byte	.Ldebug_macro10
ARM GAS  C:\Users\Grzybek\AppData\Local\Temp\ccXBk3wH.s 			page 93


 3769 00ac 04       		.byte	0x4
 3770              		.file 17 "c:\\codesourcery\\sourcery_codebench_lite_for_arm_eabi\\bin\\../lib/gcc/arm-none-eabi/4.
 3771 00ad 03       		.byte	0x3
 3772 00ae 17       		.uleb128 0x17
 3773 00af 11       		.uleb128 0x11
 3774 00b0 05       		.byte	0x5
 3775 00b1 02       		.uleb128 0x2
 3776 00b2 B2570000 		.4byte	.LASF97
 3777 00b6 04       		.byte	0x4
 3778              		.file 18 "c:\\codesourcery\\sourcery_codebench_lite_for_arm_eabi\\bin\\../lib/gcc/arm-none-eabi/4.
 3779 00b7 03       		.byte	0x3
 3780 00b8 19       		.uleb128 0x19
 3781 00b9 12       		.uleb128 0x12
 3782 00ba 07       		.byte	0x7
 3783 00bb 00000000 		.4byte	.Ldebug_macro11
 3784 00bf 04       		.byte	0x4
 3785 00c0 07       		.byte	0x7
 3786 00c1 00000000 		.4byte	.Ldebug_macro12
 3787 00c5 04       		.byte	0x4
 3788              		.file 19 "c:\\codesourcery\\sourcery_codebench_lite_for_arm_eabi\\bin\\../lib/gcc/arm-none-eabi/4.
 3789 00c6 03       		.byte	0x3
 3790 00c7 46       		.uleb128 0x46
 3791 00c8 13       		.uleb128 0x13
 3792 00c9 07       		.byte	0x7
 3793 00ca 00000000 		.4byte	.Ldebug_macro13
 3794 00ce 03       		.byte	0x3
 3795 00cf 0E       		.uleb128 0xe
 3796 00d0 02       		.uleb128 0x2
 3797 00d1 07       		.byte	0x7
 3798 00d2 00000000 		.4byte	.Ldebug_macro14
 3799 00d6 04       		.byte	0x4
 3800 00d7 07       		.byte	0x7
 3801 00d8 00000000 		.4byte	.Ldebug_macro15
 3802              		.file 20 "c:\\codesourcery\\sourcery_codebench_lite_for_arm_eabi\\bin\\../lib/gcc/arm-none-eabi/4.
 3803 00dc 03       		.byte	0x3
 3804 00dd 64       		.uleb128 0x64
 3805 00de 14       		.uleb128 0x14
 3806 00df 04       		.byte	0x4
 3807 00e0 04       		.byte	0x4
 3808 00e1 05       		.byte	0x5
 3809 00e2 4B       		.uleb128 0x4b
 3810 00e3 A74D0000 		.4byte	.LASF98
 3811              		.file 21 "./Source/include/FreeRTOS.h"
 3812 00e7 03       		.byte	0x3
 3813 00e8 4D       		.uleb128 0x4d
 3814 00e9 15       		.uleb128 0x15
 3815 00ea 05       		.byte	0x5
 3816 00eb 46       		.uleb128 0x46
 3817 00ec 97440000 		.4byte	.LASF99
 3818 00f0 03       		.byte	0x3
 3819 00f1 4C       		.uleb128 0x4c
 3820 00f2 02       		.uleb128 0x2
 3821 00f3 07       		.byte	0x7
 3822 00f4 00000000 		.4byte	.Ldebug_macro16
 3823 00f8 04       		.byte	0x4
 3824              		.file 22 "./Source/include/projdefs.h"
 3825 00f9 03       		.byte	0x3
ARM GAS  C:\Users\Grzybek\AppData\Local\Temp\ccXBk3wH.s 			page 94


 3826 00fa 4F       		.uleb128 0x4f
 3827 00fb 16       		.uleb128 0x16
 3828 00fc 07       		.byte	0x7
 3829 00fd 00000000 		.4byte	.Ldebug_macro17
 3830 0101 04       		.byte	0x4
 3831              		.file 23 "./FreeRTOSConfig.h"
 3832 0102 03       		.byte	0x3
 3833 0103 52       		.uleb128 0x52
 3834 0104 17       		.uleb128 0x17
 3835 0105 07       		.byte	0x7
 3836 0106 00000000 		.4byte	.Ldebug_macro18
 3837 010a 04       		.byte	0x4
 3838 010b 05       		.byte	0x5
 3839 010c 57       		.uleb128 0x57
 3840 010d 26570000 		.4byte	.LASF100
 3841              		.file 24 "./Source/include/portable.h"
 3842 0111 03       		.byte	0x3
 3843 0112 5B       		.uleb128 0x5b
 3844 0113 18       		.uleb128 0x18
 3845 0114 05       		.byte	0x5
 3846 0115 4A       		.uleb128 0x4a
 3847 0116 2A190000 		.4byte	.LASF101
 3848 011a 03       		.byte	0x3
 3849 011b C501     		.uleb128 0xc5
 3850 011d 03       		.uleb128 0x3
 3851 011e 07       		.byte	0x7
 3852 011f 00000000 		.4byte	.Ldebug_macro19
 3853 0123 04       		.byte	0x4
 3854 0124 07       		.byte	0x7
 3855 0125 00000000 		.4byte	.Ldebug_macro20
 3856              		.file 25 "./Source/include/mpu_wrappers.h"
 3857 0129 03       		.byte	0x3
 3858 012a E102     		.uleb128 0x161
 3859 012c 19       		.uleb128 0x19
 3860 012d 07       		.byte	0x7
 3861 012e 00000000 		.4byte	.Ldebug_macro21
 3862 0132 04       		.byte	0x4
 3863 0133 04       		.byte	0x4
 3864 0134 07       		.byte	0x7
 3865 0135 00000000 		.4byte	.Ldebug_macro22
 3866 0139 04       		.byte	0x4
 3867 013a 03       		.byte	0x3
 3868 013b 4E       		.uleb128 0x4e
 3869 013c 05       		.uleb128 0x5
 3870 013d 05       		.byte	0x5
 3871 013e 46       		.uleb128 0x46
 3872 013f AA400000 		.4byte	.LASF102
 3873 0143 03       		.byte	0x3
 3874 0144 4D       		.uleb128 0x4d
 3875 0145 04       		.uleb128 0x4
 3876 0146 07       		.byte	0x7
 3877 0147 00000000 		.4byte	.Ldebug_macro23
 3878 014b 04       		.byte	0x4
 3879 014c 07       		.byte	0x7
 3880 014d 00000000 		.4byte	.Ldebug_macro24
 3881 0151 04       		.byte	0x4
 3882 0152 06       		.byte	0x6
ARM GAS  C:\Users\Grzybek\AppData\Local\Temp\ccXBk3wH.s 			page 95


 3883 0153 54       		.uleb128 0x54
 3884 0154 C64C0000 		.4byte	.LASF103
 3885 0158 05       		.byte	0x5
 3886 0159 5B       		.uleb128 0x5b
 3887 015a BC450000 		.4byte	.LASF104
 3888 015e 05       		.byte	0x5
 3889 015f 5C       		.uleb128 0x5c
 3890 0160 311F0000 		.4byte	.LASF105
 3891 0164 05       		.byte	0x5
 3892 0165 5E       		.uleb128 0x5e
 3893 0166 87570000 		.4byte	.LASF106
 3894 016a 05       		.byte	0x5
 3895 016b 61       		.uleb128 0x61
 3896 016c 18320000 		.4byte	.LASF107
 3897 0170 05       		.byte	0x5
 3898 0171 62       		.uleb128 0x62
 3899 0172 395F0000 		.4byte	.LASF108
 3900 0176 05       		.byte	0x5
 3901 0177 65       		.uleb128 0x65
 3902 0178 E51E0000 		.4byte	.LASF109
 3903 017c 05       		.byte	0x5
 3904 017d 66       		.uleb128 0x66
 3905 017e 2B1A0000 		.4byte	.LASF110
 3906 0182 05       		.byte	0x5
 3907 0183 67       		.uleb128 0x67
 3908 0184 F8310000 		.4byte	.LASF111
 3909 0188 05       		.byte	0x5
 3910 0189 68       		.uleb128 0x68
 3911 018a 7C170000 		.4byte	.LASF112
 3912 018e 05       		.byte	0x5
 3913 018f 6C       		.uleb128 0x6c
 3914 0190 7A070000 		.4byte	.LASF113
 3915 0194 05       		.byte	0x5
 3916 0195 6D       		.uleb128 0x6d
 3917 0196 83150000 		.4byte	.LASF114
 3918 019a 05       		.byte	0x5
 3919 019b 6E       		.uleb128 0x6e
 3920 019c AB150000 		.4byte	.LASF115
 3921 01a0 05       		.byte	0x5
 3922 01a1 71       		.uleb128 0x71
 3923 01a2 9F520000 		.4byte	.LASF116
 3924 01a6 05       		.byte	0x5
 3925 01a7 72       		.uleb128 0x72
 3926 01a8 214F0000 		.4byte	.LASF117
 3927 01ac 05       		.byte	0x5
 3928 01ad 73       		.uleb128 0x73
 3929 01ae DB620000 		.4byte	.LASF118
 3930 01b2 05       		.byte	0x5
 3931 01b3 74       		.uleb128 0x74
 3932 01b4 825F0000 		.4byte	.LASF119
 3933 01b8 05       		.byte	0x5
 3934 01b9 75       		.uleb128 0x75
 3935 01ba 4E4A0000 		.4byte	.LASF120
 3936 01be 05       		.byte	0x5
 3937 01bf 8502     		.uleb128 0x105
 3938 01c1 2F210000 		.4byte	.LASF121
 3939 01c5 04       		.byte	0x4
ARM GAS  C:\Users\Grzybek\AppData\Local\Temp\ccXBk3wH.s 			page 96


 3940 01c6 00       		.byte	0
 3941              		.section	.debug_macro,"G",%progbits,wm4.1.ce89de828273fac0ab1bbb9e83b278fe,comdat
 3942              	.Ldebug_macro1:
 3943 0000 0400     		.2byte	0x4
 3944 0002 00       		.byte	0
 3945 0003 05       		.byte	0x5
 3946 0004 01       		.uleb128 0x1
 3947 0005 653D0000 		.4byte	.LASF122
 3948 0009 05       		.byte	0x5
 3949 000a 01       		.uleb128 0x1
 3950 000b 2E0A0000 		.4byte	.LASF123
 3951 000f 05       		.byte	0x5
 3952 0010 01       		.uleb128 0x1
 3953 0011 ED3B0000 		.4byte	.LASF124
 3954 0015 05       		.byte	0x5
 3955 0016 01       		.uleb128 0x1
 3956 0017 50160000 		.4byte	.LASF125
 3957 001b 05       		.byte	0x5
 3958 001c 01       		.uleb128 0x1
 3959 001d 1D070000 		.4byte	.LASF126
 3960 0021 05       		.byte	0x5
 3961 0022 01       		.uleb128 0x1
 3962 0023 612A0000 		.4byte	.LASF127
 3963 0027 05       		.byte	0x5
 3964 0028 01       		.uleb128 0x1
 3965 0029 104F0000 		.4byte	.LASF128
 3966 002d 05       		.byte	0x5
 3967 002e 01       		.uleb128 0x1
 3968 002f 5B560000 		.4byte	.LASF129
 3969 0033 05       		.byte	0x5
 3970 0034 01       		.uleb128 0x1
 3971 0035 ED020000 		.4byte	.LASF130
 3972 0039 05       		.byte	0x5
 3973 003a 01       		.uleb128 0x1
 3974 003b 35550000 		.4byte	.LASF131
 3975 003f 05       		.byte	0x5
 3976 0040 01       		.uleb128 0x1
 3977 0041 45170000 		.4byte	.LASF132
 3978 0045 05       		.byte	0x5
 3979 0046 01       		.uleb128 0x1
 3980 0047 73260000 		.4byte	.LASF133
 3981 004b 05       		.byte	0x5
 3982 004c 01       		.uleb128 0x1
 3983 004d 102E0000 		.4byte	.LASF134
 3984 0051 05       		.byte	0x5
 3985 0052 01       		.uleb128 0x1
 3986 0053 85630000 		.4byte	.LASF135
 3987 0057 05       		.byte	0x5
 3988 0058 01       		.uleb128 0x1
 3989 0059 BC280000 		.4byte	.LASF136
 3990 005d 05       		.byte	0x5
 3991 005e 01       		.uleb128 0x1
 3992 005f 2C4A0000 		.4byte	.LASF137
 3993 0063 05       		.byte	0x5
 3994 0064 01       		.uleb128 0x1
 3995 0065 735B0000 		.4byte	.LASF138
 3996 0069 05       		.byte	0x5
ARM GAS  C:\Users\Grzybek\AppData\Local\Temp\ccXBk3wH.s 			page 97


 3997 006a 01       		.uleb128 0x1
 3998 006b D2110000 		.4byte	.LASF139
 3999 006f 05       		.byte	0x5
 4000 0070 01       		.uleb128 0x1
 4001 0071 01030000 		.4byte	.LASF140
 4002 0075 05       		.byte	0x5
 4003 0076 01       		.uleb128 0x1
 4004 0077 23180000 		.4byte	.LASF141
 4005 007b 05       		.byte	0x5
 4006 007c 01       		.uleb128 0x1
 4007 007d 62160000 		.4byte	.LASF142
 4008 0081 05       		.byte	0x5
 4009 0082 01       		.uleb128 0x1
 4010 0083 60120000 		.4byte	.LASF143
 4011 0087 05       		.byte	0x5
 4012 0088 01       		.uleb128 0x1
 4013 0089 9B180000 		.4byte	.LASF144
 4014 008d 05       		.byte	0x5
 4015 008e 01       		.uleb128 0x1
 4016 008f EA520000 		.4byte	.LASF145
 4017 0093 05       		.byte	0x5
 4018 0094 01       		.uleb128 0x1
 4019 0095 96370000 		.4byte	.LASF146
 4020 0099 05       		.byte	0x5
 4021 009a 01       		.uleb128 0x1
 4022 009b 93420000 		.4byte	.LASF147
 4023 009f 05       		.byte	0x5
 4024 00a0 01       		.uleb128 0x1
 4025 00a1 B1460000 		.4byte	.LASF148
 4026 00a5 05       		.byte	0x5
 4027 00a6 01       		.uleb128 0x1
 4028 00a7 D00A0000 		.4byte	.LASF149
 4029 00ab 05       		.byte	0x5
 4030 00ac 01       		.uleb128 0x1
 4031 00ad 243E0000 		.4byte	.LASF150
 4032 00b1 05       		.byte	0x5
 4033 00b2 01       		.uleb128 0x1
 4034 00b3 B5380000 		.4byte	.LASF151
 4035 00b7 05       		.byte	0x5
 4036 00b8 01       		.uleb128 0x1
 4037 00b9 7C3D0000 		.4byte	.LASF152
 4038 00bd 05       		.byte	0x5
 4039 00be 01       		.uleb128 0x1
 4040 00bf 47100000 		.4byte	.LASF153
 4041 00c3 05       		.byte	0x5
 4042 00c4 01       		.uleb128 0x1
 4043 00c5 F7030000 		.4byte	.LASF154
 4044 00c9 05       		.byte	0x5
 4045 00ca 01       		.uleb128 0x1
 4046 00cb C2470000 		.4byte	.LASF155
 4047 00cf 05       		.byte	0x5
 4048 00d0 01       		.uleb128 0x1
 4049 00d1 E2180000 		.4byte	.LASF156
 4050 00d5 05       		.byte	0x5
 4051 00d6 01       		.uleb128 0x1
 4052 00d7 DE070000 		.4byte	.LASF157
 4053 00db 05       		.byte	0x5
ARM GAS  C:\Users\Grzybek\AppData\Local\Temp\ccXBk3wH.s 			page 98


 4054 00dc 01       		.uleb128 0x1
 4055 00dd 564F0000 		.4byte	.LASF158
 4056 00e1 05       		.byte	0x5
 4057 00e2 01       		.uleb128 0x1
 4058 00e3 A4620000 		.4byte	.LASF159
 4059 00e7 05       		.byte	0x5
 4060 00e8 01       		.uleb128 0x1
 4061 00e9 77490000 		.4byte	.LASF160
 4062 00ed 05       		.byte	0x5
 4063 00ee 01       		.uleb128 0x1
 4064 00ef 9C110000 		.4byte	.LASF161
 4065 00f3 05       		.byte	0x5
 4066 00f4 01       		.uleb128 0x1
 4067 00f5 BF3D0000 		.4byte	.LASF162
 4068 00f9 05       		.byte	0x5
 4069 00fa 01       		.uleb128 0x1
 4070 00fb 3D040000 		.4byte	.LASF163
 4071 00ff 05       		.byte	0x5
 4072 0100 01       		.uleb128 0x1
 4073 0101 62060000 		.4byte	.LASF164
 4074 0105 05       		.byte	0x5
 4075 0106 01       		.uleb128 0x1
 4076 0107 AC310000 		.4byte	.LASF165
 4077 010b 05       		.byte	0x5
 4078 010c 01       		.uleb128 0x1
 4079 010d 66370000 		.4byte	.LASF166
 4080 0111 05       		.byte	0x5
 4081 0112 01       		.uleb128 0x1
 4082 0113 C81E0000 		.4byte	.LASF167
 4083 0117 05       		.byte	0x5
 4084 0118 01       		.uleb128 0x1
 4085 0119 1F080000 		.4byte	.LASF168
 4086 011d 05       		.byte	0x5
 4087 011e 01       		.uleb128 0x1
 4088 011f 5C5A0000 		.4byte	.LASF169
 4089 0123 05       		.byte	0x5
 4090 0124 01       		.uleb128 0x1
 4091 0125 04530000 		.4byte	.LASF170
 4092 0129 05       		.byte	0x5
 4093 012a 01       		.uleb128 0x1
 4094 012b 5C100000 		.4byte	.LASF171
 4095 012f 05       		.byte	0x5
 4096 0130 01       		.uleb128 0x1
 4097 0131 EB600000 		.4byte	.LASF172
 4098 0135 05       		.byte	0x5
 4099 0136 01       		.uleb128 0x1
 4100 0137 35460000 		.4byte	.LASF173
 4101 013b 05       		.byte	0x5
 4102 013c 01       		.uleb128 0x1
 4103 013d 3B650000 		.4byte	.LASF174
 4104 0141 05       		.byte	0x5
 4105 0142 01       		.uleb128 0x1
 4106 0143 AA0E0000 		.4byte	.LASF175
 4107 0147 05       		.byte	0x5
 4108 0148 01       		.uleb128 0x1
 4109 0149 26490000 		.4byte	.LASF176
 4110 014d 05       		.byte	0x5
ARM GAS  C:\Users\Grzybek\AppData\Local\Temp\ccXBk3wH.s 			page 99


 4111 014e 01       		.uleb128 0x1
 4112 014f E84E0000 		.4byte	.LASF177
 4113 0153 05       		.byte	0x5
 4114 0154 01       		.uleb128 0x1
 4115 0155 9A2D0000 		.4byte	.LASF178
 4116 0159 05       		.byte	0x5
 4117 015a 01       		.uleb128 0x1
 4118 015b 06070000 		.4byte	.LASF179
 4119 015f 05       		.byte	0x5
 4120 0160 01       		.uleb128 0x1
 4121 0161 8B480000 		.4byte	.LASF180
 4122 0165 05       		.byte	0x5
 4123 0166 01       		.uleb128 0x1
 4124 0167 CB350000 		.4byte	.LASF181
 4125 016b 05       		.byte	0x5
 4126 016c 01       		.uleb128 0x1
 4127 016d BC070000 		.4byte	.LASF182
 4128 0171 05       		.byte	0x5
 4129 0172 01       		.uleb128 0x1
 4130 0173 452B0000 		.4byte	.LASF183
 4131 0177 05       		.byte	0x5
 4132 0178 01       		.uleb128 0x1
 4133 0179 AA5F0000 		.4byte	.LASF184
 4134 017d 05       		.byte	0x5
 4135 017e 01       		.uleb128 0x1
 4136 017f 1D160000 		.4byte	.LASF185
 4137 0183 05       		.byte	0x5
 4138 0184 01       		.uleb128 0x1
 4139 0185 94190000 		.4byte	.LASF186
 4140 0189 05       		.byte	0x5
 4141 018a 01       		.uleb128 0x1
 4142 018b 360D0000 		.4byte	.LASF187
 4143 018f 05       		.byte	0x5
 4144 0190 01       		.uleb128 0x1
 4145 0191 E4510000 		.4byte	.LASF188
 4146 0195 05       		.byte	0x5
 4147 0196 01       		.uleb128 0x1
 4148 0197 7D190000 		.4byte	.LASF189
 4149 019b 05       		.byte	0x5
 4150 019c 01       		.uleb128 0x1
 4151 019d 7E1F0000 		.4byte	.LASF190
 4152 01a1 05       		.byte	0x5
 4153 01a2 01       		.uleb128 0x1
 4154 01a3 89560000 		.4byte	.LASF191
 4155 01a7 05       		.byte	0x5
 4156 01a8 01       		.uleb128 0x1
 4157 01a9 342D0000 		.4byte	.LASF192
 4158 01ad 05       		.byte	0x5
 4159 01ae 01       		.uleb128 0x1
 4160 01af D9570000 		.4byte	.LASF193
 4161 01b3 05       		.byte	0x5
 4162 01b4 01       		.uleb128 0x1
 4163 01b5 B6000000 		.4byte	.LASF194
 4164 01b9 05       		.byte	0x5
 4165 01ba 01       		.uleb128 0x1
 4166 01bb A00F0000 		.4byte	.LASF195
 4167 01bf 05       		.byte	0x5
ARM GAS  C:\Users\Grzybek\AppData\Local\Temp\ccXBk3wH.s 			page 100


 4168 01c0 01       		.uleb128 0x1
 4169 01c1 FE300000 		.4byte	.LASF196
 4170 01c5 05       		.byte	0x5
 4171 01c6 01       		.uleb128 0x1
 4172 01c7 524C0000 		.4byte	.LASF197
 4173 01cb 05       		.byte	0x5
 4174 01cc 01       		.uleb128 0x1
 4175 01cd 86600000 		.4byte	.LASF198
 4176 01d1 05       		.byte	0x5
 4177 01d2 01       		.uleb128 0x1
 4178 01d3 53460000 		.4byte	.LASF199
 4179 01d7 05       		.byte	0x5
 4180 01d8 01       		.uleb128 0x1
 4181 01d9 EA4C0000 		.4byte	.LASF200
 4182 01dd 05       		.byte	0x5
 4183 01de 01       		.uleb128 0x1
 4184 01df 7E290000 		.4byte	.LASF201
 4185 01e3 05       		.byte	0x5
 4186 01e4 01       		.uleb128 0x1
 4187 01e5 A0010000 		.4byte	.LASF202
 4188 01e9 05       		.byte	0x5
 4189 01ea 01       		.uleb128 0x1
 4190 01eb 504E0000 		.4byte	.LASF203
 4191 01ef 05       		.byte	0x5
 4192 01f0 01       		.uleb128 0x1
 4193 01f1 2F100000 		.4byte	.LASF204
 4194 01f5 05       		.byte	0x5
 4195 01f6 01       		.uleb128 0x1
 4196 01f7 5F3E0000 		.4byte	.LASF205
 4197 01fb 05       		.byte	0x5
 4198 01fc 01       		.uleb128 0x1
 4199 01fd ED200000 		.4byte	.LASF206
 4200 0201 05       		.byte	0x5
 4201 0202 01       		.uleb128 0x1
 4202 0203 65110000 		.4byte	.LASF207
 4203 0207 05       		.byte	0x5
 4204 0208 01       		.uleb128 0x1
 4205 0209 860C0000 		.4byte	.LASF208
 4206 020d 05       		.byte	0x5
 4207 020e 01       		.uleb128 0x1
 4208 020f A7440000 		.4byte	.LASF209
 4209 0213 05       		.byte	0x5
 4210 0214 01       		.uleb128 0x1
 4211 0215 21170000 		.4byte	.LASF210
 4212 0219 05       		.byte	0x5
 4213 021a 01       		.uleb128 0x1
 4214 021b 042C0000 		.4byte	.LASF211
 4215 021f 05       		.byte	0x5
 4216 0220 01       		.uleb128 0x1
 4217 0221 21540000 		.4byte	.LASF212
 4218 0225 05       		.byte	0x5
 4219 0226 01       		.uleb128 0x1
 4220 0227 0F310000 		.4byte	.LASF213
 4221 022b 05       		.byte	0x5
 4222 022c 01       		.uleb128 0x1
 4223 022d 42080000 		.4byte	.LASF214
 4224 0231 05       		.byte	0x5
ARM GAS  C:\Users\Grzybek\AppData\Local\Temp\ccXBk3wH.s 			page 101


 4225 0232 01       		.uleb128 0x1
 4226 0233 C7400000 		.4byte	.LASF215
 4227 0237 05       		.byte	0x5
 4228 0238 01       		.uleb128 0x1
 4229 0239 30440000 		.4byte	.LASF216
 4230 023d 05       		.byte	0x5
 4231 023e 01       		.uleb128 0x1
 4232 023f 401D0000 		.4byte	.LASF217
 4233 0243 05       		.byte	0x5
 4234 0244 01       		.uleb128 0x1
 4235 0245 CC620000 		.4byte	.LASF218
 4236 0249 05       		.byte	0x5
 4237 024a 01       		.uleb128 0x1
 4238 024b A1550000 		.4byte	.LASF219
 4239 024f 05       		.byte	0x5
 4240 0250 01       		.uleb128 0x1
 4241 0251 B01A0000 		.4byte	.LASF220
 4242 0255 05       		.byte	0x5
 4243 0256 01       		.uleb128 0x1
 4244 0257 844C0000 		.4byte	.LASF221
 4245 025b 05       		.byte	0x5
 4246 025c 01       		.uleb128 0x1
 4247 025d 44530000 		.4byte	.LASF222
 4248 0261 05       		.byte	0x5
 4249 0262 01       		.uleb128 0x1
 4250 0263 8D640000 		.4byte	.LASF223
 4251 0267 05       		.byte	0x5
 4252 0268 01       		.uleb128 0x1
 4253 0269 53060000 		.4byte	.LASF224
 4254 026d 05       		.byte	0x5
 4255 026e 01       		.uleb128 0x1
 4256 026f 9A490000 		.4byte	.LASF225
 4257 0273 05       		.byte	0x5
 4258 0274 01       		.uleb128 0x1
 4259 0275 EB540000 		.4byte	.LASF226
 4260 0279 05       		.byte	0x5
 4261 027a 01       		.uleb128 0x1
 4262 027b D1560000 		.4byte	.LASF227
 4263 027f 05       		.byte	0x5
 4264 0280 01       		.uleb128 0x1
 4265 0281 D01D0000 		.4byte	.LASF228
 4266 0285 05       		.byte	0x5
 4267 0286 01       		.uleb128 0x1
 4268 0287 A0430000 		.4byte	.LASF229
 4269 028b 05       		.byte	0x5
 4270 028c 01       		.uleb128 0x1
 4271 028d 832D0000 		.4byte	.LASF230
 4272 0291 05       		.byte	0x5
 4273 0292 01       		.uleb128 0x1
 4274 0293 CD430000 		.4byte	.LASF231
 4275 0297 05       		.byte	0x5
 4276 0298 01       		.uleb128 0x1
 4277 0299 F6100000 		.4byte	.LASF232
 4278 029d 05       		.byte	0x5
 4279 029e 01       		.uleb128 0x1
 4280 029f 23390000 		.4byte	.LASF233
 4281 02a3 05       		.byte	0x5
ARM GAS  C:\Users\Grzybek\AppData\Local\Temp\ccXBk3wH.s 			page 102


 4282 02a4 01       		.uleb128 0x1
 4283 02a5 01250000 		.4byte	.LASF234
 4284 02a9 05       		.byte	0x5
 4285 02aa 01       		.uleb128 0x1
 4286 02ab A9170000 		.4byte	.LASF235
 4287 02af 05       		.byte	0x5
 4288 02b0 01       		.uleb128 0x1
 4289 02b1 8A610000 		.4byte	.LASF236
 4290 02b5 05       		.byte	0x5
 4291 02b6 01       		.uleb128 0x1
 4292 02b7 6D640000 		.4byte	.LASF237
 4293 02bb 05       		.byte	0x5
 4294 02bc 01       		.uleb128 0x1
 4295 02bd 0F0F0000 		.4byte	.LASF238
 4296 02c1 05       		.byte	0x5
 4297 02c2 01       		.uleb128 0x1
 4298 02c3 E94D0000 		.4byte	.LASF239
 4299 02c7 05       		.byte	0x5
 4300 02c8 01       		.uleb128 0x1
 4301 02c9 AB3A0000 		.4byte	.LASF240
 4302 02cd 05       		.byte	0x5
 4303 02ce 01       		.uleb128 0x1
 4304 02cf 583B0000 		.4byte	.LASF241
 4305 02d3 05       		.byte	0x5
 4306 02d4 01       		.uleb128 0x1
 4307 02d5 503A0000 		.4byte	.LASF242
 4308 02d9 05       		.byte	0x5
 4309 02da 01       		.uleb128 0x1
 4310 02db DA310000 		.4byte	.LASF243
 4311 02df 05       		.byte	0x5
 4312 02e0 01       		.uleb128 0x1
 4313 02e1 542E0000 		.4byte	.LASF244
 4314 02e5 05       		.byte	0x5
 4315 02e6 01       		.uleb128 0x1
 4316 02e7 C73A0000 		.4byte	.LASF245
 4317 02eb 05       		.byte	0x5
 4318 02ec 01       		.uleb128 0x1
 4319 02ed 393A0000 		.4byte	.LASF246
 4320 02f1 05       		.byte	0x5
 4321 02f2 01       		.uleb128 0x1
 4322 02f3 E4110000 		.4byte	.LASF247
 4323 02f7 05       		.byte	0x5
 4324 02f8 01       		.uleb128 0x1
 4325 02f9 BE110000 		.4byte	.LASF248
 4326 02fd 05       		.byte	0x5
 4327 02fe 01       		.uleb128 0x1
 4328 02ff 87160000 		.4byte	.LASF249
 4329 0303 05       		.byte	0x5
 4330 0304 01       		.uleb128 0x1
 4331 0305 68130000 		.4byte	.LASF250
 4332 0309 05       		.byte	0x5
 4333 030a 01       		.uleb128 0x1
 4334 030b AA300000 		.4byte	.LASF251
 4335 030f 05       		.byte	0x5
 4336 0310 01       		.uleb128 0x1
 4337 0311 F8190000 		.4byte	.LASF252
 4338 0315 05       		.byte	0x5
ARM GAS  C:\Users\Grzybek\AppData\Local\Temp\ccXBk3wH.s 			page 103


 4339 0316 01       		.uleb128 0x1
 4340 0317 3F1E0000 		.4byte	.LASF253
 4341 031b 05       		.byte	0x5
 4342 031c 01       		.uleb128 0x1
 4343 031d E01C0000 		.4byte	.LASF254
 4344 0321 05       		.byte	0x5
 4345 0322 01       		.uleb128 0x1
 4346 0323 28040000 		.4byte	.LASF255
 4347 0327 05       		.byte	0x5
 4348 0328 01       		.uleb128 0x1
 4349 0329 CF280000 		.4byte	.LASF256
 4350 032d 05       		.byte	0x5
 4351 032e 01       		.uleb128 0x1
 4352 032f FE3E0000 		.4byte	.LASF257
 4353 0333 05       		.byte	0x5
 4354 0334 01       		.uleb128 0x1
 4355 0335 D1640000 		.4byte	.LASF258
 4356 0339 05       		.byte	0x5
 4357 033a 01       		.uleb128 0x1
 4358 033b 71520000 		.4byte	.LASF259
 4359 033f 05       		.byte	0x5
 4360 0340 01       		.uleb128 0x1
 4361 0341 75440000 		.4byte	.LASF260
 4362 0345 05       		.byte	0x5
 4363 0346 01       		.uleb128 0x1
 4364 0347 A60A0000 		.4byte	.LASF261
 4365 034b 05       		.byte	0x5
 4366 034c 01       		.uleb128 0x1
 4367 034d FB2D0000 		.4byte	.LASF262
 4368 0351 05       		.byte	0x5
 4369 0352 01       		.uleb128 0x1
 4370 0353 18030000 		.4byte	.LASF263
 4371 0357 05       		.byte	0x5
 4372 0358 01       		.uleb128 0x1
 4373 0359 AD560000 		.4byte	.LASF264
 4374 035d 05       		.byte	0x5
 4375 035e 01       		.uleb128 0x1
 4376 035f 0A610000 		.4byte	.LASF265
 4377 0363 05       		.byte	0x5
 4378 0364 01       		.uleb128 0x1
 4379 0365 430F0000 		.4byte	.LASF266
 4380 0369 05       		.byte	0x5
 4381 036a 01       		.uleb128 0x1
 4382 036b 6C280000 		.4byte	.LASF267
 4383 036f 05       		.byte	0x5
 4384 0370 01       		.uleb128 0x1
 4385 0371 9F590000 		.4byte	.LASF268
 4386 0375 05       		.byte	0x5
 4387 0376 01       		.uleb128 0x1
 4388 0377 CF230000 		.4byte	.LASF269
 4389 037b 05       		.byte	0x5
 4390 037c 01       		.uleb128 0x1
 4391 037d 8A550000 		.4byte	.LASF270
 4392 0381 05       		.byte	0x5
 4393 0382 01       		.uleb128 0x1
 4394 0383 3C500000 		.4byte	.LASF271
 4395 0387 05       		.byte	0x5
ARM GAS  C:\Users\Grzybek\AppData\Local\Temp\ccXBk3wH.s 			page 104


 4396 0388 01       		.uleb128 0x1
 4397 0389 31060000 		.4byte	.LASF272
 4398 038d 05       		.byte	0x5
 4399 038e 01       		.uleb128 0x1
 4400 038f 4A600000 		.4byte	.LASF273
 4401 0393 05       		.byte	0x5
 4402 0394 01       		.uleb128 0x1
 4403 0395 BE040000 		.4byte	.LASF274
 4404 0399 05       		.byte	0x5
 4405 039a 01       		.uleb128 0x1
 4406 039b 49290000 		.4byte	.LASF275
 4407 039f 05       		.byte	0x5
 4408 03a0 01       		.uleb128 0x1
 4409 03a1 F01B0000 		.4byte	.LASF276
 4410 03a5 05       		.byte	0x5
 4411 03a6 01       		.uleb128 0x1
 4412 03a7 72610000 		.4byte	.LASF277
 4413 03ab 05       		.byte	0x5
 4414 03ac 01       		.uleb128 0x1
 4415 03ad AB040000 		.4byte	.LASF278
 4416 03b1 05       		.byte	0x5
 4417 03b2 01       		.uleb128 0x1
 4418 03b3 0B1D0000 		.4byte	.LASF279
 4419 03b7 05       		.byte	0x5
 4420 03b8 01       		.uleb128 0x1
 4421 03b9 CA530000 		.4byte	.LASF280
 4422 03bd 05       		.byte	0x5
 4423 03be 01       		.uleb128 0x1
 4424 03bf C41A0000 		.4byte	.LASF281
 4425 03c3 05       		.byte	0x5
 4426 03c4 01       		.uleb128 0x1
 4427 03c5 5F2F0000 		.4byte	.LASF282
 4428 03c9 05       		.byte	0x5
 4429 03ca 01       		.uleb128 0x1
 4430 03cb 5D450000 		.4byte	.LASF283
 4431 03cf 05       		.byte	0x5
 4432 03d0 01       		.uleb128 0x1
 4433 03d1 A21F0000 		.4byte	.LASF284
 4434 03d5 05       		.byte	0x5
 4435 03d6 01       		.uleb128 0x1
 4436 03d7 3F0E0000 		.4byte	.LASF285
 4437 03db 05       		.byte	0x5
 4438 03dc 01       		.uleb128 0x1
 4439 03dd 4A420000 		.4byte	.LASF286
 4440 03e1 05       		.byte	0x5
 4441 03e2 01       		.uleb128 0x1
 4442 03e3 851A0000 		.4byte	.LASF287
 4443 03e7 05       		.byte	0x5
 4444 03e8 01       		.uleb128 0x1
 4445 03e9 192B0000 		.4byte	.LASF288
 4446 03ed 05       		.byte	0x5
 4447 03ee 01       		.uleb128 0x1
 4448 03ef 93030000 		.4byte	.LASF289
 4449 03f3 05       		.byte	0x5
 4450 03f4 01       		.uleb128 0x1
 4451 03f5 0E0E0000 		.4byte	.LASF290
 4452 03f9 05       		.byte	0x5
ARM GAS  C:\Users\Grzybek\AppData\Local\Temp\ccXBk3wH.s 			page 105


 4453 03fa 01       		.uleb128 0x1
 4454 03fb DB0B0000 		.4byte	.LASF291
 4455 03ff 05       		.byte	0x5
 4456 0400 01       		.uleb128 0x1
 4457 0401 DC010000 		.4byte	.LASF292
 4458 0405 05       		.byte	0x5
 4459 0406 01       		.uleb128 0x1
 4460 0407 D7460000 		.4byte	.LASF293
 4461 040b 05       		.byte	0x5
 4462 040c 01       		.uleb128 0x1
 4463 040d CE3C0000 		.4byte	.LASF294
 4464 0411 05       		.byte	0x5
 4465 0412 01       		.uleb128 0x1
 4466 0413 12040000 		.4byte	.LASF295
 4467 0417 05       		.byte	0x5
 4468 0418 01       		.uleb128 0x1
 4469 0419 1D450000 		.4byte	.LASF296
 4470 041d 05       		.byte	0x5
 4471 041e 01       		.uleb128 0x1
 4472 041f CB120000 		.4byte	.LASF297
 4473 0423 05       		.byte	0x5
 4474 0424 01       		.uleb128 0x1
 4475 0425 96600000 		.4byte	.LASF298
 4476 0429 05       		.byte	0x5
 4477 042a 01       		.uleb128 0x1
 4478 042b 8E240000 		.4byte	.LASF299
 4479 042f 05       		.byte	0x5
 4480 0430 01       		.uleb128 0x1
 4481 0431 483E0000 		.4byte	.LASF300
 4482 0435 05       		.byte	0x5
 4483 0436 01       		.uleb128 0x1
 4484 0437 3E130000 		.4byte	.LASF301
 4485 043b 05       		.byte	0x5
 4486 043c 01       		.uleb128 0x1
 4487 043d 70510000 		.4byte	.LASF302
 4488 0441 05       		.byte	0x5
 4489 0442 01       		.uleb128 0x1
 4490 0443 2B530000 		.4byte	.LASF303
 4491 0447 05       		.byte	0x5
 4492 0448 01       		.uleb128 0x1
 4493 0449 4D010000 		.4byte	.LASF304
 4494 044d 05       		.byte	0x5
 4495 044e 01       		.uleb128 0x1
 4496 044f 1D000000 		.4byte	.LASF305
 4497 0453 05       		.byte	0x5
 4498 0454 01       		.uleb128 0x1
 4499 0455 2C520000 		.4byte	.LASF306
 4500 0459 05       		.byte	0x5
 4501 045a 01       		.uleb128 0x1
 4502 045b 9B000000 		.4byte	.LASF307
 4503 045f 05       		.byte	0x5
 4504 0460 01       		.uleb128 0x1
 4505 0461 82380000 		.4byte	.LASF308
 4506 0465 05       		.byte	0x5
 4507 0466 01       		.uleb128 0x1
 4508 0467 222A0000 		.4byte	.LASF309
 4509 046b 05       		.byte	0x5
ARM GAS  C:\Users\Grzybek\AppData\Local\Temp\ccXBk3wH.s 			page 106


 4510 046c 01       		.uleb128 0x1
 4511 046d 84620000 		.4byte	.LASF310
 4512 0471 05       		.byte	0x5
 4513 0472 01       		.uleb128 0x1
 4514 0473 810A0000 		.4byte	.LASF311
 4515 0477 05       		.byte	0x5
 4516 0478 01       		.uleb128 0x1
 4517 0479 54250000 		.4byte	.LASF312
 4518 047d 05       		.byte	0x5
 4519 047e 01       		.uleb128 0x1
 4520 047f 9D1A0000 		.4byte	.LASF313
 4521 0483 05       		.byte	0x5
 4522 0484 01       		.uleb128 0x1
 4523 0485 441B0000 		.4byte	.LASF314
 4524 0489 05       		.byte	0x5
 4525 048a 01       		.uleb128 0x1
 4526 048b 2B090000 		.4byte	.LASF315
 4527 048f 05       		.byte	0x5
 4528 0490 01       		.uleb128 0x1
 4529 0491 BF240000 		.4byte	.LASF316
 4530 0495 05       		.byte	0x5
 4531 0496 01       		.uleb128 0x1
 4532 0497 08140000 		.4byte	.LASF317
 4533 049b 05       		.byte	0x5
 4534 049c 01       		.uleb128 0x1
 4535 049d 90460000 		.4byte	.LASF318
 4536 04a1 05       		.byte	0x5
 4537 04a2 01       		.uleb128 0x1
 4538 04a3 2F030000 		.4byte	.LASF319
 4539 04a7 05       		.byte	0x5
 4540 04a8 01       		.uleb128 0x1
 4541 04a9 9D160000 		.4byte	.LASF320
 4542 04ad 05       		.byte	0x5
 4543 04ae 01       		.uleb128 0x1
 4544 04af 7A2B0000 		.4byte	.LASF321
 4545 04b3 05       		.byte	0x5
 4546 04b4 01       		.uleb128 0x1
 4547 04b5 41390000 		.4byte	.LASF322
 4548 04b9 05       		.byte	0x5
 4549 04ba 01       		.uleb128 0x1
 4550 04bb 06440000 		.4byte	.LASF323
 4551 04bf 05       		.byte	0x5
 4552 04c0 01       		.uleb128 0x1
 4553 04c1 2A0E0000 		.4byte	.LASF324
 4554 04c5 05       		.byte	0x5
 4555 04c6 01       		.uleb128 0x1
 4556 04c7 FE370000 		.4byte	.LASF325
 4557 04cb 05       		.byte	0x5
 4558 04cc 01       		.uleb128 0x1
 4559 04cd E1300000 		.4byte	.LASF326
 4560 04d1 05       		.byte	0x5
 4561 04d2 01       		.uleb128 0x1
 4562 04d3 83370000 		.4byte	.LASF327
 4563 04d7 05       		.byte	0x5
 4564 04d8 01       		.uleb128 0x1
 4565 04d9 3E440000 		.4byte	.LASF328
 4566 04dd 05       		.byte	0x5
ARM GAS  C:\Users\Grzybek\AppData\Local\Temp\ccXBk3wH.s 			page 107


 4567 04de 01       		.uleb128 0x1
 4568 04df 9E280000 		.4byte	.LASF329
 4569 04e3 05       		.byte	0x5
 4570 04e4 01       		.uleb128 0x1
 4571 04e5 2E3D0000 		.4byte	.LASF330
 4572 04e9 05       		.byte	0x5
 4573 04ea 01       		.uleb128 0x1
 4574 04eb A83F0000 		.4byte	.LASF331
 4575 04ef 05       		.byte	0x5
 4576 04f0 01       		.uleb128 0x1
 4577 04f1 EF090000 		.4byte	.LASF332
 4578 04f5 05       		.byte	0x5
 4579 04f6 01       		.uleb128 0x1
 4580 04f7 E5640000 		.4byte	.LASF333
 4581 04fb 05       		.byte	0x5
 4582 04fc 01       		.uleb128 0x1
 4583 04fd 00580000 		.4byte	.LASF334
 4584 0501 05       		.byte	0x5
 4585 0502 01       		.uleb128 0x1
 4586 0503 04490000 		.4byte	.LASF335
 4587 0507 05       		.byte	0x5
 4588 0508 01       		.uleb128 0x1
 4589 0509 80520000 		.4byte	.LASF336
 4590 050d 05       		.byte	0x5
 4591 050e 01       		.uleb128 0x1
 4592 050f 45610000 		.4byte	.LASF337
 4593 0513 05       		.byte	0x5
 4594 0514 01       		.uleb128 0x1
 4595 0515 925B0000 		.4byte	.LASF338
 4596 0519 05       		.byte	0x5
 4597 051a 01       		.uleb128 0x1
 4598 051b F40C0000 		.4byte	.LASF339
 4599 051f 05       		.byte	0x5
 4600 0520 01       		.uleb128 0x1
 4601 0521 46510000 		.4byte	.LASF340
 4602 0525 05       		.byte	0x5
 4603 0526 01       		.uleb128 0x1
 4604 0527 65620000 		.4byte	.LASF341
 4605 052b 05       		.byte	0x5
 4606 052c 01       		.uleb128 0x1
 4607 052d 2F070000 		.4byte	.LASF342
 4608 0531 05       		.byte	0x5
 4609 0532 01       		.uleb128 0x1
 4610 0533 962F0000 		.4byte	.LASF343
 4611 0537 05       		.byte	0x5
 4612 0538 01       		.uleb128 0x1
 4613 0539 E65A0000 		.4byte	.LASF344
 4614 053d 05       		.byte	0x5
 4615 053e 01       		.uleb128 0x1
 4616 053f 39110000 		.4byte	.LASF345
 4617 0543 05       		.byte	0x5
 4618 0544 01       		.uleb128 0x1
 4619 0545 16590000 		.4byte	.LASF346
 4620 0549 05       		.byte	0x5
 4621 054a 01       		.uleb128 0x1
 4622 054b 5E650000 		.4byte	.LASF347
 4623 054f 05       		.byte	0x5
ARM GAS  C:\Users\Grzybek\AppData\Local\Temp\ccXBk3wH.s 			page 108


 4624 0550 01       		.uleb128 0x1
 4625 0551 75160000 		.4byte	.LASF348
 4626 0555 05       		.byte	0x5
 4627 0556 01       		.uleb128 0x1
 4628 0557 E2480000 		.4byte	.LASF349
 4629 055b 05       		.byte	0x5
 4630 055c 01       		.uleb128 0x1
 4631 055d A8510000 		.4byte	.LASF350
 4632 0561 05       		.byte	0x5
 4633 0562 01       		.uleb128 0x1
 4634 0563 1D5F0000 		.4byte	.LASF351
 4635 0567 05       		.byte	0x5
 4636 0568 01       		.uleb128 0x1
 4637 0569 FA1E0000 		.4byte	.LASF352
 4638 056d 05       		.byte	0x5
 4639 056e 01       		.uleb128 0x1
 4640 056f 663A0000 		.4byte	.LASF353
 4641 0573 05       		.byte	0x5
 4642 0574 01       		.uleb128 0x1
 4643 0575 AB420000 		.4byte	.LASF354
 4644 0579 05       		.byte	0x5
 4645 057a 01       		.uleb128 0x1
 4646 057b 76030000 		.4byte	.LASF355
 4647 057f 05       		.byte	0x5
 4648 0580 01       		.uleb128 0x1
 4649 0581 11100000 		.4byte	.LASF356
 4650 0585 05       		.byte	0x5
 4651 0586 01       		.uleb128 0x1
 4652 0587 DD0E0000 		.4byte	.LASF357
 4653 058b 05       		.byte	0x5
 4654 058c 01       		.uleb128 0x1
 4655 058d 0F540000 		.4byte	.LASF358
 4656 0591 05       		.byte	0x5
 4657 0592 01       		.uleb128 0x1
 4658 0593 EA450000 		.4byte	.LASF359
 4659 0597 05       		.byte	0x5
 4660 0598 01       		.uleb128 0x1
 4661 0599 02290000 		.4byte	.LASF360
 4662 059d 05       		.byte	0x5
 4663 059e 01       		.uleb128 0x1
 4664 059f 10600000 		.4byte	.LASF361
 4665 05a3 05       		.byte	0x5
 4666 05a4 01       		.uleb128 0x1
 4667 05a5 CE300000 		.4byte	.LASF362
 4668 05a9 05       		.byte	0x5
 4669 05aa 01       		.uleb128 0x1
 4670 05ab 724D0000 		.4byte	.LASF363
 4671 05af 05       		.byte	0x5
 4672 05b0 01       		.uleb128 0x1
 4673 05b1 1A210000 		.4byte	.LASF364
 4674 05b5 05       		.byte	0x5
 4675 05b6 01       		.uleb128 0x1
 4676 05b7 E73C0000 		.4byte	.LASF365
 4677 05bb 05       		.byte	0x5
 4678 05bc 01       		.uleb128 0x1
 4679 05bd D53A0000 		.4byte	.LASF366
 4680 05c1 05       		.byte	0x5
ARM GAS  C:\Users\Grzybek\AppData\Local\Temp\ccXBk3wH.s 			page 109


 4681 05c2 01       		.uleb128 0x1
 4682 05c3 9A2E0000 		.4byte	.LASF367
 4683 05c7 05       		.byte	0x5
 4684 05c8 01       		.uleb128 0x1
 4685 05c9 F90B0000 		.4byte	.LASF368
 4686 05cd 05       		.byte	0x5
 4687 05ce 01       		.uleb128 0x1
 4688 05cf 7B590000 		.4byte	.LASF369
 4689 05d3 05       		.byte	0x5
 4690 05d4 01       		.uleb128 0x1
 4691 05d5 4F490000 		.4byte	.LASF370
 4692 05d9 05       		.byte	0x5
 4693 05da 01       		.uleb128 0x1
 4694 05db 30010000 		.4byte	.LASF371
 4695 05df 05       		.byte	0x5
 4696 05e0 01       		.uleb128 0x1
 4697 05e1 F3560000 		.4byte	.LASF372
 4698 05e5 05       		.byte	0x5
 4699 05e6 01       		.uleb128 0x1
 4700 05e7 67470000 		.4byte	.LASF373
 4701 05eb 05       		.byte	0x5
 4702 05ec 01       		.uleb128 0x1
 4703 05ed 58310000 		.4byte	.LASF374
 4704 05f1 05       		.byte	0x5
 4705 05f2 01       		.uleb128 0x1
 4706 05f3 404B0000 		.4byte	.LASF375
 4707 05f7 05       		.byte	0x5
 4708 05f8 01       		.uleb128 0x1
 4709 05f9 2B600000 		.4byte	.LASF376
 4710 05fd 05       		.byte	0x5
 4711 05fe 01       		.uleb128 0x1
 4712 05ff 3C4E0000 		.4byte	.LASF377
 4713 0603 05       		.byte	0x5
 4714 0604 01       		.uleb128 0x1
 4715 0605 662B0000 		.4byte	.LASF378
 4716 0609 05       		.byte	0x5
 4717 060a 01       		.uleb128 0x1
 4718 060b 09010000 		.4byte	.LASF379
 4719 060f 05       		.byte	0x5
 4720 0610 01       		.uleb128 0x1
 4721 0611 67250000 		.4byte	.LASF380
 4722 0615 05       		.byte	0x5
 4723 0616 01       		.uleb128 0x1
 4724 0617 1A140000 		.4byte	.LASF381
 4725 061b 05       		.byte	0x5
 4726 061c 01       		.uleb128 0x1
 4727 061d 36180000 		.4byte	.LASF382
 4728 0621 05       		.byte	0x5
 4729 0622 01       		.uleb128 0x1
 4730 0623 7C580000 		.4byte	.LASF383
 4731 0627 05       		.byte	0x5
 4732 0628 01       		.uleb128 0x1
 4733 0629 D5590000 		.4byte	.LASF384
 4734 062d 05       		.byte	0x5
 4735 062e 01       		.uleb128 0x1
 4736 062f 4A030000 		.4byte	.LASF385
 4737 0633 05       		.byte	0x5
ARM GAS  C:\Users\Grzybek\AppData\Local\Temp\ccXBk3wH.s 			page 110


 4738 0634 01       		.uleb128 0x1
 4739 0635 5A1D0000 		.4byte	.LASF386
 4740 0639 05       		.byte	0x5
 4741 063a 01       		.uleb128 0x1
 4742 063b F2570000 		.4byte	.LASF387
 4743 063f 05       		.byte	0x5
 4744 0640 01       		.uleb128 0x1
 4745 0641 DB4D0000 		.4byte	.LASF388
 4746 0645 05       		.byte	0x5
 4747 0646 01       		.uleb128 0x1
 4748 0647 D5610000 		.4byte	.LASF389
 4749 064b 05       		.byte	0x5
 4750 064c 01       		.uleb128 0x1
 4751 064d 98630000 		.4byte	.LASF390
 4752 0651 05       		.byte	0x5
 4753 0652 01       		.uleb128 0x1
 4754 0653 EA0A0000 		.4byte	.LASF391
 4755 0657 05       		.byte	0x5
 4756 0658 01       		.uleb128 0x1
 4757 0659 C5030000 		.4byte	.LASF392
 4758 065d 05       		.byte	0x5
 4759 065e 01       		.uleb128 0x1
 4760 065f E5470000 		.4byte	.LASF393
 4761 0663 05       		.byte	0x5
 4762 0664 01       		.uleb128 0x1
 4763 0665 E34B0000 		.4byte	.LASF394
 4764 0669 05       		.byte	0x5
 4765 066a 01       		.uleb128 0x1
 4766 066b C8170000 		.4byte	.LASF395
 4767 066f 05       		.byte	0x5
 4768 0670 01       		.uleb128 0x1
 4769 0671 03020000 		.4byte	.LASF396
 4770 0675 05       		.byte	0x5
 4771 0676 01       		.uleb128 0x1
 4772 0677 BF3C0000 		.4byte	.LASF397
 4773 067b 05       		.byte	0x5
 4774 067c 01       		.uleb128 0x1
 4775 067d 2B310000 		.4byte	.LASF398
 4776 0681 05       		.byte	0x5
 4777 0682 01       		.uleb128 0x1
 4778 0683 880B0000 		.4byte	.LASF399
 4779 0687 05       		.byte	0x5
 4780 0688 01       		.uleb128 0x1
 4781 0689 5E480000 		.4byte	.LASF400
 4782 068d 05       		.byte	0x5
 4783 068e 01       		.uleb128 0x1
 4784 068f C00A0000 		.4byte	.LASF401
 4785 0693 05       		.byte	0x5
 4786 0694 01       		.uleb128 0x1
 4787 0695 B14E0000 		.4byte	.LASF402
 4788 0699 05       		.byte	0x5
 4789 069a 01       		.uleb128 0x1
 4790 069b 54390000 		.4byte	.LASF403
 4791 069f 05       		.byte	0x5
 4792 06a0 01       		.uleb128 0x1
 4793 06a1 BE0B0000 		.4byte	.LASF404
 4794 06a5 05       		.byte	0x5
ARM GAS  C:\Users\Grzybek\AppData\Local\Temp\ccXBk3wH.s 			page 111


 4795 06a6 01       		.uleb128 0x1
 4796 06a7 E2490000 		.4byte	.LASF405
 4797 06ab 05       		.byte	0x5
 4798 06ac 01       		.uleb128 0x1
 4799 06ad CD1F0000 		.4byte	.LASF406
 4800 06b1 05       		.byte	0x5
 4801 06b2 01       		.uleb128 0x1
 4802 06b3 200A0000 		.4byte	.LASF407
 4803 06b7 05       		.byte	0x5
 4804 06b8 01       		.uleb128 0x1
 4805 06b9 5C0C0000 		.4byte	.LASF408
 4806 06bd 05       		.byte	0x5
 4807 06be 01       		.uleb128 0x1
 4808 06bf 404D0000 		.4byte	.LASF409
 4809 06c3 05       		.byte	0x5
 4810 06c4 01       		.uleb128 0x1
 4811 06c5 522A0000 		.4byte	.LASF410
 4812 06c9 05       		.byte	0x5
 4813 06ca 01       		.uleb128 0x1
 4814 06cb B61C0000 		.4byte	.LASF411
 4815 06cf 05       		.byte	0x5
 4816 06d0 01       		.uleb128 0x1
 4817 06d1 05630000 		.4byte	.LASF412
 4818 06d5 05       		.byte	0x5
 4819 06d6 01       		.uleb128 0x1
 4820 06d7 14110000 		.4byte	.LASF413
 4821 06db 05       		.byte	0x5
 4822 06dc 01       		.uleb128 0x1
 4823 06dd 02430000 		.4byte	.LASF414
 4824 06e1 05       		.byte	0x5
 4825 06e2 01       		.uleb128 0x1
 4826 06e3 0E000000 		.4byte	.LASF415
 4827 06e7 05       		.byte	0x5
 4828 06e8 01       		.uleb128 0x1
 4829 06e9 74150000 		.4byte	.LASF416
 4830 06ed 05       		.byte	0x5
 4831 06ee 01       		.uleb128 0x1
 4832 06ef 973E0000 		.4byte	.LASF417
 4833 06f3 05       		.byte	0x5
 4834 06f4 01       		.uleb128 0x1
 4835 06f5 3B190000 		.4byte	.LASF418
 4836 06f9 05       		.byte	0x5
 4837 06fa 01       		.uleb128 0x1
 4838 06fb D90F0000 		.4byte	.LASF419
 4839 06ff 05       		.byte	0x5
 4840 0700 01       		.uleb128 0x1
 4841 0701 FB540000 		.4byte	.LASF420
 4842 0705 05       		.byte	0x5
 4843 0706 01       		.uleb128 0x1
 4844 0707 2E130000 		.4byte	.LASF421
 4845 070b 05       		.byte	0x5
 4846 070c 01       		.uleb128 0x1
 4847 070d 6C580000 		.4byte	.LASF422
 4848 0711 05       		.byte	0x5
 4849 0712 01       		.uleb128 0x1
 4850 0713 17520000 		.4byte	.LASF423
 4851 0717 05       		.byte	0x5
ARM GAS  C:\Users\Grzybek\AppData\Local\Temp\ccXBk3wH.s 			page 112


 4852 0718 01       		.uleb128 0x1
 4853 0719 0C390000 		.4byte	.LASF424
 4854 071d 05       		.byte	0x5
 4855 071e 01       		.uleb128 0x1
 4856 071f F1130000 		.4byte	.LASF425
 4857 0723 05       		.byte	0x5
 4858 0724 01       		.uleb128 0x1
 4859 0725 25550000 		.4byte	.LASF426
 4860 0729 05       		.byte	0x5
 4861 072a 01       		.uleb128 0x1
 4862 072b 67000000 		.4byte	.LASF427
 4863 072f 05       		.byte	0x5
 4864 0730 01       		.uleb128 0x1
 4865 0731 C5060000 		.4byte	.LASF428
 4866 0735 05       		.byte	0x5
 4867 0736 01       		.uleb128 0x1
 4868 0737 4B190000 		.4byte	.LASF429
 4869 073b 05       		.byte	0x5
 4870 073c 01       		.uleb128 0x1
 4871 073d 97450000 		.4byte	.LASF430
 4872 0741 05       		.byte	0x5
 4873 0742 01       		.uleb128 0x1
 4874 0743 30320000 		.4byte	.LASF431
 4875 0747 05       		.byte	0x5
 4876 0748 01       		.uleb128 0x1
 4877 0749 163F0000 		.4byte	.LASF432
 4878 074d 05       		.byte	0x5
 4879 074e 01       		.uleb128 0x1
 4880 074f D92D0000 		.4byte	.LASF433
 4881 0753 05       		.byte	0x5
 4882 0754 01       		.uleb128 0x1
 4883 0755 020B0000 		.4byte	.LASF434
 4884 0759 05       		.byte	0x5
 4885 075a 01       		.uleb128 0x1
 4886 075b 46000000 		.4byte	.LASF435
 4887 075f 05       		.byte	0x5
 4888 0760 01       		.uleb128 0x1
 4889 0761 B11D0000 		.4byte	.LASF436
 4890 0765 05       		.byte	0x5
 4891 0766 01       		.uleb128 0x1
 4892 0767 744F0000 		.4byte	.LASF437
 4893 076b 05       		.byte	0x5
 4894 076c 01       		.uleb128 0x1
 4895 076d 3A310000 		.4byte	.LASF438
 4896 0771 05       		.byte	0x5
 4897 0772 01       		.uleb128 0x1
 4898 0773 3E1A0000 		.4byte	.LASF439
 4899 0777 05       		.byte	0x5
 4900 0778 01       		.uleb128 0x1
 4901 0779 0D1F0000 		.4byte	.LASF440
 4902 077d 05       		.byte	0x5
 4903 077e 01       		.uleb128 0x1
 4904 077f 52260000 		.4byte	.LASF441
 4905 0783 05       		.byte	0x5
 4906 0784 01       		.uleb128 0x1
 4907 0785 F2290000 		.4byte	.LASF442
 4908 0789 05       		.byte	0x5
ARM GAS  C:\Users\Grzybek\AppData\Local\Temp\ccXBk3wH.s 			page 113


 4909 078a 01       		.uleb128 0x1
 4910 078b C6180000 		.4byte	.LASF443
 4911 078f 05       		.byte	0x5
 4912 0790 01       		.uleb128 0x1
 4913 0791 A5370000 		.4byte	.LASF444
 4914 0795 05       		.byte	0x5
 4915 0796 01       		.uleb128 0x1
 4916 0797 37590000 		.4byte	.LASF445
 4917 079b 05       		.byte	0x5
 4918 079c 01       		.uleb128 0x1
 4919 079d 4E3D0000 		.4byte	.LASF446
 4920 07a1 05       		.byte	0x5
 4921 07a2 01       		.uleb128 0x1
 4922 07a3 4B590000 		.4byte	.LASF447
 4923 07a7 05       		.byte	0x5
 4924 07a8 01       		.uleb128 0x1
 4925 07a9 04410000 		.4byte	.LASF448
 4926 07ad 05       		.byte	0x5
 4927 07ae 01       		.uleb128 0x1
 4928 07af D7470000 		.4byte	.LASF449
 4929 07b3 05       		.byte	0x5
 4930 07b4 01       		.uleb128 0x1
 4931 07b5 66610000 		.4byte	.LASF450
 4932 07b9 05       		.byte	0x5
 4933 07ba 01       		.uleb128 0x1
 4934 07bb 7E5A0000 		.4byte	.LASF451
 4935 07bf 05       		.byte	0x5
 4936 07c0 01       		.uleb128 0x1
 4937 07c1 703D0000 		.4byte	.LASF452
 4938 07c5 05       		.byte	0x5
 4939 07c6 01       		.uleb128 0x1
 4940 07c7 8F4D0000 		.4byte	.LASF453
 4941 07cb 05       		.byte	0x5
 4942 07cc 01       		.uleb128 0x1
 4943 07cd E52A0000 		.4byte	.LASF454
 4944 07d1 05       		.byte	0x5
 4945 07d2 01       		.uleb128 0x1
 4946 07d3 BB1E0000 		.4byte	.LASF455
 4947 07d7 05       		.byte	0x5
 4948 07d8 01       		.uleb128 0x1
 4949 07d9 23110000 		.4byte	.LASF456
 4950 07dd 05       		.byte	0x5
 4951 07de 01       		.uleb128 0x1
 4952 07df 7E3B0000 		.4byte	.LASF457
 4953 07e3 05       		.byte	0x5
 4954 07e4 01       		.uleb128 0x1
 4955 07e5 AD200000 		.4byte	.LASF458
 4956 07e9 05       		.byte	0x5
 4957 07ea 01       		.uleb128 0x1
 4958 07eb 2C650000 		.4byte	.LASF459
 4959 07ef 05       		.byte	0x5
 4960 07f0 01       		.uleb128 0x1
 4961 07f1 71560000 		.4byte	.LASF460
 4962 07f5 05       		.byte	0x5
 4963 07f6 01       		.uleb128 0x1
 4964 07f7 D52B0000 		.4byte	.LASF461
 4965 07fb 05       		.byte	0x5
ARM GAS  C:\Users\Grzybek\AppData\Local\Temp\ccXBk3wH.s 			page 114


 4966 07fc 01       		.uleb128 0x1
 4967 07fd 854D0000 		.4byte	.LASF462
 4968 0801 05       		.byte	0x5
 4969 0802 00       		.uleb128 0
 4970 0803 EC170000 		.4byte	.LASF463
 4971 0807 05       		.byte	0x5
 4972 0808 00       		.uleb128 0
 4973 0809 59130000 		.4byte	.LASF464
 4974 080d 05       		.byte	0x5
 4975 080e 00       		.uleb128 0
 4976 080f C2570000 		.4byte	.LASF465
 4977 0813 05       		.byte	0x5
 4978 0814 00       		.uleb128 0
 4979 0815 661E0000 		.4byte	.LASF466
 4980 0819 05       		.byte	0x5
 4981 081a 00       		.uleb128 0
 4982 081b 89530000 		.4byte	.LASF467
 4983 081f 05       		.byte	0x5
 4984 0820 00       		.uleb128 0
 4985 0821 B73D0000 		.4byte	.LASF468
 4986 0825 05       		.byte	0x5
 4987 0826 00       		.uleb128 0
 4988 0827 430B0000 		.4byte	.LASF469
 4989 082b 05       		.byte	0x5
 4990 082c 00       		.uleb128 0
 4991 082d 191B0000 		.4byte	.LASF470
 4992 0831 05       		.byte	0x5
 4993 0832 00       		.uleb128 0
 4994 0833 D5130000 		.4byte	.LASF471
 4995 0837 05       		.byte	0x5
 4996 0838 00       		.uleb128 0
 4997 0839 5F420000 		.4byte	.LASF472
 4998 083d 05       		.byte	0x5
 4999 083e 00       		.uleb128 0
 5000 083f A2530000 		.4byte	.LASF473
 5001 0843 00       		.byte	0
 5002              		.section	.debug_macro,"G",%progbits,wm4.newlib.h.8.e1d498e57c12962fc6d7be5061a6981a,comdat
 5003              	.Ldebug_macro2:
 5004 0000 0400     		.2byte	0x4
 5005 0002 00       		.byte	0
 5006 0003 05       		.byte	0x5
 5007 0004 08       		.uleb128 0x8
 5008 0005 6A0C0000 		.4byte	.LASF474
 5009 0009 05       		.byte	0x5
 5010 000a 0E       		.uleb128 0xe
 5011 000b 5C440000 		.4byte	.LASF475
 5012 000f 05       		.byte	0x5
 5013 0010 15       		.uleb128 0x15
 5014 0011 B9630000 		.4byte	.LASF476
 5015 0015 05       		.byte	0x5
 5016 0016 18       		.uleb128 0x18
 5017 0017 50570000 		.4byte	.LASF477
 5018 001b 05       		.byte	0x5
 5019 001c 28       		.uleb128 0x28
 5020 001d A81C0000 		.4byte	.LASF478
 5021 0021 05       		.byte	0x5
 5022 0022 32       		.uleb128 0x32
ARM GAS  C:\Users\Grzybek\AppData\Local\Temp\ccXBk3wH.s 			page 115


 5023 0023 73530000 		.4byte	.LASF479
 5024 0027 05       		.byte	0x5
 5025 0028 36       		.uleb128 0x36
 5026 0029 6F310000 		.4byte	.LASF480
 5027 002d 05       		.byte	0x5
 5028 002e 39       		.uleb128 0x39
 5029 002f D8170000 		.4byte	.LASF481
 5030 0033 05       		.byte	0x5
 5031 0034 3C       		.uleb128 0x3c
 5032 0035 CA0F0000 		.4byte	.LASF482
 5033 0039 00       		.byte	0
 5034              		.section	.debug_macro,"G",%progbits,wm4.config.h.148.52fe83653334d06815a0c57b59a3e584,comdat
 5035              	.Ldebug_macro3:
 5036 0000 0400     		.2byte	0x4
 5037 0002 00       		.byte	0
 5038 0003 05       		.byte	0x5
 5039 0004 9401     		.uleb128 0x94
 5040 0006 A55B0000 		.4byte	.LASF483
 5041 000a 05       		.byte	0x5
 5042 000b B801     		.uleb128 0xb8
 5043 000d 6F0A0000 		.4byte	.LASF484
 5044 0011 06       		.byte	0x6
 5045 0012 BE01     		.uleb128 0xbe
 5046 0014 2B0D0000 		.4byte	.LASF485
 5047 0018 05       		.byte	0x5
 5048 0019 C201     		.uleb128 0xc2
 5049 001b 150D0000 		.4byte	.LASF486
 5050 001f 05       		.byte	0x5
 5051 0020 D601     		.uleb128 0xd6
 5052 0022 8C2F0000 		.4byte	.LASF487
 5053 0026 05       		.byte	0x5
 5054 0027 DA01     		.uleb128 0xda
 5055 0029 7D3E0000 		.4byte	.LASF488
 5056 002d 05       		.byte	0x5
 5057 002e E101     		.uleb128 0xe1
 5058 0030 58170000 		.4byte	.LASF489
 5059 0034 00       		.byte	0
 5060              		.section	.debug_macro,"G",%progbits,wm4._ansi.h.23.8aa39ec63c47b0c474529e4131d42f04,comdat
 5061              	.Ldebug_macro4:
 5062 0000 0400     		.2byte	0x4
 5063 0002 00       		.byte	0
 5064 0003 05       		.byte	0x5
 5065 0004 17       		.uleb128 0x17
 5066 0005 96530000 		.4byte	.LASF490
 5067 0009 05       		.byte	0x5
 5068 000a 2E       		.uleb128 0x2e
 5069 000b C53F0000 		.4byte	.LASF491
 5070 000f 05       		.byte	0x5
 5071 0010 2F       		.uleb128 0x2f
 5072 0011 A51D0000 		.4byte	.LASF492
 5073 0015 05       		.byte	0x5
 5074 0016 30       		.uleb128 0x30
 5075 0017 DC380000 		.4byte	.LASF493
 5076 001b 05       		.byte	0x5
 5077 001c 34       		.uleb128 0x34
 5078 001d 39610000 		.4byte	.LASF494
 5079 0021 05       		.byte	0x5
ARM GAS  C:\Users\Grzybek\AppData\Local\Temp\ccXBk3wH.s 			page 116


 5080 0022 35       		.uleb128 0x35
 5081 0023 0B460000 		.4byte	.LASF495
 5082 0027 05       		.byte	0x5
 5083 0028 36       		.uleb128 0x36
 5084 0029 824E0000 		.4byte	.LASF496
 5085 002d 05       		.byte	0x5
 5086 002e 37       		.uleb128 0x37
 5087 002f 580E0000 		.4byte	.LASF497
 5088 0033 05       		.byte	0x5
 5089 0034 38       		.uleb128 0x38
 5090 0035 10180000 		.4byte	.LASF498
 5091 0039 05       		.byte	0x5
 5092 003a 39       		.uleb128 0x39
 5093 003b D11C0000 		.4byte	.LASF499
 5094 003f 05       		.byte	0x5
 5095 0040 3A       		.uleb128 0x3a
 5096 0041 CE310000 		.4byte	.LASF500
 5097 0045 05       		.byte	0x5
 5098 0046 3B       		.uleb128 0x3b
 5099 0047 70590000 		.4byte	.LASF501
 5100 004b 05       		.byte	0x5
 5101 004c 42       		.uleb128 0x42
 5102 004d 0F3C0000 		.4byte	.LASF502
 5103 0051 05       		.byte	0x5
 5104 0052 43       		.uleb128 0x43
 5105 0053 76040000 		.4byte	.LASF503
 5106 0057 05       		.byte	0x5
 5107 0058 44       		.uleb128 0x44
 5108 0059 343F0000 		.4byte	.LASF504
 5109 005d 05       		.byte	0x5
 5110 005e 45       		.uleb128 0x45
 5111 005f 4B180000 		.4byte	.LASF505
 5112 0063 05       		.byte	0x5
 5113 0064 47       		.uleb128 0x47
 5114 0065 0B150000 		.4byte	.LASF506
 5115 0069 05       		.byte	0x5
 5116 006a 48       		.uleb128 0x48
 5117 006b 324C0000 		.4byte	.LASF507
 5118 006f 05       		.byte	0x5
 5119 0070 49       		.uleb128 0x49
 5120 0071 604D0000 		.4byte	.LASF508
 5121 0075 05       		.byte	0x5
 5122 0076 4B       		.uleb128 0x4b
 5123 0077 87010000 		.4byte	.LASF509
 5124 007b 05       		.byte	0x5
 5125 007c 4E       		.uleb128 0x4e
 5126 007d 39140000 		.4byte	.LASF510
 5127 0081 05       		.byte	0x5
 5128 0082 51       		.uleb128 0x51
 5129 0083 A1060000 		.4byte	.LASF511
 5130 0087 05       		.byte	0x5
 5131 0088 6B       		.uleb128 0x6b
 5132 0089 48550000 		.4byte	.LASF512
 5133 008d 05       		.byte	0x5
 5134 008e 8201     		.uleb128 0x82
 5135 0090 232E0000 		.4byte	.LASF513
 5136 0094 00       		.byte	0
ARM GAS  C:\Users\Grzybek\AppData\Local\Temp\ccXBk3wH.s 			page 117


 5137              		.section	.debug_macro,"G",%progbits,wm4.stdlib.h.18.6f6153fd5cb89acd58c0f0ab1f77e147,comdat
 5138              	.Ldebug_macro5:
 5139 0000 0400     		.2byte	0x4
 5140 0002 00       		.byte	0
 5141 0003 05       		.byte	0x5
 5142 0004 12       		.uleb128 0x12
 5143 0005 1C1A0000 		.4byte	.LASF514
 5144 0009 05       		.byte	0x5
 5145 000a 13       		.uleb128 0x13
 5146 000b FF3B0000 		.4byte	.LASF515
 5147 000f 00       		.byte	0
 5148              		.section	.debug_macro,"G",%progbits,wm4.stddef.h.187.40b3a084f9bc2c020a9e00b9eabe9c14,comdat
 5149              	.Ldebug_macro6:
 5150 0000 0400     		.2byte	0x4
 5151 0002 00       		.byte	0
 5152 0003 05       		.byte	0x5
 5153 0004 BB01     		.uleb128 0xbb
 5154 0006 E90F0000 		.4byte	.LASF516
 5155 000a 05       		.byte	0x5
 5156 000b BC01     		.uleb128 0xbc
 5157 000d 13080000 		.4byte	.LASF517
 5158 0011 05       		.byte	0x5
 5159 0012 BD01     		.uleb128 0xbd
 5160 0014 53430000 		.4byte	.LASF518
 5161 0018 05       		.byte	0x5
 5162 0019 BE01     		.uleb128 0xbe
 5163 001b 7E0E0000 		.4byte	.LASF519
 5164 001f 05       		.byte	0x5
 5165 0020 BF01     		.uleb128 0xbf
 5166 0022 2E2B0000 		.4byte	.LASF520
 5167 0026 05       		.byte	0x5
 5168 0027 C001     		.uleb128 0xc0
 5169 0029 9D0A0000 		.4byte	.LASF521
 5170 002d 05       		.byte	0x5
 5171 002e C101     		.uleb128 0xc1
 5172 0030 8D440000 		.4byte	.LASF522
 5173 0034 05       		.byte	0x5
 5174 0035 C201     		.uleb128 0xc2
 5175 0037 C4310000 		.4byte	.LASF523
 5176 003b 05       		.byte	0x5
 5177 003c C301     		.uleb128 0xc3
 5178 003e 6B4C0000 		.4byte	.LASF524
 5179 0042 05       		.byte	0x5
 5180 0043 C401     		.uleb128 0xc4
 5181 0045 1A3A0000 		.4byte	.LASF525
 5182 0049 05       		.byte	0x5
 5183 004a C501     		.uleb128 0xc5
 5184 004c 0C0C0000 		.4byte	.LASF526
 5185 0050 05       		.byte	0x5
 5186 0051 C601     		.uleb128 0xc6
 5187 0053 F2150000 		.4byte	.LASF527
 5188 0057 05       		.byte	0x5
 5189 0058 C701     		.uleb128 0xc7
 5190 005a 8A110000 		.4byte	.LASF528
 5191 005e 05       		.byte	0x5
 5192 005f C801     		.uleb128 0xc8
 5193 0061 3F160000 		.4byte	.LASF529
ARM GAS  C:\Users\Grzybek\AppData\Local\Temp\ccXBk3wH.s 			page 118


 5194 0065 05       		.byte	0x5
 5195 0066 C901     		.uleb128 0xc9
 5196 0068 CE5A0000 		.4byte	.LASF530
 5197 006c 05       		.byte	0x5
 5198 006d CA01     		.uleb128 0xca
 5199 006f 19500000 		.4byte	.LASF531
 5200 0073 05       		.byte	0x5
 5201 0074 CF01     		.uleb128 0xcf
 5202 0076 160A0000 		.4byte	.LASF532
 5203 007a 06       		.byte	0x6
 5204 007b EB01     		.uleb128 0xeb
 5205 007d 87310000 		.4byte	.LASF533
 5206 0081 05       		.byte	0x5
 5207 0082 8802     		.uleb128 0x108
 5208 0084 59610000 		.4byte	.LASF534
 5209 0088 05       		.byte	0x5
 5210 0089 8902     		.uleb128 0x109
 5211 008b A5570000 		.4byte	.LASF535
 5212 008f 05       		.byte	0x5
 5213 0090 8A02     		.uleb128 0x10a
 5214 0092 1C420000 		.4byte	.LASF536
 5215 0096 05       		.byte	0x5
 5216 0097 8B02     		.uleb128 0x10b
 5217 0099 FF5A0000 		.4byte	.LASF537
 5218 009d 05       		.byte	0x5
 5219 009e 8C02     		.uleb128 0x10c
 5220 00a0 AE4C0000 		.4byte	.LASF538
 5221 00a4 05       		.byte	0x5
 5222 00a5 8D02     		.uleb128 0x10d
 5223 00a7 C5360000 		.4byte	.LASF539
 5224 00ab 05       		.byte	0x5
 5225 00ac 8E02     		.uleb128 0x10e
 5226 00ae 794C0000 		.4byte	.LASF540
 5227 00b2 05       		.byte	0x5
 5228 00b3 8F02     		.uleb128 0x10f
 5229 00b5 CC4D0000 		.4byte	.LASF541
 5230 00b9 05       		.byte	0x5
 5231 00ba 9002     		.uleb128 0x110
 5232 00bc A6630000 		.4byte	.LASF542
 5233 00c0 05       		.byte	0x5
 5234 00c1 9102     		.uleb128 0x111
 5235 00c3 2E4B0000 		.4byte	.LASF543
 5236 00c7 05       		.byte	0x5
 5237 00c8 9202     		.uleb128 0x112
 5238 00ca 5C430000 		.4byte	.LASF544
 5239 00ce 05       		.byte	0x5
 5240 00cf 9302     		.uleb128 0x113
 5241 00d1 EE590000 		.4byte	.LASF545
 5242 00d5 05       		.byte	0x5
 5243 00d6 9402     		.uleb128 0x114
 5244 00d8 4F4D0000 		.4byte	.LASF546
 5245 00dc 05       		.byte	0x5
 5246 00dd 9502     		.uleb128 0x115
 5247 00df A93D0000 		.4byte	.LASF547
 5248 00e3 05       		.byte	0x5
 5249 00e4 9602     		.uleb128 0x116
 5250 00e6 073B0000 		.4byte	.LASF548
ARM GAS  C:\Users\Grzybek\AppData\Local\Temp\ccXBk3wH.s 			page 119


 5251 00ea 06       		.byte	0x6
 5252 00eb A302     		.uleb128 0x123
 5253 00ed 845B0000 		.4byte	.LASF549
 5254 00f1 06       		.byte	0x6
 5255 00f2 D802     		.uleb128 0x158
 5256 00f4 46090000 		.4byte	.LASF550
 5257 00f8 06       		.byte	0x6
 5258 00f9 9903     		.uleb128 0x199
 5259 00fb 91250000 		.4byte	.LASF551
 5260 00ff 00       		.byte	0
 5261              		.section	.debug_macro,"G",%progbits,wm4._default_types.h.6.1dbd2e581fd590860c7c17f21d147e91,comdat
 5262              	.Ldebug_macro7:
 5263 0000 0400     		.2byte	0x4
 5264 0002 00       		.byte	0
 5265 0003 05       		.byte	0x5
 5266 0004 06       		.uleb128 0x6
 5267 0005 78420000 		.4byte	.LASF552
 5268 0009 05       		.byte	0x5
 5269 000a 12       		.uleb128 0x12
 5270 000b A0380000 		.4byte	.LASF553
 5271 000f 05       		.byte	0x5
 5272 0010 1C       		.uleb128 0x1c
 5273 0011 0E2A0000 		.4byte	.LASF554
 5274 0015 05       		.byte	0x5
 5275 0016 26       		.uleb128 0x26
 5276 0017 C81B0000 		.4byte	.LASF555
 5277 001b 05       		.byte	0x5
 5278 001c 30       		.uleb128 0x30
 5279 001d 850F0000 		.4byte	.LASF556
 5280 0021 05       		.byte	0x5
 5281 0022 3C       		.uleb128 0x3c
 5282 0023 08160000 		.4byte	.LASF557
 5283 0027 05       		.byte	0x5
 5284 0028 4E       		.uleb128 0x4e
 5285 0029 FE4F0000 		.4byte	.LASF558
 5286 002d 05       		.byte	0x5
 5287 002e 65       		.uleb128 0x65
 5288 002f 48450000 		.4byte	.LASF559
 5289 0033 06       		.byte	0x6
 5290 0034 73       		.uleb128 0x73
 5291 0035 42450000 		.4byte	.LASF560
 5292 0039 00       		.byte	0
 5293              		.section	.debug_macro,"G",%progbits,wm4.lock.h.2.9bc98482741e5e2a9450b12934a684ea,comdat
 5294              	.Ldebug_macro8:
 5295 0000 0400     		.2byte	0x4
 5296 0002 00       		.byte	0
 5297 0003 05       		.byte	0x5
 5298 0004 02       		.uleb128 0x2
 5299 0005 1C650000 		.4byte	.LASF561
 5300 0009 05       		.byte	0x5
 5301 000a 0B       		.uleb128 0xb
 5302 000b 26430000 		.4byte	.LASF562
 5303 000f 05       		.byte	0x5
 5304 0010 0C       		.uleb128 0xc
 5305 0011 E02E0000 		.4byte	.LASF563
 5306 0015 05       		.byte	0x5
 5307 0016 0D       		.uleb128 0xd
ARM GAS  C:\Users\Grzybek\AppData\Local\Temp\ccXBk3wH.s 			page 120


 5308 0017 C73E0000 		.4byte	.LASF564
 5309 001b 05       		.byte	0x5
 5310 001c 0E       		.uleb128 0xe
 5311 001d AA610000 		.4byte	.LASF565
 5312 0021 05       		.byte	0x5
 5313 0022 0F       		.uleb128 0xf
 5314 0023 771E0000 		.4byte	.LASF566
 5315 0027 05       		.byte	0x5
 5316 0028 10       		.uleb128 0x10
 5317 0029 79090000 		.4byte	.LASF567
 5318 002d 05       		.byte	0x5
 5319 002e 11       		.uleb128 0x11
 5320 002f DC2F0000 		.4byte	.LASF568
 5321 0033 05       		.byte	0x5
 5322 0034 12       		.uleb128 0x12
 5323 0035 8B220000 		.4byte	.LASF569
 5324 0039 05       		.byte	0x5
 5325 003a 13       		.uleb128 0x13
 5326 003b 5D1A0000 		.4byte	.LASF570
 5327 003f 05       		.byte	0x5
 5328 0040 14       		.uleb128 0x14
 5329 0041 EB440000 		.4byte	.LASF571
 5330 0045 05       		.byte	0x5
 5331 0046 15       		.uleb128 0x15
 5332 0047 3E360000 		.4byte	.LASF572
 5333 004b 05       		.byte	0x5
 5334 004c 16       		.uleb128 0x16
 5335 004d 0A5B0000 		.4byte	.LASF573
 5336 0051 00       		.byte	0
 5337              		.section	.debug_macro,"G",%progbits,wm4.stddef.h.349.31f4c5baff3fa2689010b32028da9c47,comdat
 5338              	.Ldebug_macro9:
 5339 0000 0400     		.2byte	0x4
 5340 0002 00       		.byte	0
 5341 0003 05       		.byte	0x5
 5342 0004 DD02     		.uleb128 0x15d
 5343 0006 EF190000 		.4byte	.LASF574
 5344 000a 06       		.byte	0x6
 5345 000b E402     		.uleb128 0x164
 5346 000d BA2F0000 		.4byte	.LASF575
 5347 0011 06       		.byte	0x6
 5348 0012 9903     		.uleb128 0x199
 5349 0014 91250000 		.4byte	.LASF551
 5350 0018 00       		.byte	0
 5351              		.section	.debug_macro,"G",%progbits,wm4.reent.h.16.58b23a9f0faf0e7f2dfe7e2d33154afd,comdat
 5352              	.Ldebug_macro10:
 5353 0000 0400     		.2byte	0x4
 5354 0002 00       		.byte	0
 5355 0003 05       		.byte	0x5
 5356 0004 10       		.uleb128 0x10
 5357 0005 761F0000 		.4byte	.LASF576
 5358 0009 05       		.byte	0x5
 5359 000a 14       		.uleb128 0x14
 5360 000b F24F0000 		.4byte	.LASF577
 5361 000f 05       		.byte	0x5
 5362 0010 45       		.uleb128 0x45
 5363 0011 873E0000 		.4byte	.LASF578
 5364 0015 05       		.byte	0x5
ARM GAS  C:\Users\Grzybek\AppData\Local\Temp\ccXBk3wH.s 			page 121


 5365 0016 9E01     		.uleb128 0x9e
 5366 0018 CE630000 		.4byte	.LASF579
 5367 001c 05       		.byte	0x5
 5368 001d B702     		.uleb128 0x137
 5369 001f AF4F0000 		.4byte	.LASF580
 5370 0023 05       		.byte	0x5
 5371 0024 B802     		.uleb128 0x138
 5372 0026 822E0000 		.4byte	.LASF581
 5373 002a 05       		.byte	0x5
 5374 002b B902     		.uleb128 0x139
 5375 002d 53140000 		.4byte	.LASF582
 5376 0031 05       		.byte	0x5
 5377 0032 BA02     		.uleb128 0x13a
 5378 0034 C1550000 		.4byte	.LASF583
 5379 0038 05       		.byte	0x5
 5380 0039 BB02     		.uleb128 0x13b
 5381 003b 3E4F0000 		.4byte	.LASF584
 5382 003f 05       		.byte	0x5
 5383 0040 BC02     		.uleb128 0x13c
 5384 0042 240B0000 		.4byte	.LASF585
 5385 0046 05       		.byte	0x5
 5386 0047 BD02     		.uleb128 0x13d
 5387 0049 0C620000 		.4byte	.LASF586
 5388 004d 05       		.byte	0x5
 5389 004e C902     		.uleb128 0x149
 5390 0050 980B0000 		.4byte	.LASF587
 5391 0054 05       		.byte	0x5
 5392 0055 CA02     		.uleb128 0x14a
 5393 0057 56640000 		.4byte	.LASF588
 5394 005b 05       		.byte	0x5
 5395 005c CB02     		.uleb128 0x14b
 5396 005e 11020000 		.4byte	.LASF589
 5397 0062 05       		.byte	0x5
 5398 0063 AE03     		.uleb128 0x1ae
 5399 0065 302C0000 		.4byte	.LASF590
 5400 0069 05       		.byte	0x5
 5401 006a C903     		.uleb128 0x1c9
 5402 006c D35B0000 		.4byte	.LASF591
 5403 0070 05       		.byte	0x5
 5404 0071 EE03     		.uleb128 0x1ee
 5405 0073 204E0000 		.4byte	.LASF592
 5406 0077 05       		.byte	0x5
 5407 0078 F603     		.uleb128 0x1f6
 5408 007a 630D0000 		.4byte	.LASF593
 5409 007e 05       		.byte	0x5
 5410 007f FF03     		.uleb128 0x1ff
 5411 0081 7E080000 		.4byte	.LASF594
 5412 0085 05       		.byte	0x5
 5413 0086 8304     		.uleb128 0x203
 5414 0088 1A400000 		.4byte	.LASF595
 5415 008c 05       		.byte	0x5
 5416 008d 8804     		.uleb128 0x208
 5417 008f D7040000 		.4byte	.LASF596
 5418 0093 05       		.byte	0x5
 5419 0094 9304     		.uleb128 0x213
 5420 0096 D9550000 		.4byte	.LASF597
 5421 009a 05       		.byte	0x5
ARM GAS  C:\Users\Grzybek\AppData\Local\Temp\ccXBk3wH.s 			page 122


 5422 009b 9604     		.uleb128 0x216
 5423 009d EB1F0000 		.4byte	.LASF598
 5424 00a1 05       		.byte	0x5
 5425 00a2 9C04     		.uleb128 0x21c
 5426 00a4 1A380000 		.4byte	.LASF599
 5427 00a8 05       		.byte	0x5
 5428 00a9 9F04     		.uleb128 0x21f
 5429 00ab E3350000 		.4byte	.LASF600
 5430 00af 05       		.byte	0x5
 5431 00b0 A204     		.uleb128 0x222
 5432 00b2 4E320000 		.4byte	.LASF601
 5433 00b6 05       		.byte	0x5
 5434 00b7 B804     		.uleb128 0x238
 5435 00b9 3E3C0000 		.4byte	.LASF602
 5436 00bd 05       		.byte	0x5
 5437 00be BB04     		.uleb128 0x23b
 5438 00c0 60020000 		.4byte	.LASF603
 5439 00c4 05       		.byte	0x5
 5440 00c5 BE04     		.uleb128 0x23e
 5441 00c7 FE180000 		.4byte	.LASF604
 5442 00cb 05       		.byte	0x5
 5443 00cc BF04     		.uleb128 0x23f
 5444 00ce 6A4B0000 		.4byte	.LASF605
 5445 00d2 05       		.byte	0x5
 5446 00d3 C004     		.uleb128 0x240
 5447 00d5 9E120000 		.4byte	.LASF606
 5448 00d9 05       		.byte	0x5
 5449 00da C104     		.uleb128 0x241
 5450 00dc 98360000 		.4byte	.LASF607
 5451 00e0 05       		.byte	0x5
 5452 00e1 C204     		.uleb128 0x242
 5453 00e3 DE000000 		.4byte	.LASF608
 5454 00e7 05       		.byte	0x5
 5455 00e8 C304     		.uleb128 0x243
 5456 00ea 5A600000 		.4byte	.LASF609
 5457 00ee 05       		.byte	0x5
 5458 00ef C404     		.uleb128 0x244
 5459 00f1 11120000 		.4byte	.LASF610
 5460 00f5 05       		.byte	0x5
 5461 00f6 C504     		.uleb128 0x245
 5462 00f8 44220000 		.4byte	.LASF611
 5463 00fc 05       		.byte	0x5
 5464 00fd C604     		.uleb128 0x246
 5465 00ff 525F0000 		.4byte	.LASF612
 5466 0103 05       		.byte	0x5
 5467 0104 C704     		.uleb128 0x247
 5468 0106 E4230000 		.4byte	.LASF613
 5469 010a 05       		.byte	0x5
 5470 010b C804     		.uleb128 0x248
 5471 010d F22A0000 		.4byte	.LASF614
 5472 0111 05       		.byte	0x5
 5473 0112 C904     		.uleb128 0x249
 5474 0114 7A1B0000 		.4byte	.LASF615
 5475 0118 05       		.byte	0x5
 5476 0119 CA04     		.uleb128 0x24a
 5477 011b 9B100000 		.4byte	.LASF616
 5478 011f 05       		.byte	0x5
ARM GAS  C:\Users\Grzybek\AppData\Local\Temp\ccXBk3wH.s 			page 123


 5479 0120 CB04     		.uleb128 0x24b
 5480 0122 CC5F0000 		.4byte	.LASF617
 5481 0126 05       		.byte	0x5
 5482 0127 CC04     		.uleb128 0x24c
 5483 0129 081E0000 		.4byte	.LASF618
 5484 012d 05       		.byte	0x5
 5485 012e CD04     		.uleb128 0x24d
 5486 0130 E5410000 		.4byte	.LASF619
 5487 0134 05       		.byte	0x5
 5488 0135 CE04     		.uleb128 0x24e
 5489 0137 96390000 		.4byte	.LASF620
 5490 013b 05       		.byte	0x5
 5491 013c CF04     		.uleb128 0x24f
 5492 013e 9A0C0000 		.4byte	.LASF621
 5493 0142 05       		.byte	0x5
 5494 0143 D004     		.uleb128 0x250
 5495 0145 942A0000 		.4byte	.LASF622
 5496 0149 05       		.byte	0x5
 5497 014a D104     		.uleb128 0x251
 5498 014c 00300000 		.4byte	.LASF623
 5499 0150 05       		.byte	0x5
 5500 0151 D204     		.uleb128 0x252
 5501 0153 034D0000 		.4byte	.LASF624
 5502 0157 05       		.byte	0x5
 5503 0158 D304     		.uleb128 0x253
 5504 015a BB520000 		.4byte	.LASF625
 5505 015e 05       		.byte	0x5
 5506 015f D404     		.uleb128 0x254
 5507 0161 04470000 		.4byte	.LASF626
 5508 0165 05       		.byte	0x5
 5509 0166 D504     		.uleb128 0x255
 5510 0168 ED1A0000 		.4byte	.LASF627
 5511 016c 05       		.byte	0x5
 5512 016d BD06     		.uleb128 0x33d
 5513 016f 43020000 		.4byte	.LASF628
 5514 0173 05       		.byte	0x5
 5515 0174 C506     		.uleb128 0x345
 5516 0176 70550000 		.4byte	.LASF629
 5517 017a 05       		.byte	0x5
 5518 017b D706     		.uleb128 0x357
 5519 017d DD1B0000 		.4byte	.LASF630
 5520 0181 05       		.byte	0x5
 5521 0182 DC06     		.uleb128 0x35c
 5522 0184 C3510000 		.4byte	.LASF631
 5523 0188 00       		.byte	0
 5524              		.section	.debug_macro,"G",%progbits,wm4.alloca.h.8.dfc0c703c47ec3e69746825b17d9e66d,comdat
 5525              	.Ldebug_macro11:
 5526 0000 0400     		.2byte	0x4
 5527 0002 00       		.byte	0
 5528 0003 05       		.byte	0x5
 5529 0004 08       		.uleb128 0x8
 5530 0005 901F0000 		.4byte	.LASF632
 5531 0009 06       		.byte	0x6
 5532 000a 0D       		.uleb128 0xd
 5533 000b 273D0000 		.4byte	.LASF633
 5534 000f 05       		.byte	0x5
 5535 0010 10       		.uleb128 0x10
ARM GAS  C:\Users\Grzybek\AppData\Local\Temp\ccXBk3wH.s 			page 124


 5536 0011 A41B0000 		.4byte	.LASF634
 5537 0015 00       		.byte	0
 5538              		.section	.debug_macro,"G",%progbits,wm4.stdlib.h.55.22eafe60f8565d898cbb44515781114b,comdat
 5539              	.Ldebug_macro12:
 5540 0000 0400     		.2byte	0x4
 5541 0002 00       		.byte	0
 5542 0003 05       		.byte	0x5
 5543 0004 37       		.uleb128 0x37
 5544 0005 BE060000 		.4byte	.LASF635
 5545 0009 05       		.byte	0x5
 5546 000a 3A       		.uleb128 0x3a
 5547 000b 21620000 		.4byte	.LASF636
 5548 000f 05       		.byte	0x5
 5549 0010 3B       		.uleb128 0x3b
 5550 0011 1F130000 		.4byte	.LASF637
 5551 0015 05       		.byte	0x5
 5552 0016 3D       		.uleb128 0x3d
 5553 0017 D12A0000 		.4byte	.LASF638
 5554 001b 05       		.byte	0x5
 5555 001c 45       		.uleb128 0x45
 5556 001d E2360000 		.4byte	.LASF639
 5557 0021 05       		.byte	0x5
 5558 0022 8E01     		.uleb128 0x8e
 5559 0024 4D5A0000 		.4byte	.LASF640
 5560 0028 00       		.byte	0
 5561              		.section	.debug_macro,"G",%progbits,wm4.string.h.8.ef946ad0bc9ad5c970c365dcd1fc4b0a,comdat
 5562              	.Ldebug_macro13:
 5563 0000 0400     		.2byte	0x4
 5564 0002 00       		.byte	0
 5565 0003 05       		.byte	0x5
 5566 0004 08       		.uleb128 0x8
 5567 0005 A6540000 		.4byte	.LASF641
 5568 0009 05       		.byte	0x5
 5569 000a 0D       		.uleb128 0xd
 5570 000b 1C1A0000 		.4byte	.LASF514
 5571 000f 00       		.byte	0
 5572              		.section	.debug_macro,"G",%progbits,wm4.stddef.h.235.d9f4f80b8c4429535175712282cda6a6,comdat
 5573              	.Ldebug_macro14:
 5574 0000 0400     		.2byte	0x4
 5575 0002 00       		.byte	0
 5576 0003 06       		.byte	0x6
 5577 0004 EB01     		.uleb128 0xeb
 5578 0006 87310000 		.4byte	.LASF533
 5579 000a 06       		.byte	0x6
 5580 000b 9903     		.uleb128 0x199
 5581 000d 91250000 		.4byte	.LASF551
 5582 0011 00       		.byte	0
 5583              		.section	.debug_macro,"G",%progbits,wm4.string.h.86.d5c872ff52e2712c985b588a0ef39f3c,comdat
 5584              	.Ldebug_macro15:
 5585 0000 0400     		.2byte	0x4
 5586 0002 00       		.byte	0
 5587 0003 05       		.byte	0x5
 5588 0004 56       		.uleb128 0x56
 5589 0005 88180000 		.4byte	.LASF642
 5590 0009 05       		.byte	0x5
 5591 000a 59       		.uleb128 0x59
 5592 000b 030A0000 		.4byte	.LASF643
ARM GAS  C:\Users\Grzybek\AppData\Local\Temp\ccXBk3wH.s 			page 125


 5593 000f 05       		.byte	0x5
 5594 0010 5C       		.uleb128 0x5c
 5595 0011 B2400000 		.4byte	.LASF644
 5596 0015 05       		.byte	0x5
 5597 0016 5F       		.uleb128 0x5f
 5598 0017 02520000 		.4byte	.LASF645
 5599 001b 00       		.byte	0
 5600              		.section	.debug_macro,"G",%progbits,wm4.stddef.h.40.b60a1c1ee3f272eef5327a730cbabca6,comdat
 5601              	.Ldebug_macro16:
 5602 0000 0400     		.2byte	0x4
 5603 0002 00       		.byte	0
 5604 0003 05       		.byte	0x5
 5605 0004 28       		.uleb128 0x28
 5606 0005 BC540000 		.4byte	.LASF646
 5607 0009 05       		.byte	0x5
 5608 000a 29       		.uleb128 0x29
 5609 000b 50440000 		.4byte	.LASF647
 5610 000f 05       		.byte	0x5
 5611 0010 2B       		.uleb128 0x2b
 5612 0011 AA2F0000 		.4byte	.LASF648
 5613 0015 05       		.byte	0x5
 5614 0016 2D       		.uleb128 0x2d
 5615 0017 B84C0000 		.4byte	.LASF649
 5616 001b 05       		.byte	0x5
 5617 001c 8B01     		.uleb128 0x8b
 5618 001e 8C350000 		.4byte	.LASF650
 5619 0022 05       		.byte	0x5
 5620 0023 8C01     		.uleb128 0x8c
 5621 0025 522F0000 		.4byte	.LASF651
 5622 0029 05       		.byte	0x5
 5623 002a 8D01     		.uleb128 0x8d
 5624 002c B33C0000 		.4byte	.LASF652
 5625 0030 05       		.byte	0x5
 5626 0031 8E01     		.uleb128 0x8e
 5627 0033 51480000 		.4byte	.LASF653
 5628 0037 05       		.byte	0x5
 5629 0038 8F01     		.uleb128 0x8f
 5630 003a C4560000 		.4byte	.LASF654
 5631 003e 05       		.byte	0x5
 5632 003f 9001     		.uleb128 0x90
 5633 0041 CB090000 		.4byte	.LASF655
 5634 0045 05       		.byte	0x5
 5635 0046 9101     		.uleb128 0x91
 5636 0048 76110000 		.4byte	.LASF656
 5637 004c 05       		.byte	0x5
 5638 004d 9201     		.uleb128 0x92
 5639 004f C2420000 		.4byte	.LASF657
 5640 0053 06       		.byte	0x6
 5641 0054 A101     		.uleb128 0xa1
 5642 0056 9C560000 		.4byte	.LASF658
 5643 005a 06       		.byte	0x6
 5644 005b EB01     		.uleb128 0xeb
 5645 005d 87310000 		.4byte	.LASF533
 5646 0061 06       		.byte	0x6
 5647 0062 D802     		.uleb128 0x158
 5648 0064 46090000 		.4byte	.LASF550
 5649 0068 06       		.byte	0x6
ARM GAS  C:\Users\Grzybek\AppData\Local\Temp\ccXBk3wH.s 			page 126


 5650 0069 8E03     		.uleb128 0x18e
 5651 006b F40B0000 		.4byte	.LASF659
 5652 006f 05       		.byte	0x5
 5653 0070 9303     		.uleb128 0x193
 5654 0072 DD240000 		.4byte	.LASF660
 5655 0076 06       		.byte	0x6
 5656 0077 9903     		.uleb128 0x199
 5657 0079 91250000 		.4byte	.LASF551
 5658 007d 05       		.byte	0x5
 5659 007e 9E03     		.uleb128 0x19e
 5660 0080 4B2D0000 		.4byte	.LASF661
 5661 0084 00       		.byte	0
 5662              		.section	.debug_macro,"G",%progbits,wm4.projdefs.h.70.dbccf9a6ca737be695addf5321434443,comdat
 5663              	.Ldebug_macro17:
 5664 0000 0400     		.2byte	0x4
 5665 0002 00       		.byte	0
 5666 0003 05       		.byte	0x5
 5667 0004 46       		.uleb128 0x46
 5668 0005 82240000 		.4byte	.LASF662
 5669 0009 05       		.byte	0x5
 5670 000a 4B       		.uleb128 0x4b
 5671 000b B10B0000 		.4byte	.LASF663
 5672 000f 05       		.byte	0x5
 5673 0010 4C       		.uleb128 0x4c
 5674 0011 BC530000 		.4byte	.LASF664
 5675 0015 05       		.byte	0x5
 5676 0016 4E       		.uleb128 0x4e
 5677 0017 790C0000 		.4byte	.LASF665
 5678 001b 05       		.byte	0x5
 5679 001c 4F       		.uleb128 0x4f
 5680 001d 0C4A0000 		.4byte	.LASF666
 5681 0021 05       		.byte	0x5
 5682 0022 50       		.uleb128 0x50
 5683 0023 3F2E0000 		.4byte	.LASF667
 5684 0027 05       		.byte	0x5
 5685 0028 51       		.uleb128 0x51
 5686 0029 FD110000 		.4byte	.LASF668
 5687 002d 05       		.byte	0x5
 5688 002e 54       		.uleb128 0x54
 5689 002f B9200000 		.4byte	.LASF669
 5690 0033 05       		.byte	0x5
 5691 0034 55       		.uleb128 0x55
 5692 0035 4A0D0000 		.4byte	.LASF670
 5693 0039 05       		.byte	0x5
 5694 003a 56       		.uleb128 0x56
 5695 003b 4D620000 		.4byte	.LASF671
 5696 003f 05       		.byte	0x5
 5697 0040 57       		.uleb128 0x57
 5698 0041 09130000 		.4byte	.LASF672
 5699 0045 00       		.byte	0
 5700              		.section	.debug_macro,"G",%progbits,wm4.FreeRTOSConfig.h.51.75288dd46c012b59f4d59ef4654b728b,comda
 5701              	.Ldebug_macro18:
 5702 0000 0400     		.2byte	0x4
 5703 0002 00       		.byte	0
 5704 0003 05       		.byte	0x5
 5705 0004 33       		.uleb128 0x33
 5706 0005 BA1F0000 		.4byte	.LASF673
ARM GAS  C:\Users\Grzybek\AppData\Local\Temp\ccXBk3wH.s 			page 127


 5707 0009 05       		.byte	0x5
 5708 000a 3F       		.uleb128 0x3f
 5709 000b D0100000 		.4byte	.LASF674
 5710 000f 05       		.byte	0x5
 5711 0010 40       		.uleb128 0x40
 5712 0011 3C260000 		.4byte	.LASF675
 5713 0015 05       		.byte	0x5
 5714 0016 41       		.uleb128 0x41
 5715 0017 05260000 		.4byte	.LASF676
 5716 001b 05       		.byte	0x5
 5717 001c 42       		.uleb128 0x42
 5718 001d 39300000 		.4byte	.LASF677
 5719 0021 05       		.byte	0x5
 5720 0022 43       		.uleb128 0x43
 5721 0023 B5490000 		.4byte	.LASF678
 5722 0027 05       		.byte	0x5
 5723 0028 44       		.uleb128 0x44
 5724 0029 62360000 		.4byte	.LASF679
 5725 002d 05       		.byte	0x5
 5726 002e 45       		.uleb128 0x45
 5727 002f 97230000 		.4byte	.LASF680
 5728 0033 05       		.byte	0x5
 5729 0034 46       		.uleb128 0x46
 5730 0035 AD2E0000 		.4byte	.LASF681
 5731 0039 05       		.byte	0x5
 5732 003a 47       		.uleb128 0x47
 5733 003b BA020000 		.4byte	.LASF682
 5734 003f 05       		.byte	0x5
 5735 0040 48       		.uleb128 0x48
 5736 0041 6A630000 		.4byte	.LASF683
 5737 0045 05       		.byte	0x5
 5738 0046 49       		.uleb128 0x49
 5739 0047 194C0000 		.4byte	.LASF684
 5740 004b 05       		.byte	0x5
 5741 004c 4A       		.uleb128 0x4a
 5742 004d D1600000 		.4byte	.LASF685
 5743 0051 05       		.byte	0x5
 5744 0052 4B       		.uleb128 0x4b
 5745 0053 C82F0000 		.4byte	.LASF686
 5746 0057 05       		.byte	0x5
 5747 0058 4C       		.uleb128 0x4c
 5748 0059 1B260000 		.4byte	.LASF687
 5749 005d 05       		.byte	0x5
 5750 005e 4D       		.uleb128 0x4d
 5751 005f 54500000 		.4byte	.LASF688
 5752 0063 05       		.byte	0x5
 5753 0064 4F       		.uleb128 0x4f
 5754 0065 18440000 		.4byte	.LASF689
 5755 0069 05       		.byte	0x5
 5756 006a 50       		.uleb128 0x50
 5757 006b 360C0000 		.4byte	.LASF690
 5758 006f 05       		.byte	0x5
 5759 0070 55       		.uleb128 0x55
 5760 0071 E7420000 		.4byte	.LASF691
 5761 0075 05       		.byte	0x5
 5762 0076 56       		.uleb128 0x56
 5763 0077 E6280000 		.4byte	.LASF692
ARM GAS  C:\Users\Grzybek\AppData\Local\Temp\ccXBk3wH.s 			page 128


 5764 007b 05       		.byte	0x5
 5765 007c 57       		.uleb128 0x57
 5766 007d 12240000 		.4byte	.LASF693
 5767 0081 05       		.byte	0x5
 5768 0082 58       		.uleb128 0x58
 5769 0083 88510000 		.4byte	.LASF694
 5770 0087 05       		.byte	0x5
 5771 0088 59       		.uleb128 0x59
 5772 0089 94040000 		.4byte	.LASF695
 5773 008d 05       		.byte	0x5
 5774 008e 5A       		.uleb128 0x5a
 5775 008f E61D0000 		.4byte	.LASF696
 5776 0093 05       		.byte	0x5
 5777 0094 5B       		.uleb128 0x5b
 5778 0095 11430000 		.4byte	.LASF697
 5779 0099 05       		.byte	0x5
 5780 009a 5C       		.uleb128 0x5c
 5781 009b B6010000 		.4byte	.LASF698
 5782 009f 05       		.byte	0x5
 5783 00a0 60       		.uleb128 0x60
 5784 00a1 89200000 		.4byte	.LASF699
 5785 00a5 05       		.byte	0x5
 5786 00a6 61       		.uleb128 0x61
 5787 00a7 3E470000 		.4byte	.LASF700
 5788 00ab 05       		.byte	0x5
 5789 00ac 67       		.uleb128 0x67
 5790 00ad 70650000 		.4byte	.LASF701
 5791 00b1 00       		.byte	0
 5792              		.section	.debug_macro,"G",%progbits,wm4.portmacro.h.71.52a50c2eeecf8808d04241ce2362cf60,comdat
 5793              	.Ldebug_macro19:
 5794 0000 0400     		.2byte	0x4
 5795 0002 00       		.byte	0
 5796 0003 05       		.byte	0x5
 5797 0004 47       		.uleb128 0x47
 5798 0005 4E560000 		.4byte	.LASF702
 5799 0009 05       		.byte	0x5
 5800 000a 58       		.uleb128 0x58
 5801 000b BE4B0000 		.4byte	.LASF703
 5802 000f 05       		.byte	0x5
 5803 0010 59       		.uleb128 0x59
 5804 0011 48540000 		.4byte	.LASF704
 5805 0015 05       		.byte	0x5
 5806 0016 5A       		.uleb128 0x5a
 5807 0017 C72D0000 		.4byte	.LASF705
 5808 001b 05       		.byte	0x5
 5809 001c 5B       		.uleb128 0x5b
 5810 001d 22500000 		.4byte	.LASF706
 5811 0021 05       		.byte	0x5
 5812 0022 5C       		.uleb128 0x5c
 5813 0023 8A140000 		.4byte	.LASF707
 5814 0027 05       		.byte	0x5
 5815 0028 5D       		.uleb128 0x5d
 5816 0029 66570000 		.4byte	.LASF708
 5817 002d 05       		.byte	0x5
 5818 002e 5E       		.uleb128 0x5e
 5819 002f 194A0000 		.4byte	.LASF709
 5820 0033 05       		.byte	0x5
ARM GAS  C:\Users\Grzybek\AppData\Local\Temp\ccXBk3wH.s 			page 129


 5821 0034 65       		.uleb128 0x65
 5822 0035 2A250000 		.4byte	.LASF710
 5823 0039 05       		.byte	0x5
 5824 003a 6A       		.uleb128 0x6a
 5825 003b F4380000 		.4byte	.LASF711
 5826 003f 05       		.byte	0x5
 5827 0040 6B       		.uleb128 0x6b
 5828 0041 CD390000 		.4byte	.LASF712
 5829 0045 05       		.byte	0x5
 5830 0046 6C       		.uleb128 0x6c
 5831 0047 D2420000 		.4byte	.LASF713
 5832 004b 05       		.byte	0x5
 5833 004c 72       		.uleb128 0x72
 5834 004d B35B0000 		.4byte	.LASF714
 5835 0051 05       		.byte	0x5
 5836 0052 73       		.uleb128 0x73
 5837 0053 573F0000 		.4byte	.LASF715
 5838 0057 05       		.byte	0x5
 5839 0058 7B       		.uleb128 0x7b
 5840 0059 385B0000 		.4byte	.LASF716
 5841 005d 05       		.byte	0x5
 5842 005e 7C       		.uleb128 0x7c
 5843 005f 952B0000 		.4byte	.LASF717
 5844 0063 05       		.byte	0x5
 5845 0064 7D       		.uleb128 0x7d
 5846 0065 91580000 		.4byte	.LASF718
 5847 0069 05       		.byte	0x5
 5848 006a 7E       		.uleb128 0x7e
 5849 006b A3290000 		.4byte	.LASF719
 5850 006f 05       		.byte	0x5
 5851 0070 7F       		.uleb128 0x7f
 5852 0071 86260000 		.4byte	.LASF720
 5853 0075 05       		.byte	0x5
 5854 0076 8001     		.uleb128 0x80
 5855 0078 6C2A0000 		.4byte	.LASF721
 5856 007c 05       		.byte	0x5
 5857 007d 8601     		.uleb128 0x86
 5858 007f 17580000 		.4byte	.LASF722
 5859 0083 05       		.byte	0x5
 5860 0084 8701     		.uleb128 0x87
 5861 0086 9A140000 		.4byte	.LASF723
 5862 008a 05       		.byte	0x5
 5863 008b 8D01     		.uleb128 0x8d
 5864 008d 9D250000 		.4byte	.LASF724
 5865 0091 05       		.byte	0x5
 5866 0092 AF01     		.uleb128 0xaf
 5867 0094 DB5A0000 		.4byte	.LASF725
 5868 0098 00       		.byte	0
 5869              		.section	.debug_macro,"G",%progbits,wm4.portable.h.326.d973d87d91a2870806201c5c4493d578,comdat
 5870              	.Ldebug_macro20:
 5871 0000 0400     		.2byte	0x4
 5872 0002 00       		.byte	0
 5873 0003 05       		.byte	0x5
 5874 0004 C602     		.uleb128 0x146
 5875 0006 12460000 		.4byte	.LASF726
 5876 000a 05       		.byte	0x5
 5877 000b DA02     		.uleb128 0x15a
ARM GAS  C:\Users\Grzybek\AppData\Local\Temp\ccXBk3wH.s 			page 130


 5878 000d D0190000 		.4byte	.LASF727
 5879 0011 00       		.byte	0
 5880              		.section	.debug_macro,"G",%progbits,wm4.mpu_wrappers.h.70.805d5308b530bfb35337fa0cda53b379,comdat
 5881              	.Ldebug_macro21:
 5882 0000 0400     		.2byte	0x4
 5883 0002 00       		.byte	0
 5884 0003 05       		.byte	0x5
 5885 0004 46       		.uleb128 0x46
 5886 0005 A1460000 		.4byte	.LASF728
 5887 0009 05       		.byte	0x5
 5888 000a 8D01     		.uleb128 0x8d
 5889 000c 69080000 		.4byte	.LASF729
 5890 0010 05       		.byte	0x5
 5891 0011 8E01     		.uleb128 0x8e
 5892 0013 74120000 		.4byte	.LASF730
 5893 0017 05       		.byte	0x5
 5894 0018 8F01     		.uleb128 0x8f
 5895 001a 87430000 		.4byte	.LASF731
 5896 001e 00       		.byte	0
 5897              		.section	.debug_macro,"G",%progbits,wm4.FreeRTOS.h.153.96ab976bfb595dc71389a47535011fba,comdat
 5898              	.Ldebug_macro22:
 5899 0000 0400     		.2byte	0x4
 5900 0002 00       		.byte	0
 5901 0003 05       		.byte	0x5
 5902 0004 9901     		.uleb128 0x99
 5903 0006 A5640000 		.4byte	.LASF732
 5904 000a 05       		.byte	0x5
 5905 000b 9D01     		.uleb128 0x9d
 5906 000d 1F2F0000 		.4byte	.LASF733
 5907 0011 05       		.byte	0x5
 5908 0012 A101     		.uleb128 0xa1
 5909 0014 68430000 		.4byte	.LASF734
 5910 0018 05       		.byte	0x5
 5911 0019 A501     		.uleb128 0xa5
 5912 001b A9030000 		.4byte	.LASF735
 5913 001f 05       		.byte	0x5
 5914 0020 A901     		.uleb128 0xa9
 5915 0022 B0600000 		.4byte	.LASF736
 5916 0026 05       		.byte	0x5
 5917 0027 B101     		.uleb128 0xb1
 5918 0029 2D1C0000 		.4byte	.LASF737
 5919 002d 05       		.byte	0x5
 5920 002e BD01     		.uleb128 0xbd
 5921 0030 720F0000 		.4byte	.LASF738
 5922 0034 05       		.byte	0x5
 5923 0035 C101     		.uleb128 0xc1
 5924 0037 76390000 		.4byte	.LASF739
 5925 003b 05       		.byte	0x5
 5926 003c C501     		.uleb128 0xc5
 5927 003e 27020000 		.4byte	.LASF740
 5928 0042 05       		.byte	0x5
 5929 0043 C901     		.uleb128 0xc9
 5930 0045 6D480000 		.4byte	.LASF741
 5931 0049 05       		.byte	0x5
 5932 004a D901     		.uleb128 0xd9
 5933 004c 8D0E0000 		.4byte	.LASF742
 5934 0050 05       		.byte	0x5
ARM GAS  C:\Users\Grzybek\AppData\Local\Temp\ccXBk3wH.s 			page 131


 5935 0051 DD01     		.uleb128 0xdd
 5936 0053 F14B0000 		.4byte	.LASF743
 5937 0057 05       		.byte	0x5
 5938 0058 E101     		.uleb128 0xe1
 5939 005a 1A3B0000 		.4byte	.LASF744
 5940 005e 05       		.byte	0x5
 5941 005f F601     		.uleb128 0xf6
 5942 0061 D30C0000 		.4byte	.LASF745
 5943 0065 05       		.byte	0x5
 5944 0066 FA01     		.uleb128 0xfa
 5945 0068 7B470000 		.4byte	.LASF746
 5946 006c 05       		.byte	0x5
 5947 006d 8702     		.uleb128 0x107
 5948 006f 7E130000 		.4byte	.LASF747
 5949 0073 05       		.byte	0x5
 5950 0074 8B02     		.uleb128 0x10b
 5951 0076 55090000 		.4byte	.LASF748
 5952 007a 05       		.byte	0x5
 5953 007b 8F02     		.uleb128 0x10f
 5954 007d 30620000 		.4byte	.LASF749
 5955 0081 05       		.byte	0x5
 5956 0082 9302     		.uleb128 0x113
 5957 0084 D3030000 		.4byte	.LASF750
 5958 0088 05       		.byte	0x5
 5959 0089 9402     		.uleb128 0x114
 5960 008b 7C100000 		.4byte	.LASF751
 5961 008f 05       		.byte	0x5
 5962 0090 9802     		.uleb128 0x118
 5963 0092 9A4B0000 		.4byte	.LASF752
 5964 0096 05       		.byte	0x5
 5965 0097 9F02     		.uleb128 0x11f
 5966 0099 7B060000 		.4byte	.LASF753
 5967 009d 05       		.byte	0x5
 5968 009e A502     		.uleb128 0x125
 5969 00a0 94380000 		.4byte	.LASF754
 5970 00a4 05       		.byte	0x5
 5971 00a5 AB02     		.uleb128 0x12b
 5972 00a7 82000000 		.4byte	.LASF755
 5973 00ab 05       		.byte	0x5
 5974 00ac B102     		.uleb128 0x131
 5975 00ae 162C0000 		.4byte	.LASF756
 5976 00b2 05       		.byte	0x5
 5977 00b3 BA02     		.uleb128 0x13a
 5978 00b5 E7080000 		.4byte	.LASF757
 5979 00b9 05       		.byte	0x5
 5980 00ba C202     		.uleb128 0x142
 5981 00bc B7160000 		.4byte	.LASF758
 5982 00c0 05       		.byte	0x5
 5983 00c1 CA02     		.uleb128 0x14a
 5984 00c3 0E410000 		.4byte	.LASF759
 5985 00c7 05       		.byte	0x5
 5986 00c8 D202     		.uleb128 0x152
 5987 00ca 2D280000 		.4byte	.LASF760
 5988 00ce 05       		.byte	0x5
 5989 00cf DC02     		.uleb128 0x15c
 5990 00d1 451C0000 		.4byte	.LASF761
 5991 00d5 05       		.byte	0x5
ARM GAS  C:\Users\Grzybek\AppData\Local\Temp\ccXBk3wH.s 			page 132


 5992 00d6 E002     		.uleb128 0x160
 5993 00d8 07570000 		.4byte	.LASF762
 5994 00dc 05       		.byte	0x5
 5995 00dd E402     		.uleb128 0x164
 5996 00df 061C0000 		.4byte	.LASF763
 5997 00e3 05       		.byte	0x5
 5998 00e4 E802     		.uleb128 0x168
 5999 00e6 F0530000 		.4byte	.LASF764
 6000 00ea 05       		.byte	0x5
 6001 00eb EC02     		.uleb128 0x16c
 6002 00ed EA060000 		.4byte	.LASF765
 6003 00f1 05       		.byte	0x5
 6004 00f2 F002     		.uleb128 0x170
 6005 00f4 FD160000 		.4byte	.LASF766
 6006 00f8 05       		.byte	0x5
 6007 00f9 F402     		.uleb128 0x174
 6008 00fb D73D0000 		.4byte	.LASF767
 6009 00ff 05       		.byte	0x5
 6010 0100 F802     		.uleb128 0x178
 6011 0102 C7540000 		.4byte	.LASF768
 6012 0106 05       		.byte	0x5
 6013 0107 FC02     		.uleb128 0x17c
 6014 0109 C74F0000 		.4byte	.LASF769
 6015 010d 05       		.byte	0x5
 6016 010e 8003     		.uleb128 0x180
 6017 0110 8F4E0000 		.4byte	.LASF770
 6018 0114 05       		.byte	0x5
 6019 0115 8403     		.uleb128 0x184
 6020 0117 20290000 		.4byte	.LASF771
 6021 011b 05       		.byte	0x5
 6022 011c 8803     		.uleb128 0x188
 6023 011e F9070000 		.4byte	.LASF772
 6024 0122 05       		.byte	0x5
 6025 0123 8C03     		.uleb128 0x18c
 6026 0125 6A220000 		.4byte	.LASF773
 6027 0129 05       		.byte	0x5
 6028 012a 9003     		.uleb128 0x190
 6029 012c 034E0000 		.4byte	.LASF774
 6030 0130 05       		.byte	0x5
 6031 0131 9403     		.uleb128 0x194
 6032 0133 0B550000 		.4byte	.LASF775
 6033 0137 05       		.byte	0x5
 6034 0138 9803     		.uleb128 0x198
 6035 013a 73450000 		.4byte	.LASF776
 6036 013e 05       		.byte	0x5
 6037 013f 9C03     		.uleb128 0x19c
 6038 0141 9F470000 		.4byte	.LASF777
 6039 0145 05       		.byte	0x5
 6040 0146 A003     		.uleb128 0x1a0
 6041 0148 2C640000 		.4byte	.LASF778
 6042 014c 05       		.byte	0x5
 6043 014d A403     		.uleb128 0x1a4
 6044 014f DE400000 		.4byte	.LASF779
 6045 0153 05       		.byte	0x5
 6046 0154 A803     		.uleb128 0x1a8
 6047 0156 C5370000 		.4byte	.LASF780
 6048 015a 05       		.byte	0x5
ARM GAS  C:\Users\Grzybek\AppData\Local\Temp\ccXBk3wH.s 			page 133


 6049 015b AC03     		.uleb128 0x1ac
 6050 015d D6290000 		.4byte	.LASF781
 6051 0161 05       		.byte	0x5
 6052 0162 B003     		.uleb128 0x1b0
 6053 0164 EA430000 		.4byte	.LASF782
 6054 0168 05       		.byte	0x5
 6055 0169 B403     		.uleb128 0x1b4
 6056 016b 2F420000 		.4byte	.LASF783
 6057 016f 05       		.byte	0x5
 6058 0170 B803     		.uleb128 0x1b8
 6059 0172 E9140000 		.4byte	.LASF784
 6060 0176 05       		.byte	0x5
 6061 0177 BC03     		.uleb128 0x1bc
 6062 0179 53280000 		.4byte	.LASF785
 6063 017d 05       		.byte	0x5
 6064 017e C003     		.uleb128 0x1c0
 6065 0180 31220000 		.4byte	.LASF786
 6066 0184 05       		.byte	0x5
 6067 0185 C403     		.uleb128 0x1c4
 6068 0187 78540000 		.4byte	.LASF787
 6069 018b 05       		.byte	0x5
 6070 018c C803     		.uleb128 0x1c8
 6071 018e A5130000 		.4byte	.LASF788
 6072 0192 05       		.byte	0x5
 6073 0193 CC03     		.uleb128 0x1cc
 6074 0195 991E0000 		.4byte	.LASF789
 6075 0199 05       		.byte	0x5
 6076 019a D003     		.uleb128 0x1d0
 6077 019c 40410000 		.4byte	.LASF790
 6078 01a0 05       		.byte	0x5
 6079 01a1 D403     		.uleb128 0x1d4
 6080 01a3 A5090000 		.4byte	.LASF791
 6081 01a7 05       		.byte	0x5
 6082 01a8 D803     		.uleb128 0x1d8
 6083 01aa 41120000 		.4byte	.LASF792
 6084 01ae 05       		.byte	0x5
 6085 01af DC03     		.uleb128 0x1dc
 6086 01b1 74460000 		.4byte	.LASF793
 6087 01b5 05       		.byte	0x5
 6088 01b6 E003     		.uleb128 0x1e0
 6089 01b8 D33F0000 		.4byte	.LASF794
 6090 01bc 05       		.byte	0x5
 6091 01bd E403     		.uleb128 0x1e4
 6092 01bf 470A0000 		.4byte	.LASF795
 6093 01c3 05       		.byte	0x5
 6094 01c4 E803     		.uleb128 0x1e8
 6095 01c6 A3480000 		.4byte	.LASF796
 6096 01ca 05       		.byte	0x5
 6097 01cb EC03     		.uleb128 0x1ec
 6098 01cd 58540000 		.4byte	.LASF797
 6099 01d1 05       		.byte	0x5
 6100 01d2 FE03     		.uleb128 0x1fe
 6101 01d4 C1440000 		.4byte	.LASF798
 6102 01d8 05       		.byte	0x5
 6103 01d9 8204     		.uleb128 0x202
 6104 01db 5B1B0000 		.4byte	.LASF799
 6105 01df 05       		.byte	0x5
ARM GAS  C:\Users\Grzybek\AppData\Local\Temp\ccXBk3wH.s 			page 134


 6106 01e0 8604     		.uleb128 0x206
 6107 01e2 44070000 		.4byte	.LASF800
 6108 01e6 05       		.byte	0x5
 6109 01e7 8A04     		.uleb128 0x20a
 6110 01e9 690B0000 		.4byte	.LASF801
 6111 01ed 05       		.byte	0x5
 6112 01ee 8E04     		.uleb128 0x20e
 6113 01f0 6B410000 		.4byte	.LASF802
 6114 01f4 05       		.byte	0x5
 6115 01f5 9204     		.uleb128 0x212
 6116 01f7 6F300000 		.4byte	.LASF803
 6117 01fb 05       		.byte	0x5
 6118 01fc 9A04     		.uleb128 0x21a
 6119 01fe 6B140000 		.4byte	.LASF804
 6120 0202 05       		.byte	0x5
 6121 0203 9E04     		.uleb128 0x21e
 6122 0205 073D0000 		.4byte	.LASF805
 6123 0209 00       		.byte	0
 6124              		.section	.debug_macro,"G",%progbits,wm4.list.h.99.4794e53f44ef377a7e8b918fd5c142a2,comdat
 6125              	.Ldebug_macro23:
 6126 0000 0400     		.2byte	0x4
 6127 0002 00       		.byte	0
 6128 0003 05       		.byte	0x5
 6129 0004 63       		.uleb128 0x63
 6130 0005 172F0000 		.4byte	.LASF806
 6131 0009 05       		.byte	0x5
 6132 000a 8E01     		.uleb128 0x8e
 6133 000c F4470000 		.4byte	.LASF807
 6134 0010 05       		.byte	0x5
 6135 0011 9701     		.uleb128 0x97
 6136 0013 6C1C0000 		.4byte	.LASF808
 6137 0017 05       		.byte	0x5
 6138 0018 A001     		.uleb128 0xa0
 6139 001a C3580000 		.4byte	.LASF809
 6140 001e 05       		.byte	0x5
 6141 001f AA01     		.uleb128 0xaa
 6142 0021 14630000 		.4byte	.LASF810
 6143 0025 05       		.byte	0x5
 6144 0026 B301     		.uleb128 0xb3
 6145 0028 903B0000 		.4byte	.LASF811
 6146 002c 05       		.byte	0x5
 6147 002d BC01     		.uleb128 0xbc
 6148 002f 28240000 		.4byte	.LASF812
 6149 0033 05       		.byte	0x5
 6150 0034 C101     		.uleb128 0xc1
 6151 0036 0D5A0000 		.4byte	.LASF813
 6152 003a 05       		.byte	0x5
 6153 003b D601     		.uleb128 0xd6
 6154 003d C2260000 		.4byte	.LASF814
 6155 0041 05       		.byte	0x5
 6156 0042 F401     		.uleb128 0xf4
 6157 0044 754A0000 		.4byte	.LASF815
 6158 0048 05       		.byte	0x5
 6159 0049 8002     		.uleb128 0x100
 6160 004b CA4A0000 		.4byte	.LASF816
 6161 004f 05       		.byte	0x5
 6162 0050 8802     		.uleb128 0x108
ARM GAS  C:\Users\Grzybek\AppData\Local\Temp\ccXBk3wH.s 			page 135


 6163 0052 30150000 		.4byte	.LASF817
 6164 0056 05       		.byte	0x5
 6165 0057 8F02     		.uleb128 0x10f
 6166 0059 11370000 		.4byte	.LASF818
 6167 005d 00       		.byte	0
 6168              		.section	.debug_macro,"G",%progbits,wm4.task.h.87.ccd4c448460750abd1f398251d355800,comdat
 6169              	.Ldebug_macro24:
 6170 0000 0400     		.2byte	0x4
 6171 0002 00       		.byte	0
 6172 0003 05       		.byte	0x5
 6173 0004 57       		.uleb128 0x57
 6174 0005 023E0000 		.4byte	.LASF819
 6175 0009 05       		.byte	0x5
 6176 000a 9501     		.uleb128 0x95
 6177 000c 98350000 		.4byte	.LASF820
 6178 0010 05       		.byte	0x5
 6179 0011 9F01     		.uleb128 0x9f
 6180 0013 F1120000 		.4byte	.LASF821
 6181 0017 05       		.byte	0x5
 6182 0018 AD01     		.uleb128 0xad
 6183 001a 7B1D0000 		.4byte	.LASF822
 6184 001e 05       		.byte	0x5
 6185 001f BB01     		.uleb128 0xbb
 6186 0021 C04E0000 		.4byte	.LASF823
 6187 0025 05       		.byte	0x5
 6188 0026 C501     		.uleb128 0xc5
 6189 0028 793A0000 		.4byte	.LASF824
 6190 002c 05       		.byte	0x5
 6191 002d CF01     		.uleb128 0xcf
 6192 002f 8B5A0000 		.4byte	.LASF825
 6193 0033 05       		.byte	0x5
 6194 0034 D201     		.uleb128 0xd2
 6195 0036 F50F0000 		.4byte	.LASF826
 6196 003a 05       		.byte	0x5
 6197 003b D301     		.uleb128 0xd3
 6198 003d 89060000 		.4byte	.LASF827
 6199 0041 05       		.byte	0x5
 6200 0042 D401     		.uleb128 0xd4
 6201 0044 682E0000 		.4byte	.LASF828
 6202 0048 05       		.byte	0x5
 6203 0049 A602     		.uleb128 0x126
 6204 004b B9220000 		.4byte	.LASF829
 6205 004f 05       		.byte	0x5
 6206 0050 EB02     		.uleb128 0x16b
 6207 0052 72500000 		.4byte	.LASF830
 6208 0056 00       		.byte	0
 6209              		.section	.debug_line,"",%progbits
 6210              	.Ldebug_line0:
 6211 0000 11060000 		.section	.debug_str,"MS",%progbits,1
 6211      02007E03 
 6211      00000201 
 6211      FB0E0D00 
 6211      01010101 
 6212              	.LASF60:
 6213 0000 70764974 		.ascii	"pvItemToQueue\000"
 6213      656D546F 
 6213      51756575 
ARM GAS  C:\Users\Grzybek\AppData\Local\Temp\ccXBk3wH.s 			page 136


 6213      6500
 6214              	.LASF415:
 6215 000e 5F5F5548 		.ascii	"__UHA_FBIT__ 8\000"
 6215      415F4642 
 6215      49545F5F 
 6215      203800
 6216              	.LASF305:
 6217 001d 5F5F4445 		.ascii	"__DEC128_EPSILON__ 1E-33DL\000"
 6217      43313238 
 6217      5F455053 
 6217      494C4F4E 
 6217      5F5F2031 
 6218              	.LASF2:
 6219 0038 756E7369 		.ascii	"unsigned char\000"
 6219      676E6564 
 6219      20636861 
 6219      7200
 6220              	.LASF435:
 6221 0046 5F5F4743 		.ascii	"__GCC_ATOMIC_WCHAR_T_LOCK_FREE 2\000"
 6221      435F4154 
 6221      4F4D4943 
 6221      5F574348 
 6221      41525F54 
 6222              	.LASF427:
 6223 0067 5F5F4348 		.ascii	"__CHAR_UNSIGNED__ 1\000"
 6223      41525F55 
 6223      4E534947 
 6223      4E45445F 
 6223      5F203100 
 6224              	.LASF11:
 6225 007b 73697A65 		.ascii	"size_t\000"
 6225      5F7400
 6226              	.LASF755:
 6227 0082 74726163 		.ascii	"traceTASK_SWITCHED_IN() \000"
 6227      65544153 
 6227      4B5F5357 
 6227      49544348 
 6227      45445F49 
 6228              	.LASF307:
 6229 009b 5F5F5346 		.ascii	"__SFRACT_FBIT__ 7\000"
 6229      52414354 
 6229      5F464249 
 6229      545F5F20 
 6229      3700
 6230              	.LASF8:
 6231 00ad 73697A65 		.ascii	"sizetype\000"
 6231      74797065 
 6231      00
 6232              	.LASF194:
 6233 00b6 5F5F4C4F 		.ascii	"__LONG_LONG_MAX__ 9223372036854775807LL\000"
 6233      4E475F4C 
 6233      4F4E475F 
 6233      4D41585F 
 6233      5F203932 
 6234              	.LASF608:
 6235 00de 5F524545 		.ascii	"_REENT_RAND48_ADD(ptr) ((ptr)->_r48->_add)\000"
 6235      4E545F52 
ARM GAS  C:\Users\Grzybek\AppData\Local\Temp\ccXBk3wH.s 			page 137


 6235      414E4434 
 6235      385F4144 
 6235      44287074 
 6236              	.LASF379:
 6237 0109 5F5F4C4C 		.ascii	"__LLACCUM_MIN__ (-0X1P31LLK-0X1P31LLK)\000"
 6237      41434355 
 6237      4D5F4D49 
 6237      4E5F5F20 
 6237      282D3058 
 6238              	.LASF371:
 6239 0130 5F5F4C41 		.ascii	"__LACCUM_EPSILON__ 0x1P-31LK\000"
 6239      4343554D 
 6239      5F455053 
 6239      494C4F4E 
 6239      5F5F2030 
 6240              	.LASF304:
 6241 014d 5F5F4445 		.ascii	"__DEC128_MAX__ 9.999999999999999999999999999999999E"
 6241      43313238 
 6241      5F4D4158 
 6241      5F5F2039 
 6241      2E393939 
 6242 0180 36313434 		.ascii	"6144DL\000"
 6242      444C00
 6243              	.LASF509:
 6244 0187 5F4C4F4E 		.ascii	"_LONG_DOUBLE long double\000"
 6244      475F444F 
 6244      55424C45 
 6244      206C6F6E 
 6244      6720646F 
 6245              	.LASF202:
 6246 01a0 5F5F494E 		.ascii	"__INTMAX_C(c) c ## LL\000"
 6246      544D4158 
 6246      5F432863 
 6246      29206320 
 6246      2323204C 
 6247              	.LASF698:
 6248 01b6 494E434C 		.ascii	"INCLUDE_uxTaskGetStackHighWaterMark 1\000"
 6248      5544455F 
 6248      75785461 
 6248      736B4765 
 6248      74537461 
 6249              	.LASF292:
 6250 01dc 5F5F4445 		.ascii	"__DEC32_SUBNORMAL_MIN__ 0.000001E-95DF\000"
 6250      4333325F 
 6250      5355424E 
 6250      4F524D41 
 6250      4C5F4D49 
 6251              	.LASF396:
 6252 0203 5F5F5451 		.ascii	"__TQ_IBIT__ 0\000"
 6252      5F494249 
 6252      545F5F20 
 6252      3000
 6253              	.LASF589:
 6254 0211 5F524545 		.ascii	"_REENT_SIGNAL_SIZE 24\000"
 6254      4E545F53 
 6254      49474E41 
 6254      4C5F5349 
ARM GAS  C:\Users\Grzybek\AppData\Local\Temp\ccXBk3wH.s 			page 138


 6254      5A452032 
 6255              	.LASF740:
 6256 0227 636F6E66 		.ascii	"configUSE_ALTERNATIVE_API 0\000"
 6256      69675553 
 6256      455F414C 
 6256      5445524E 
 6256      41544956 
 6257              	.LASF628:
 6258 0243 5F4B6D61 		.ascii	"_Kmax (sizeof (size_t) << 3)\000"
 6258      78202873 
 6258      697A656F 
 6258      66202873 
 6258      697A655F 
 6259              	.LASF603:
 6260 0260 5F524545 		.ascii	"_REENT_CHECK_SIGNAL_BUF(var) _REENT_CHECK(var, _sig"
 6260      4E545F43 
 6260      4845434B 
 6260      5F534947 
 6260      4E414C5F 
 6261 0293 6E616C5F 		.ascii	"nal_buf, char *, _REENT_SIGNAL_SIZE, )\000"
 6261      6275662C 
 6261      20636861 
 6261      72202A2C 
 6261      205F5245 
 6262              	.LASF682:
 6263 02ba 636F6E66 		.ascii	"configMAX_TASK_NAME_LEN ( 16 )\000"
 6263      69674D41 
 6263      585F5441 
 6263      534B5F4E 
 6263      414D455F 
 6264              	.LASF58:
 6265 02d9 78426C6F 		.ascii	"xBlockTime\000"
 6265      636B5469 
 6265      6D6500
 6266              	.LASF69:
 6267 02e4 70764275 		.ascii	"pvBuffer\000"
 6267      66666572 
 6267      00
 6268              	.LASF130:
 6269 02ed 5F5F5645 		.ascii	"__VERSION__ \"4.7.2\"\000"
 6269      5253494F 
 6269      4E5F5F20 
 6269      22342E37 
 6269      2E322200 
 6270              	.LASF140:
 6271 0301 5F5F5349 		.ascii	"__SIZEOF_LONG_LONG__ 8\000"
 6271      5A454F46 
 6271      5F4C4F4E 
 6271      475F4C4F 
 6271      4E475F5F 
 6272              	.LASF263:
 6273 0318 5F5F4442 		.ascii	"__DBL_MAX_10_EXP__ 308\000"
 6273      4C5F4D41 
 6273      585F3130 
 6273      5F455850 
 6273      5F5F2033 
 6274              	.LASF319:
ARM GAS  C:\Users\Grzybek\AppData\Local\Temp\ccXBk3wH.s 			page 139


 6275 032f 5F5F4652 		.ascii	"__FRACT_MIN__ (-0.5R-0.5R)\000"
 6275      4143545F 
 6275      4D494E5F 
 6275      5F20282D 
 6275      302E3552 
 6276              	.LASF385:
 6277 034a 5F5F554C 		.ascii	"__ULLACCUM_MAX__ 0XFFFFFFFFFFFFFFFFP-32ULLK\000"
 6277      4C414343 
 6277      554D5F4D 
 6277      41585F5F 
 6277      20305846 
 6278              	.LASF355:
 6279 0376 5F5F5553 		.ascii	"__USACCUM_MAX__ 0XFFFFP-8UHK\000"
 6279      41434355 
 6279      4D5F4D41 
 6279      585F5F20 
 6279      30584646 
 6280              	.LASF289:
 6281 0393 5F5F4445 		.ascii	"__DEC32_MIN__ 1E-95DF\000"
 6281      4333325F 
 6281      4D494E5F 
 6281      5F203145 
 6281      2D393544 
 6282              	.LASF735:
 6283 03a9 494E434C 		.ascii	"INCLUDE_pcTaskGetTaskName 0\000"
 6283      5544455F 
 6283      70635461 
 6283      736B4765 
 6283      74546173 
 6284              	.LASF392:
 6285 03c5 5F5F5351 		.ascii	"__SQ_IBIT__ 0\000"
 6285      5F494249 
 6285      545F5F20 
 6285      3000
 6286              	.LASF750:
 6287 03d3 76517565 		.ascii	"vQueueAddToRegistry(xQueue,pcName) \000"
 6287      75654164 
 6287      64546F52 
 6287      65676973 
 6287      74727928 
 6288              	.LASF154:
 6289 03f7 5F5F5349 		.ascii	"__SIZE_TYPE__ unsigned int\000"
 6289      5A455F54 
 6289      5950455F 
 6289      5F20756E 
 6289      7369676E 
 6290              	.LASF295:
 6291 0412 5F5F4445 		.ascii	"__DEC64_MAX_EXP__ 385\000"
 6291      4336345F 
 6291      4D41585F 
 6291      4558505F 
 6291      5F203338 
 6292              	.LASF255:
 6293 0428 5F5F464C 		.ascii	"__FLT_HAS_DENORM__ 1\000"
 6293      545F4841 
 6293      535F4445 
 6293      4E4F524D 
ARM GAS  C:\Users\Grzybek\AppData\Local\Temp\ccXBk3wH.s 			page 140


 6293      5F5F2031 
 6294              	.LASF163:
 6295 043d 5F5F494E 		.ascii	"__INT8_TYPE__ signed char\000"
 6295      54385F54 
 6295      5950455F 
 6295      5F207369 
 6295      676E6564 
 6296              	.LASF72:
 6297 0457 78517565 		.ascii	"xQueueReceiveFromISR\000"
 6297      75655265 
 6297      63656976 
 6297      6546726F 
 6297      6D495352 
 6298              	.LASF27:
 6299 046c 7854494D 		.ascii	"xTIME_OUT\000"
 6299      455F4F55 
 6299      5400
 6300              	.LASF503:
 6301 0476 5F455846 		.ascii	"_EXFUN(name,proto) name proto\000"
 6301      554E286E 
 6301      616D652C 
 6301      70726F74 
 6301      6F29206E 
 6302              	.LASF695:
 6303 0494 494E434C 		.ascii	"INCLUDE_vTaskSuspend 1\000"
 6303      5544455F 
 6303      76546173 
 6303      6B537573 
 6303      70656E64 
 6304              	.LASF278:
 6305 04ab 5F5F4445 		.ascii	"__DECIMAL_DIG__ 17\000"
 6305      43494D41 
 6305      4C5F4449 
 6305      475F5F20 
 6305      313700
 6306              	.LASF274:
 6307 04be 5F5F4C44 		.ascii	"__LDBL_MIN_EXP__ (-1021)\000"
 6307      424C5F4D 
 6307      494E5F45 
 6307      58505F5F 
 6307      20282D31 
 6308              	.LASF596:
 6309 04d7 5F524545 		.ascii	"_REENT_INIT_RAND48(var) do { struct _reent *_r = (v"
 6309      4E545F49 
 6309      4E49545F 
 6309      52414E44 
 6309      34382876 
 6310 050a 6172293B 		.ascii	"ar); _r->_r48->_seed[0] = _RAND48_SEED_0; _r->_r48-"
 6310      205F722D 
 6310      3E5F7234 
 6310      382D3E5F 
 6310      73656564 
 6311 053d 3E5F7365 		.ascii	">_seed[1] = _RAND48_SEED_1; _r->_r48->_seed[2] = _R"
 6311      65645B31 
 6311      5D203D20 
 6311      5F52414E 
 6311      4434385F 
ARM GAS  C:\Users\Grzybek\AppData\Local\Temp\ccXBk3wH.s 			page 141


 6312 0570 414E4434 		.ascii	"AND48_SEED_2; _r->_r48->_mult[0] = _RAND48_MULT_0; "
 6312      385F5345 
 6312      45445F32 
 6312      3B205F72 
 6312      2D3E5F72 
 6313 05a3 5F722D3E 		.ascii	"_r->_r48->_mult[1] = _RAND48_MULT_1; _r->_r48->_mul"
 6313      5F723438 
 6313      2D3E5F6D 
 6313      756C745B 
 6313      315D203D 
 6314 05d6 745B325D 		.ascii	"t[2] = _RAND48_MULT_2; _r->_r48->_add = _RAND48_ADD"
 6314      203D205F 
 6314      52414E44 
 6314      34385F4D 
 6314      554C545F 
 6315 0609 3B205F72 		.ascii	"; _r->_r48->_rand_next = 1; } while (0)\000"
 6315      2D3E5F72 
 6315      34382D3E 
 6315      5F72616E 
 6315      645F6E65 
 6316              	.LASF272:
 6317 0631 5F5F4C44 		.ascii	"__LDBL_MANT_DIG__ 53\000"
 6317      424C5F4D 
 6317      414E545F 
 6317      4449475F 
 6317      5F203533 
 6318              	.LASF70:
 6319 0646 784A7573 		.ascii	"xJustPeeking\000"
 6319      74506565 
 6319      6B696E67 
 6319      00
 6320              	.LASF224:
 6321 0653 5F5F5549 		.ascii	"__UINT8_C(c) c\000"
 6321      4E54385F 
 6321      43286329 
 6321      206300
 6322              	.LASF164:
 6323 0662 5F5F494E 		.ascii	"__INT16_TYPE__ short int\000"
 6323      5431365F 
 6323      54595045 
 6323      5F5F2073 
 6323      686F7274 
 6324              	.LASF753:
 6325 067b 74726163 		.ascii	"traceSTART() \000"
 6325      65535441 
 6325      52542829 
 6325      2000
 6326              	.LASF827:
 6327 0689 7461736B 		.ascii	"taskSCHEDULER_RUNNING 1\000"
 6327      53434845 
 6327      44554C45 
 6327      525F5255 
 6327      4E4E494E 
 6328              	.LASF511:
 6329 06a1 5F504152 		.ascii	"_PARAMS(paramlist) paramlist\000"
 6329      414D5328 
 6329      70617261 
ARM GAS  C:\Users\Grzybek\AppData\Local\Temp\ccXBk3wH.s 			page 142


 6329      6D6C6973 
 6329      74292070 
 6330              	.LASF635:
 6331 06be 4E554C4C 		.ascii	"NULL 0\000"
 6331      203000
 6332              	.LASF428:
 6333 06c5 5F5F4743 		.ascii	"__GCC_HAVE_SYNC_COMPARE_AND_SWAP_1 1\000"
 6333      435F4841 
 6333      56455F53 
 6333      594E435F 
 6333      434F4D50 
 6334              	.LASF765:
 6335 06ea 74726163 		.ascii	"traceCREATE_MUTEX_FAILED() \000"
 6335      65435245 
 6335      4154455F 
 6335      4D555445 
 6335      585F4641 
 6336              	.LASF179:
 6337 0706 5F5F494E 		.ascii	"__INT_FAST8_TYPE__ int\000"
 6337      545F4641 
 6337      5354385F 
 6337      54595045 
 6337      5F5F2069 
 6338              	.LASF126:
 6339 071d 5F5F5354 		.ascii	"__STDC_HOSTED__ 1\000"
 6339      44435F48 
 6339      4F535445 
 6339      445F5F20 
 6339      3100
 6340              	.LASF342:
 6341 072f 5F5F554C 		.ascii	"__ULLFRACT_FBIT__ 64\000"
 6341      4C465241 
 6341      43545F46 
 6341      4249545F 
 6341      5F203634 
 6342              	.LASF800:
 6343 0744 706F7274 		.ascii	"portPRIVILEGE_BIT ( ( unsigned portBASE_TYPE ) 0x00"
 6343      50524956 
 6343      494C4547 
 6343      455F4249 
 6343      54202820 
 6344 0777 202900   		.ascii	" )\000"
 6345              	.LASF113:
 6346 077a 71756575 		.ascii	"queueSEMAPHORE_QUEUE_ITEM_LENGTH ( ( unsigned portB"
 6346      6553454D 
 6346      4150484F 
 6346      52455F51 
 6346      55455545 
 6347 07ad 4153455F 		.ascii	"ASE_TYPE ) 0 )\000"
 6347      54595045 
 6347      20292030 
 6347      202900
 6348              	.LASF182:
 6349 07bc 5F5F494E 		.ascii	"__INT_FAST64_TYPE__ long long int\000"
 6349      545F4641 
 6349      53543634 
 6349      5F545950 
ARM GAS  C:\Users\Grzybek\AppData\Local\Temp\ccXBk3wH.s 			page 143


 6349      455F5F20 
 6350              	.LASF157:
 6351 07de 5F5F5749 		.ascii	"__WINT_TYPE__ unsigned int\000"
 6351      4E545F54 
 6351      5950455F 
 6351      5F20756E 
 6351      7369676E 
 6352              	.LASF772:
 6353 07f9 74726163 		.ascii	"traceQUEUE_SEND(pxQueue) \000"
 6353      65515545 
 6353      55455F53 
 6353      454E4428 
 6353      70785175 
 6354              	.LASF517:
 6355 0813 5F5F5349 		.ascii	"__SIZE_T__ \000"
 6355      5A455F54 
 6355      5F5F2000 
 6356              	.LASF168:
 6357 081f 5F5F5549 		.ascii	"__UINT16_TYPE__ short unsigned int\000"
 6357      4E543136 
 6357      5F545950 
 6357      455F5F20 
 6357      73686F72 
 6358              	.LASF214:
 6359 0842 5F5F5549 		.ascii	"__UINT64_MAX__ 18446744073709551615ULL\000"
 6359      4E543634 
 6359      5F4D4158 
 6359      5F5F2031 
 6359      38343436 
 6360              	.LASF729:
 6361 0869 50524956 		.ascii	"PRIVILEGED_FUNCTION \000"
 6361      494C4547 
 6361      45445F46 
 6361      554E4354 
 6361      494F4E20 
 6362              	.LASF594:
 6363 087e 5F524545 		.ascii	"_REENT_CHECK_TM(var) _REENT_CHECK(var, _localtime_b"
 6363      4E545F43 
 6363      4845434B 
 6363      5F544D28 
 6363      76617229 
 6364 08b1 75662C20 		.ascii	"uf, struct __tm *, sizeof *((var)->_localtime_buf),"
 6364      73747275 
 6364      6374205F 
 6364      5F746D20 
 6364      2A2C2073 
 6365 08e4 202900   		.ascii	" )\000"
 6366              	.LASF757:
 6367 08e7 74726163 		.ascii	"traceTASK_PRIORITY_INHERIT(pxTCBOfMutexHolder,uxInh"
 6367      65544153 
 6367      4B5F5052 
 6367      494F5249 
 6367      54595F49 
 6368 091a 65726974 		.ascii	"eritedPriority) \000"
 6368      65645072 
 6368      696F7269 
 6368      74792920 
ARM GAS  C:\Users\Grzybek\AppData\Local\Temp\ccXBk3wH.s 			page 144


 6368      00
 6369              	.LASF315:
 6370 092b 5F5F5553 		.ascii	"__USFRACT_MAX__ 0XFFP-8UHR\000"
 6370      46524143 
 6370      545F4D41 
 6370      585F5F20 
 6370      30584646 
 6371              	.LASF550:
 6372 0946 5F5F6E65 		.ascii	"__need_wchar_t\000"
 6372      65645F77 
 6372      63686172 
 6372      5F7400
 6373              	.LASF748:
 6374 0955 706F7274 		.ascii	"portSETUP_TCB(pxTCB) ( void ) pxTCB\000"
 6374      53455455 
 6374      505F5443 
 6374      42287078 
 6374      54434229 
 6375              	.LASF567:
 6376 0979 5F5F6C6F 		.ascii	"__lock_close_recursive(lock) (_CAST_VOID 0)\000"
 6376      636B5F63 
 6376      6C6F7365 
 6376      5F726563 
 6376      75727369 
 6377              	.LASF791:
 6378 09a5 74726163 		.ascii	"traceTASK_INCREMENT_TICK(xTickCount) \000"
 6378      65544153 
 6378      4B5F494E 
 6378      4352454D 
 6378      454E545F 
 6379              	.LASF655:
 6380 09cb 5F425344 		.ascii	"_BSD_PTRDIFF_T_ \000"
 6380      5F505452 
 6380      44494646 
 6380      5F545F20 
 6380      00
 6381              	.LASF33:
 6382 09dc 70635461 		.ascii	"pcTail\000"
 6382      696C00
 6383              	.LASF85:
 6384 09e3 474E5520 		.ascii	"GNU C 4.7.2\000"
 6384      4320342E 
 6384      372E3200 
 6385              	.LASF332:
 6386 09ef 5F5F554C 		.ascii	"__ULFRACT_FBIT__ 32\000"
 6386      46524143 
 6386      545F4642 
 6386      49545F5F 
 6386      20333200 
 6387              	.LASF643:
 6388 0a03 73747269 		.ascii	"stricmp strcasecmp\000"
 6388      636D7020 
 6388      73747263 
 6388      61736563 
 6388      6D7000
 6389              	.LASF532:
 6390 0a16 5F5F7369 		.ascii	"__size_t \000"
ARM GAS  C:\Users\Grzybek\AppData\Local\Temp\ccXBk3wH.s 			page 145


 6390      7A655F74 
 6390      2000
 6391              	.LASF407:
 6392 0a20 5F5F4841 		.ascii	"__HA_FBIT__ 7\000"
 6392      5F464249 
 6392      545F5F20 
 6392      3700
 6393              	.LASF123:
 6394 0a2e 5F5F5354 		.ascii	"__STDC_VERSION__ 199901L\000"
 6394      44435F56 
 6394      45525349 
 6394      4F4E5F5F 
 6394      20313939 
 6395              	.LASF795:
 6396 0a47 74726163 		.ascii	"traceTIMER_EXPIRED(pxTimer) \000"
 6396      6554494D 
 6396      45525F45 
 6396      58504952 
 6396      45442870 
 6397              	.LASF35:
 6398 0a64 70635265 		.ascii	"pcReadFrom\000"
 6398      61644672 
 6398      6F6D00
 6399              	.LASF484:
 6400 0a6f 5F504F49 		.ascii	"_POINTER_INT long\000"
 6400      4E544552 
 6400      5F494E54 
 6400      206C6F6E 
 6400      6700
 6401              	.LASF311:
 6402 0a81 5F5F5346 		.ascii	"__SFRACT_EPSILON__ 0x1P-7HR\000"
 6402      52414354 
 6402      5F455053 
 6402      494C4F4E 
 6402      5F5F2030 
 6403              	.LASF521:
 6404 0a9d 5F545F53 		.ascii	"_T_SIZE \000"
 6404      495A4520 
 6404      00
 6405              	.LASF261:
 6406 0aa6 5F5F4442 		.ascii	"__DBL_MIN_10_EXP__ (-307)\000"
 6406      4C5F4D49 
 6406      4E5F3130 
 6406      5F455850 
 6406      5F5F2028 
 6407              	.LASF401:
 6408 0ac0 5F5F5553 		.ascii	"__USQ_FBIT__ 32\000"
 6408      515F4642 
 6408      49545F5F 
 6408      20333200 
 6409              	.LASF149:
 6410 0ad0 5F5F4F52 		.ascii	"__ORDER_BIG_ENDIAN__ 4321\000"
 6410      4445525F 
 6410      4249475F 
 6410      454E4449 
 6410      414E5F5F 
 6411              	.LASF391:
ARM GAS  C:\Users\Grzybek\AppData\Local\Temp\ccXBk3wH.s 			page 146


 6412 0aea 5F5F5351 		.ascii	"__SQ_FBIT__ 31\000"
 6412      5F464249 
 6412      545F5F20 
 6412      333100
 6413              	.LASF74:
 6414 0af9 75785265 		.ascii	"uxReturn\000"
 6414      7475726E 
 6414      00
 6415              	.LASF434:
 6416 0b02 5F5F4743 		.ascii	"__GCC_ATOMIC_CHAR32_T_LOCK_FREE 2\000"
 6416      435F4154 
 6416      4F4D4943 
 6416      5F434841 
 6416      5233325F 
 6417              	.LASF585:
 6418 0b24 5F52414E 		.ascii	"_RAND48_MULT_2 (0x0005)\000"
 6418      4434385F 
 6418      4D554C54 
 6418      5F322028 
 6418      30783030 
 6419              	.LASF14:
 6420 0b3c 70784E65 		.ascii	"pxNext\000"
 6420      787400
 6421              	.LASF469:
 6422 0b43 5041434B 		.ascii	"PACK_STRUCT_END __attribute((packed))\000"
 6422      5F535452 
 6422      5543545F 
 6422      454E4420 
 6422      5F5F6174 
 6423              	.LASF801:
 6424 0b69 706F7274 		.ascii	"portYIELD_WITHIN_API portYIELD\000"
 6424      5949454C 
 6424      445F5749 
 6424      5448494E 
 6424      5F415049 
 6425              	.LASF399:
 6426 0b88 5F5F5548 		.ascii	"__UHQ_FBIT__ 16\000"
 6426      515F4642 
 6426      49545F5F 
 6426      20313600 
 6427              	.LASF587:
 6428 0b98 5F524545 		.ascii	"_REENT_EMERGENCY_SIZE 25\000"
 6428      4E545F45 
 6428      4D455247 
 6428      454E4359 
 6428      5F53495A 
 6429              	.LASF663:
 6430 0bb1 70645452 		.ascii	"pdTRUE ( 1 )\000"
 6430      55452028 
 6430      20312029 
 6430      00
 6431              	.LASF404:
 6432 0bbe 5F5F5544 		.ascii	"__UDQ_IBIT__ 0\000"
 6432      515F4942 
 6432      49545F5F 
 6432      203000
 6433              	.LASF49:
ARM GAS  C:\Users\Grzybek\AppData\Local\Temp\ccXBk3wH.s 			page 147


 6434 0bcd 75785175 		.ascii	"uxQueueLength\000"
 6434      6575654C 
 6434      656E6774 
 6434      6800
 6435              	.LASF291:
 6436 0bdb 5F5F4445 		.ascii	"__DEC32_EPSILON__ 1E-6DF\000"
 6436      4333325F 
 6436      45505349 
 6436      4C4F4E5F 
 6436      5F203145 
 6437              	.LASF659:
 6438 0bf4 4E554C4C 		.ascii	"NULL\000"
 6438      00
 6439              	.LASF368:
 6440 0bf9 5F5F4C41 		.ascii	"__LACCUM_IBIT__ 32\000"
 6440      4343554D 
 6440      5F494249 
 6440      545F5F20 
 6440      333200
 6441              	.LASF526:
 6442 0c0c 5F53495A 		.ascii	"_SIZE_T_DEFINED \000"
 6442      455F545F 
 6442      44454649 
 6442      4E454420 
 6442      00
 6443              	.LASF55:
 6444 0c1d 78517565 		.ascii	"xQueueGiveMutexRecursive\000"
 6444      75654769 
 6444      76654D75 
 6444      74657852 
 6444      65637572 
 6445              	.LASF690:
 6446 0c36 636F6E66 		.ascii	"configMAX_CO_ROUTINE_PRIORITIES ( 2 )\000"
 6446      69674D41 
 6446      585F434F 
 6446      5F524F55 
 6446      54494E45 
 6447              	.LASF408:
 6448 0c5c 5F5F4841 		.ascii	"__HA_IBIT__ 8\000"
 6448      5F494249 
 6448      545F5F20 
 6448      3800
 6449              	.LASF474:
 6450 0c6a 5F5F4E45 		.ascii	"__NEWLIB_H__ 1\000"
 6450      574C4942 
 6450      5F485F5F 
 6450      203100
 6451              	.LASF665:
 6452 0c79 70645041 		.ascii	"pdPASS ( 1 )\000"
 6452      53532028 
 6452      20312029 
 6452      00
 6453              	.LASF208:
 6454 0c86 5F5F494E 		.ascii	"__INT16_MAX__ 32767\000"
 6454      5431365F 
 6454      4D41585F 
 6454      5F203332 
ARM GAS  C:\Users\Grzybek\AppData\Local\Temp\ccXBk3wH.s 			page 148


 6454      37363700 
 6455              	.LASF621:
 6456 0c9a 5F524545 		.ascii	"_REENT_MBRTOWC_STATE(ptr) ((ptr)->_misc->_mbrtowc_s"
 6456      4E545F4D 
 6456      4252544F 
 6456      57435F53 
 6456      54415445 
 6457 0ccd 74617465 		.ascii	"tate)\000"
 6457      2900
 6458              	.LASF745:
 6459 0cd3 494E434C 		.ascii	"INCLUDE_xTaskGetSchedulerState 0\000"
 6459      5544455F 
 6459      78546173 
 6459      6B476574 
 6459      53636865 
 6460              	.LASF339:
 6461 0cf4 5F5F4C4C 		.ascii	"__LLFRACT_MIN__ (-0.5LLR-0.5LLR)\000"
 6461      46524143 
 6461      545F4D49 
 6461      4E5F5F20 
 6461      282D302E 
 6462              	.LASF486:
 6463 0d15 5F5F5241 		.ascii	"__RAND_MAX 0x7fffffff\000"
 6463      4E445F4D 
 6463      41582030 
 6463      78376666 
 6463      66666666 
 6464              	.LASF485:
 6465 0d2b 5F5F5241 		.ascii	"__RAND_MAX\000"
 6465      4E445F4D 
 6465      415800
 6466              	.LASF187:
 6467 0d36 5F5F494E 		.ascii	"__INTPTR_TYPE__ int\000"
 6467      54505452 
 6467      5F545950 
 6467      455F5F20 
 6467      696E7400 
 6468              	.LASF670:
 6469 0d4a 6572724E 		.ascii	"errNO_TASK_TO_RUN ( -2 )\000"
 6469      4F5F5441 
 6469      534B5F54 
 6469      4F5F5255 
 6469      4E202820 
 6470              	.LASF593:
 6471 0d63 5F524545 		.ascii	"_REENT_CHECK(var,what,type,size,init) do { struct _"
 6471      4E545F43 
 6471      4845434B 
 6471      28766172 
 6471      2C776861 
 6472 0d96 7265656E 		.ascii	"reent *_r = (var); if (_r->what == NULL) { _r->what"
 6472      74202A5F 
 6472      72203D20 
 6472      28766172 
 6472      293B2069 
 6473 0dc9 203D2028 		.ascii	" = (type)malloc(size); __reent_assert(_r->what); in"
 6473      74797065 
 6473      296D616C 
ARM GAS  C:\Users\Grzybek\AppData\Local\Temp\ccXBk3wH.s 			page 149


 6473      6C6F6328 
 6473      73697A65 
 6474 0dfc 69743B20 		.ascii	"it; } } while (0)\000"
 6474      7D207D20 
 6474      7768696C 
 6474      65202830 
 6474      2900
 6475              	.LASF290:
 6476 0e0e 5F5F4445 		.ascii	"__DEC32_MAX__ 9.999999E96DF\000"
 6476      4333325F 
 6476      4D41585F 
 6476      5F20392E 
 6476      39393939 
 6477              	.LASF324:
 6478 0e2a 5F5F5546 		.ascii	"__UFRACT_MIN__ 0.0UR\000"
 6478      52414354 
 6478      5F4D494E 
 6478      5F5F2030 
 6478      2E305552 
 6479              	.LASF285:
 6480 0e3f 5F5F4C44 		.ascii	"__LDBL_HAS_QUIET_NAN__ 1\000"
 6480      424C5F48 
 6480      41535F51 
 6480      55494554 
 6480      5F4E414E 
 6481              	.LASF497:
 6482 0e58 5F434F4E 		.ascii	"_CONST const\000"
 6482      53542063 
 6482      6F6E7374 
 6482      00
 6483              	.LASF84:
 6484 0e65 78517565 		.ascii	"xQueueIsQueueFullFromISR\000"
 6484      75654973 
 6484      51756575 
 6484      6546756C 
 6484      6C46726F 
 6485              	.LASF519:
 6486 0e7e 5F535953 		.ascii	"_SYS_SIZE_T_H \000"
 6486      5F53495A 
 6486      455F545F 
 6486      482000
 6487              	.LASF742:
 6488 0e8d 494E434C 		.ascii	"INCLUDE_xTaskResumeFromISR 1\000"
 6488      5544455F 
 6488      78546173 
 6488      6B526573 
 6488      756D6546 
 6489              	.LASF175:
 6490 0eaa 5F5F5549 		.ascii	"__UINT_LEAST8_TYPE__ unsigned char\000"
 6490      4E545F4C 
 6490      45415354 
 6490      385F5459 
 6490      50455F5F 
 6491              	.LASF81:
 6492 0ecd 70727649 		.ascii	"prvIsQueueEmpty\000"
 6492      73517565 
 6492      7565456D 
ARM GAS  C:\Users\Grzybek\AppData\Local\Temp\ccXBk3wH.s 			page 150


 6492      70747900 
 6493              	.LASF357:
 6494 0edd 5F5F4143 		.ascii	"__ACCUM_FBIT__ 15\000"
 6494      43554D5F 
 6494      46424954 
 6494      5F5F2031 
 6494      3500
 6495              	.LASF71:
 6496 0eef 70634F72 		.ascii	"pcOriginalReadPosition\000"
 6496      6967696E 
 6496      616C5265 
 6496      6164506F 
 6496      73697469 
 6497              	.LASF7:
 6498 0f06 6C6F6E67 		.ascii	"long int\000"
 6498      20696E74 
 6498      00
 6499              	.LASF238:
 6500 0f0f 5F5F5549 		.ascii	"__UINT_FAST64_MAX__ 18446744073709551615ULL\000"
 6500      4E545F46 
 6500      41535436 
 6500      345F4D41 
 6500      585F5F20 
 6501              	.LASF45:
 6502 0f3b 70785175 		.ascii	"pxQueue\000"
 6502      65756500 
 6503              	.LASF266:
 6504 0f43 5F5F4442 		.ascii	"__DBL_MIN__ ((double)2.2250738585072014e-308L)\000"
 6504      4C5F4D49 
 6504      4E5F5F20 
 6504      2828646F 
 6504      75626C65 
 6505              	.LASF738:
 6506 0f72 636F6E66 		.ascii	"configUSE_TIMERS 0\000"
 6506      69675553 
 6506      455F5449 
 6506      4D455253 
 6506      203000
 6507              	.LASF556:
 6508 0f85 5F5F5F69 		.ascii	"___int_least16_t_defined 1\000"
 6508      6E745F6C 
 6508      65617374 
 6508      31365F74 
 6508      5F646566 
 6509              	.LASF195:
 6510 0fa0 5F5F5743 		.ascii	"__WCHAR_MAX__ 4294967295U\000"
 6510      4841525F 
 6510      4D41585F 
 6510      5F203432 
 6510      39343936 
 6511              	.LASF31:
 6512 0fba 51756575 		.ascii	"QueueDefinition\000"
 6512      65446566 
 6512      696E6974 
 6512      696F6E00 
 6513              	.LASF482:
 6514 0fca 5F4C4442 		.ascii	"_LDBL_EQ_DBL 1\000"
ARM GAS  C:\Users\Grzybek\AppData\Local\Temp\ccXBk3wH.s 			page 151


 6514      4C5F4551 
 6514      5F44424C 
 6514      203100
 6515              	.LASF419:
 6516 0fd9 5F5F5544 		.ascii	"__UDA_FBIT__ 32\000"
 6516      415F4642 
 6516      49545F5F 
 6516      20333200 
 6517              	.LASF516:
 6518 0fe9 5F5F7369 		.ascii	"__size_t__ \000"
 6518      7A655F74 
 6518      5F5F2000 
 6519              	.LASF826:
 6520 0ff5 7461736B 		.ascii	"taskSCHEDULER_NOT_STARTED 0\000"
 6520      53434845 
 6520      44554C45 
 6520      525F4E4F 
 6520      545F5354 
 6521              	.LASF356:
 6522 1011 5F5F5553 		.ascii	"__USACCUM_EPSILON__ 0x1P-8UHK\000"
 6522      41434355 
 6522      4D5F4550 
 6522      53494C4F 
 6522      4E5F5F20 
 6523              	.LASF204:
 6524 102f 5F5F5549 		.ascii	"__UINTMAX_C(c) c ## ULL\000"
 6524      4E544D41 
 6524      585F4328 
 6524      63292063 
 6524      20232320 
 6525              	.LASF153:
 6526 1047 5F5F5349 		.ascii	"__SIZEOF_POINTER__ 4\000"
 6526      5A454F46 
 6526      5F504F49 
 6526      4E544552 
 6526      5F5F2034 
 6527              	.LASF171:
 6528 105c 5F5F494E 		.ascii	"__INT_LEAST8_TYPE__ signed char\000"
 6528      545F4C45 
 6528      41535438 
 6528      5F545950 
 6528      455F5F20 
 6529              	.LASF751:
 6530 107c 76517565 		.ascii	"vQueueUnregisterQueue(xQueue) \000"
 6530      7565556E 
 6530      72656769 
 6530      73746572 
 6530      51756575 
 6531              	.LASF616:
 6532 109b 5F524545 		.ascii	"_REENT_STRTOK_LAST(ptr) ((ptr)->_misc->_strtok_last"
 6532      4E545F53 
 6532      5452544F 
 6532      4B5F4C41 
 6532      53542870 
 6533 10ce 2900     		.ascii	")\000"
 6534              	.LASF674:
 6535 10d0 636F6E66 		.ascii	"configUSE_PREEMPTION 1\000"
ARM GAS  C:\Users\Grzybek\AppData\Local\Temp\ccXBk3wH.s 			page 152


 6535      69675553 
 6535      455F5052 
 6535      45454D50 
 6535      54494F4E 
 6536              	.LASF82:
 6537 10e7 70727649 		.ascii	"prvIsQueueFull\000"
 6537      73517565 
 6537      75654675 
 6537      6C6C00
 6538              	.LASF232:
 6539 10f6 5F5F494E 		.ascii	"__INT_FAST16_MAX__ 2147483647\000"
 6539      545F4641 
 6539      53543136 
 6539      5F4D4158 
 6539      5F5F2032 
 6540              	.LASF413:
 6541 1114 5F5F5441 		.ascii	"__TA_FBIT__ 63\000"
 6541      5F464249 
 6541      545F5F20 
 6541      363300
 6542              	.LASF456:
 6543 1123 5F5F5448 		.ascii	"__THUMB_INTERWORK__ 1\000"
 6543      554D425F 
 6543      494E5445 
 6543      52574F52 
 6543      4B5F5F20 
 6544              	.LASF345:
 6545 1139 5F5F554C 		.ascii	"__ULLFRACT_MAX__ 0XFFFFFFFFFFFFFFFFP-64ULLR\000"
 6545      4C465241 
 6545      43545F4D 
 6545      41585F5F 
 6545      20305846 
 6546              	.LASF207:
 6547 1165 5F5F494E 		.ascii	"__INT8_MAX__ 127\000"
 6547      54385F4D 
 6547      41585F5F 
 6547      20313237 
 6547      00
 6548              	.LASF656:
 6549 1176 5F5F5F69 		.ascii	"___int_ptrdiff_t_h \000"
 6549      6E745F70 
 6549      74726469 
 6549      66665F74 
 6549      5F682000 
 6550              	.LASF528:
 6551 118a 5F53495A 		.ascii	"_SIZE_T_DECLARED \000"
 6551      455F545F 
 6551      4445434C 
 6551      41524544 
 6551      2000
 6552              	.LASF161:
 6553 119c 5F5F4348 		.ascii	"__CHAR32_TYPE__ long unsigned int\000"
 6553      41523332 
 6553      5F545950 
 6553      455F5F20 
 6553      6C6F6E67 
 6554              	.LASF248:
ARM GAS  C:\Users\Grzybek\AppData\Local\Temp\ccXBk3wH.s 			page 153


 6555 11be 5F5F464C 		.ascii	"__FLT_MAX_EXP__ 128\000"
 6555      545F4D41 
 6555      585F4558 
 6555      505F5F20 
 6555      31323800 
 6556              	.LASF139:
 6557 11d2 5F5F5349 		.ascii	"__SIZEOF_LONG__ 4\000"
 6557      5A454F46 
 6557      5F4C4F4E 
 6557      475F5F20 
 6557      3400
 6558              	.LASF247:
 6559 11e4 5F5F464C 		.ascii	"__FLT_MIN_10_EXP__ (-37)\000"
 6559      545F4D49 
 6559      4E5F3130 
 6559      5F455850 
 6559      5F5F2028 
 6560              	.LASF668:
 6561 11fd 65727251 		.ascii	"errQUEUE_FULL ( 0 )\000"
 6561      55455545 
 6561      5F46554C 
 6561      4C202820 
 6561      30202900 
 6562              	.LASF610:
 6563 1211 5F524545 		.ascii	"_REENT_MP_RESULT_K(ptr) ((ptr)->_mp->_result_k)\000"
 6563      4E545F4D 
 6563      505F5245 
 6563      53554C54 
 6563      5F4B2870 
 6564              	.LASF792:
 6565 1241 74726163 		.ascii	"traceTIMER_CREATE(pxNewTimer) \000"
 6565      6554494D 
 6565      45525F43 
 6565      52454154 
 6565      45287078 
 6566              	.LASF143:
 6567 1260 5F5F5349 		.ascii	"__SIZEOF_DOUBLE__ 8\000"
 6567      5A454F46 
 6567      5F444F55 
 6567      424C455F 
 6567      5F203800 
 6568              	.LASF730:
 6569 1274 50524956 		.ascii	"PRIVILEGED_DATA \000"
 6569      494C4547 
 6569      45445F44 
 6569      41544120 
 6569      00
 6570              	.LASF65:
 6571 1285 78517565 		.ascii	"xQueueGenericSendFromISR\000"
 6571      75654765 
 6571      6E657269 
 6571      6353656E 
 6571      6446726F 
 6572              	.LASF606:
 6573 129e 5F524545 		.ascii	"_REENT_RAND48_SEED(ptr) ((ptr)->_r48->_seed)\000"
 6573      4E545F52 
 6573      414E4434 
ARM GAS  C:\Users\Grzybek\AppData\Local\Temp\ccXBk3wH.s 			page 154


 6573      385F5345 
 6573      45442870 
 6574              	.LASF297:
 6575 12cb 5F5F4445 		.ascii	"__DEC64_MAX__ 9.999999999999999E384DD\000"
 6575      4336345F 
 6575      4D41585F 
 6575      5F20392E 
 6575      39393939 
 6576              	.LASF821:
 6577 12f1 7461736B 		.ascii	"taskYIELD() portYIELD()\000"
 6577      5949454C 
 6577      44282920 
 6577      706F7274 
 6577      5949454C 
 6578              	.LASF672:
 6579 1309 65727251 		.ascii	"errQUEUE_YIELD ( -5 )\000"
 6579      55455545 
 6579      5F594945 
 6579      4C442028 
 6579      202D3520 
 6580              	.LASF637:
 6581 131f 45584954 		.ascii	"EXIT_SUCCESS 0\000"
 6581      5F535543 
 6581      43455353 
 6581      203000
 6582              	.LASF421:
 6583 132e 5F5F5554 		.ascii	"__UTA_FBIT__ 64\000"
 6583      415F4642 
 6583      49545F5F 
 6583      20363400 
 6584              	.LASF301:
 6585 133e 5F5F4445 		.ascii	"__DEC128_MIN_EXP__ (-6142)\000"
 6585      43313238 
 6585      5F4D494E 
 6585      5F455850 
 6585      5F5F2028 
 6586              	.LASF464:
 6587 1359 53544D33 		.ascii	"STM32F10X_HD 1\000"
 6587      32463130 
 6587      585F4844 
 6587      203100
 6588              	.LASF250:
 6589 1368 5F5F464C 		.ascii	"__FLT_DECIMAL_DIG__ 9\000"
 6589      545F4445 
 6589      43494D41 
 6589      4C5F4449 
 6589      475F5F20 
 6590              	.LASF747:
 6591 137e 706F7274 		.ascii	"portCLEAN_UP_TCB(pxTCB) ( void ) pxTCB\000"
 6591      434C4541 
 6591      4E5F5550 
 6591      5F544342 
 6591      28707854 
 6592              	.LASF788:
 6593 13a5 74726163 		.ascii	"traceTASK_SUSPEND(pxTaskToSuspend) \000"
 6593      65544153 
 6593      4B5F5355 
ARM GAS  C:\Users\Grzybek\AppData\Local\Temp\ccXBk3wH.s 			page 155


 6593      5350454E 
 6593      44287078 
 6594              	.LASF1:
 6595 13c9 7369676E 		.ascii	"signed char\000"
 6595      65642063 
 6595      68617200 
 6596              	.LASF471:
 6597 13d5 5F5F4353 		.ascii	"__CS_SOURCERYGXX_MAJ__ 2012\000"
 6597      5F534F55 
 6597      52434552 
 6597      59475858 
 6597      5F4D414A 
 6598              	.LASF425:
 6599 13f1 5F5F474E 		.ascii	"__GNUC_STDC_INLINE__ 1\000"
 6599      55435F53 
 6599      5444435F 
 6599      494E4C49 
 6599      4E455F5F 
 6600              	.LASF317:
 6601 1408 5F5F4652 		.ascii	"__FRACT_FBIT__ 15\000"
 6601      4143545F 
 6601      46424954 
 6601      5F5F2031 
 6601      3500
 6602              	.LASF381:
 6603 141a 5F5F4C4C 		.ascii	"__LLACCUM_EPSILON__ 0x1P-31LLK\000"
 6603      41434355 
 6603      4D5F4550 
 6603      53494C4F 
 6603      4E5F5F20 
 6604              	.LASF510:
 6605 1439 5F4C4F4E 		.ascii	"_LONG_LONG_TYPE long long\000"
 6605      475F4C4F 
 6605      4E475F54 
 6605      59504520 
 6605      6C6F6E67 
 6606              	.LASF582:
 6607 1453 5F52414E 		.ascii	"_RAND48_SEED_2 (0x1234)\000"
 6607      4434385F 
 6607      53454544 
 6607      5F322028 
 6607      30783132 
 6608              	.LASF804:
 6609 146b 636F6E66 		.ascii	"configPRE_SLEEP_PROCESSING(x) \000"
 6609      69675052 
 6609      455F534C 
 6609      4545505F 
 6609      50524F43 
 6610              	.LASF707:
 6611 148a 706F7274 		.ascii	"portSHORT short\000"
 6611      53484F52 
 6611      54207368 
 6611      6F727400 
 6612              	.LASF723:
 6613 149a 706F7274 		.ascii	"portTASK_FUNCTION(vFunction,pvParameters) void vFun"
 6613      5441534B 
 6613      5F46554E 
ARM GAS  C:\Users\Grzybek\AppData\Local\Temp\ccXBk3wH.s 			page 156


 6613      4354494F 
 6613      4E287646 
 6614 14cd 6374696F 		.ascii	"ction( void *pvParameters )\000"
 6614      6E282076 
 6614      6F696420 
 6614      2A707650 
 6614      6172616D 
 6615              	.LASF784:
 6616 14e9 74726163 		.ascii	"traceTASK_DELETE(pxTaskToDelete) \000"
 6616      65544153 
 6616      4B5F4445 
 6616      4C455445 
 6616      28707854 
 6617              	.LASF506:
 6618 150b 5F444546 		.ascii	"_DEFUN(name,arglist,args) name(args)\000"
 6618      554E286E 
 6618      616D652C 
 6618      6172676C 
 6618      6973742C 
 6619              	.LASF817:
 6620 1530 6C697374 		.ascii	"listLIST_ITEM_CONTAINER(pxListItem) ( ( pxListItem "
 6620      4C495354 
 6620      5F495445 
 6620      4D5F434F 
 6620      4E544149 
 6621 1563 292D3E70 		.ascii	")->pvContainer )\000"
 6621      76436F6E 
 6621      7461696E 
 6621      65722029 
 6621      00
 6622              	.LASF416:
 6623 1574 5F5F5548 		.ascii	"__UHA_IBIT__ 8\000"
 6623      415F4942 
 6623      49545F5F 
 6623      203800
 6624              	.LASF114:
 6625 1583 71756575 		.ascii	"queueDONT_BLOCK ( ( portTickType ) 0U )\000"
 6625      65444F4E 
 6625      545F424C 
 6625      4F434B20 
 6625      28202820 
 6626              	.LASF115:
 6627 15ab 71756575 		.ascii	"queueMUTEX_GIVE_BLOCK_TIME ( ( portTickType ) 0U )\000"
 6627      654D5554 
 6627      45585F47 
 6627      4956455F 
 6627      424C4F43 
 6628              	.LASF36:
 6629 15de 78546173 		.ascii	"xTasksWaitingToSend\000"
 6629      6B735761 
 6629      6974696E 
 6629      67546F53 
 6629      656E6400 
 6630              	.LASF527:
 6631 15f2 5F425344 		.ascii	"_BSD_SIZE_T_DEFINED_ \000"
 6631      5F53495A 
 6631      455F545F 
ARM GAS  C:\Users\Grzybek\AppData\Local\Temp\ccXBk3wH.s 			page 157


 6631      44454649 
 6631      4E45445F 
 6632              	.LASF557:
 6633 1608 5F5F5F69 		.ascii	"___int32_t_defined 1\000"
 6633      6E743332 
 6633      5F745F64 
 6633      6566696E 
 6633      65642031 
 6634              	.LASF185:
 6635 161d 5F5F5549 		.ascii	"__UINT_FAST32_TYPE__ unsigned int\000"
 6635      4E545F46 
 6635      41535433 
 6635      325F5459 
 6635      50455F5F 
 6636              	.LASF529:
 6637 163f 5F5F5F69 		.ascii	"___int_size_t_h \000"
 6637      6E745F73 
 6637      697A655F 
 6637      745F6820 
 6637      00
 6638              	.LASF125:
 6639 1650 5F5F5354 		.ascii	"__STDC_UTF_32__ 1\000"
 6639      44435F55 
 6639      54465F33 
 6639      325F5F20 
 6639      3100
 6640              	.LASF142:
 6641 1662 5F5F5349 		.ascii	"__SIZEOF_FLOAT__ 4\000"
 6641      5A454F46 
 6641      5F464C4F 
 6641      41545F5F 
 6641      203400
 6642              	.LASF348:
 6643 1675 5F5F5341 		.ascii	"__SACCUM_IBIT__ 8\000"
 6643      4343554D 
 6643      5F494249 
 6643      545F5F20 
 6643      3800
 6644              	.LASF249:
 6645 1687 5F5F464C 		.ascii	"__FLT_MAX_10_EXP__ 38\000"
 6645      545F4D41 
 6645      585F3130 
 6645      5F455850 
 6645      5F5F2033 
 6646              	.LASF320:
 6647 169d 5F5F4652 		.ascii	"__FRACT_MAX__ 0X7FFFP-15R\000"
 6647      4143545F 
 6647      4D41585F 
 6647      5F203058 
 6647      37464646 
 6648              	.LASF758:
 6649 16b7 74726163 		.ascii	"traceTASK_PRIORITY_DISINHERIT(pxTCBOfMutexHolder,ux"
 6649      65544153 
 6649      4B5F5052 
 6649      494F5249 
 6649      54595F44 
 6650 16ea 4F726967 		.ascii	"OriginalPriority) \000"
ARM GAS  C:\Users\Grzybek\AppData\Local\Temp\ccXBk3wH.s 			page 158


 6650      696E616C 
 6650      5072696F 
 6650      72697479 
 6650      292000
 6651              	.LASF766:
 6652 16fd 74726163 		.ascii	"traceGIVE_MUTEX_RECURSIVE(pxMutex) \000"
 6652      65474956 
 6652      455F4D55 
 6652      5445585F 
 6652      52454355 
 6653              	.LASF210:
 6654 1721 5F5F494E 		.ascii	"__INT64_MAX__ 9223372036854775807LL\000"
 6654      5436345F 
 6654      4D41585F 
 6654      5F203932 
 6654      32333337 
 6655              	.LASF132:
 6656 1745 5F5F4154 		.ascii	"__ATOMIC_SEQ_CST 5\000"
 6656      4F4D4943 
 6656      5F534551 
 6656      5F435354 
 6656      203500
 6657              	.LASF489:
 6658 1758 5F524541 		.ascii	"_READ_WRITE_RETURN_TYPE int\000"
 6658      445F5752 
 6658      4954455F 
 6658      52455455 
 6658      524E5F54 
 6659              	.LASF53:
 6660 1774 78526574 		.ascii	"xReturn\000"
 6660      75726E00 
 6661              	.LASF112:
 6662 177c 71756575 		.ascii	"queueQUEUE_IS_MUTEX NULL\000"
 6662      65515545 
 6662      55455F49 
 6662      535F4D55 
 6662      54455820 
 6663              	.LASF48:
 6664 1795 78517565 		.ascii	"xQueueGenericCreate\000"
 6664      75654765 
 6664      6E657269 
 6664      63437265 
 6664      61746500 
 6665              	.LASF235:
 6666 17a9 5F5F5549 		.ascii	"__UINT_FAST8_MAX__ 4294967295U\000"
 6666      4E545F46 
 6666      41535438 
 6666      5F4D4158 
 6666      5F5F2034 
 6667              	.LASF395:
 6668 17c8 5F5F5451 		.ascii	"__TQ_FBIT__ 127\000"
 6668      5F464249 
 6668      545F5F20 
 6668      31323700 
 6669              	.LASF481:
 6670 17d8 5F484156 		.ascii	"_HAVE_LONG_DOUBLE 1\000"
 6670      455F4C4F 
ARM GAS  C:\Users\Grzybek\AppData\Local\Temp\ccXBk3wH.s 			page 159


 6670      4E475F44 
 6670      4F55424C 
 6670      45203100 
 6671              	.LASF463:
 6672 17ec 5F5F5553 		.ascii	"__USES_INITFINI__ 1\000"
 6672      45535F49 
 6672      4E495446 
 6672      494E495F 
 6672      5F203100 
 6673              	.LASF29:
 6674 1800 7854696D 		.ascii	"xTimeOnEntering\000"
 6674      654F6E45 
 6674      6E746572 
 6674      696E6700 
 6675              	.LASF498:
 6676 1810 5F564F4C 		.ascii	"_VOLATILE volatile\000"
 6676      4154494C 
 6676      4520766F 
 6676      6C617469 
 6676      6C6500
 6677              	.LASF141:
 6678 1823 5F5F5349 		.ascii	"__SIZEOF_SHORT__ 2\000"
 6678      5A454F46 
 6678      5F53484F 
 6678      52545F5F 
 6678      203200
 6679              	.LASF382:
 6680 1836 5F5F554C 		.ascii	"__ULLACCUM_FBIT__ 32\000"
 6680      4C414343 
 6680      554D5F46 
 6680      4249545F 
 6680      5F203332 
 6681              	.LASF505:
 6682 184b 5F455846 		.ascii	"_EXFNPTR(name,proto) (* name) proto\000"
 6682      4E505452 
 6682      286E616D 
 6682      652C7072 
 6682      6F746F29 
 6683              	.LASF92:
 6684 186f 5F535953 		.ascii	"_SYS_FEATURES_H \000"
 6684      5F464541 
 6684      54555245 
 6684      535F4820 
 6684      00
 6685              	.LASF24:
 6686 1880 7078496E 		.ascii	"pxIndex\000"
 6686      64657800 
 6687              	.LASF642:
 6688 1888 73747263 		.ascii	"strcmpi strcasecmp\000"
 6688      6D706920 
 6688      73747263 
 6688      61736563 
 6688      6D7000
 6689              	.LASF144:
 6690 189b 5F5F5349 		.ascii	"__SIZEOF_LONG_DOUBLE__ 8\000"
 6690      5A454F46 
 6690      5F4C4F4E 
ARM GAS  C:\Users\Grzybek\AppData\Local\Temp\ccXBk3wH.s 			page 160


 6690      475F444F 
 6690      55424C45 
 6691              	.LASF54:
 6692 18b4 78517565 		.ascii	"xQueueCreateMutex\000"
 6692      75654372 
 6692      65617465 
 6692      4D757465 
 6692      7800
 6693              	.LASF443:
 6694 18c6 5F5F5052 		.ascii	"__PRAGMA_REDEFINE_EXTNAME 1\000"
 6694      41474D41 
 6694      5F524544 
 6694      4546494E 
 6694      455F4558 
 6695              	.LASF156:
 6696 18e2 5F5F5743 		.ascii	"__WCHAR_TYPE__ unsigned int\000"
 6696      4841525F 
 6696      54595045 
 6696      5F5F2075 
 6696      6E736967 
 6697              	.LASF604:
 6698 18fe 5F524545 		.ascii	"_REENT_SIGNGAM(ptr) ((ptr)->_gamma_signgam)\000"
 6698      4E545F53 
 6698      49474E47 
 6698      414D2870 
 6698      74722920 
 6699              	.LASF101:
 6700 192a 504F5254 		.ascii	"PORTABLE_H \000"
 6700      41424C45 
 6700      5F482000 
 6701              	.LASF10:
 6702 1936 63686172 		.ascii	"char\000"
 6702      00
 6703              	.LASF418:
 6704 193b 5F5F5553 		.ascii	"__USA_IBIT__ 16\000"
 6704      415F4942 
 6704      49545F5F 
 6704      20313600 
 6705              	.LASF429:
 6706 194b 5F5F4743 		.ascii	"__GCC_HAVE_SYNC_COMPARE_AND_SWAP_2 1\000"
 6706      435F4841 
 6706      56455F53 
 6706      594E435F 
 6706      434F4D50 
 6707              	.LASF83:
 6708 1970 76517565 		.ascii	"vQueueDelete\000"
 6708      75654465 
 6708      6C657465 
 6708      00
 6709              	.LASF189:
 6710 197d 5F5F4758 		.ascii	"__GXX_ABI_VERSION 1002\000"
 6710      585F4142 
 6710      495F5645 
 6710      5253494F 
 6710      4E203130 
 6711              	.LASF186:
 6712 1994 5F5F5549 		.ascii	"__UINT_FAST64_TYPE__ long long unsigned int\000"
ARM GAS  C:\Users\Grzybek\AppData\Local\Temp\ccXBk3wH.s 			page 161


 6712      4E545F46 
 6712      41535436 
 6712      345F5459 
 6712      50455F5F 
 6713              	.LASF20:
 6714 19c0 784D494E 		.ascii	"xMINI_LIST_ITEM\000"
 6714      495F4C49 
 6714      53545F49 
 6714      54454D00 
 6715              	.LASF727:
 6716 19d0 706F7274 		.ascii	"portNUM_CONFIGURABLE_REGIONS 1\000"
 6716      4E554D5F 
 6716      434F4E46 
 6716      49475552 
 6716      41424C45 
 6717              	.LASF574:
 6718 19ef 5F57494E 		.ascii	"_WINT_T \000"
 6718      545F5420 
 6718      00
 6719              	.LASF252:
 6720 19f8 5F5F464C 		.ascii	"__FLT_MIN__ 1.1754943508222875e-38F\000"
 6720      545F4D49 
 6720      4E5F5F20 
 6720      312E3137 
 6720      35343934 
 6721              	.LASF514:
 6722 1a1c 5F5F6E65 		.ascii	"__need_size_t \000"
 6722      65645F73 
 6722      697A655F 
 6722      742000
 6723              	.LASF110:
 6724 1a2b 75785175 		.ascii	"uxQueueType pcHead\000"
 6724      65756554 
 6724      79706520 
 6724      70634865 
 6724      616400
 6725              	.LASF439:
 6726 1a3e 5F5F4743 		.ascii	"__GCC_ATOMIC_LLONG_LOCK_FREE 1\000"
 6726      435F4154 
 6726      4F4D4943 
 6726      5F4C4C4F 
 6726      4E475F4C 
 6727              	.LASF570:
 6728 1a5d 5F5F6C6F 		.ascii	"__lock_try_acquire(lock) (_CAST_VOID 0)\000"
 6728      636B5F74 
 6728      72795F61 
 6728      63717569 
 6728      7265286C 
 6729              	.LASF287:
 6730 1a85 5F5F4445 		.ascii	"__DEC32_MIN_EXP__ (-94)\000"
 6730      4333325F 
 6730      4D494E5F 
 6730      4558505F 
 6730      5F20282D 
 6731              	.LASF313:
 6732 1a9d 5F5F5553 		.ascii	"__USFRACT_IBIT__ 0\000"
 6732      46524143 
ARM GAS  C:\Users\Grzybek\AppData\Local\Temp\ccXBk3wH.s 			page 162


 6732      545F4942 
 6732      49545F5F 
 6732      203000
 6733              	.LASF220:
 6734 1ab0 5F5F494E 		.ascii	"__INT32_C(c) c ## L\000"
 6734      5433325F 
 6734      43286329 
 6734      20632023 
 6734      23204C00 
 6735              	.LASF281:
 6736 1ac4 5F5F4C44 		.ascii	"__LDBL_EPSILON__ 2.2204460492503131e-16L\000"
 6736      424C5F45 
 6736      5053494C 
 6736      4F4E5F5F 
 6736      20322E32 
 6737              	.LASF627:
 6738 1aed 5F524545 		.ascii	"_REENT_SIGNAL_BUF(ptr) ((ptr)->_signal_buf)\000"
 6738      4E545F53 
 6738      49474E41 
 6738      4C5F4255 
 6738      46287074 
 6739              	.LASF470:
 6740 1b19 414C4947 		.ascii	"ALIGN_STRUCT_END __attribute((aligned(4)))\000"
 6740      4E5F5354 
 6740      52554354 
 6740      5F454E44 
 6740      205F5F61 
 6741              	.LASF314:
 6742 1b44 5F5F5553 		.ascii	"__USFRACT_MIN__ 0.0UHR\000"
 6742      46524143 
 6742      545F4D49 
 6742      4E5F5F20 
 6742      302E3055 
 6743              	.LASF799:
 6744 1b5b 636F6E66 		.ascii	"configUSE_MALLOC_FAILED_HOOK 0\000"
 6744      69675553 
 6744      455F4D41 
 6744      4C4C4F43 
 6744      5F464149 
 6745              	.LASF615:
 6746 1b7a 5F524545 		.ascii	"_REENT_EMERGENCY(ptr) ((ptr)->_emergency)\000"
 6746      4E545F45 
 6746      4D455247 
 6746      454E4359 
 6746      28707472 
 6747              	.LASF634:
 6748 1ba4 616C6C6F 		.ascii	"alloca(size) __builtin_alloca(size)\000"
 6748      63612873 
 6748      697A6529 
 6748      205F5F62 
 6748      75696C74 
 6749              	.LASF555:
 6750 1bc8 5F5F5F69 		.ascii	"___int16_t_defined 1\000"
 6750      6E743136 
 6750      5F745F64 
 6750      6566696E 
 6750      65642031 
ARM GAS  C:\Users\Grzybek\AppData\Local\Temp\ccXBk3wH.s 			page 163


 6751              	.LASF630:
 6752 1bdd 5F524545 		.ascii	"_REENT _impure_ptr\000"
 6752      4E54205F 
 6752      696D7075 
 6752      72655F70 
 6752      747200
 6753              	.LASF276:
 6754 1bf0 5F5F4C44 		.ascii	"__LDBL_MAX_EXP__ 1024\000"
 6754      424C5F4D 
 6754      41585F45 
 6754      58505F5F 
 6754      20313032 
 6755              	.LASF763:
 6756 1c06 74726163 		.ascii	"traceQUEUE_CREATE_FAILED(ucQueueType) \000"
 6756      65515545 
 6756      55455F43 
 6756      52454154 
 6756      455F4641 
 6757              	.LASF737:
 6758 1c2d 494E434C 		.ascii	"INCLUDE_eTaskStateGet 0\000"
 6758      5544455F 
 6758      65546173 
 6758      6B537461 
 6758      74654765 
 6759              	.LASF761:
 6760 1c45 74726163 		.ascii	"traceMOVED_TASK_TO_READY_STATE(pxTCB) \000"
 6760      654D4F56 
 6760      45445F54 
 6760      41534B5F 
 6760      544F5F52 
 6761              	.LASF808:
 6762 1c6c 6C697374 		.ascii	"listGET_LIST_ITEM_OWNER(pxListItem) ( pxListItem )-"
 6762      4745545F 
 6762      4C495354 
 6762      5F495445 
 6762      4D5F4F57 
 6763 1c9f 3E70764F 		.ascii	">pvOwner\000"
 6763      776E6572 
 6763      00
 6764              	.LASF478:
 6765 1ca8 5F4D425F 		.ascii	"_MB_LEN_MAX 1\000"
 6765      4C454E5F 
 6765      4D415820 
 6765      3100
 6766              	.LASF411:
 6767 1cb6 5F5F4441 		.ascii	"__DA_FBIT__ 31\000"
 6767      5F464249 
 6767      545F5F20 
 6767      333100
 6768              	.LASF17:
 6769 1cc5 7076436F 		.ascii	"pvContainer\000"
 6769      6E746169 
 6769      6E657200 
 6770              	.LASF499:
 6771 1cd1 5F534947 		.ascii	"_SIGNED signed\000"
 6771      4E454420 
 6771      7369676E 
ARM GAS  C:\Users\Grzybek\AppData\Local\Temp\ccXBk3wH.s 			page 164


 6771      656400
 6772              	.LASF254:
 6773 1ce0 5F5F464C 		.ascii	"__FLT_DENORM_MIN__ 1.4012984643248171e-45F\000"
 6773      545F4445 
 6773      4E4F524D 
 6773      5F4D494E 
 6773      5F5F2031 
 6774              	.LASF279:
 6775 1d0b 5F5F4C44 		.ascii	"__LDBL_MAX__ 1.7976931348623157e+308L\000"
 6775      424C5F4D 
 6775      41585F5F 
 6775      20312E37 
 6775      39373639 
 6776              	.LASF79:
 6777 1d31 70727655 		.ascii	"prvUnlockQueue\000"
 6777      6E6C6F63 
 6777      6B517565 
 6777      756500
 6778              	.LASF217:
 6779 1d40 5F5F494E 		.ascii	"__INT_LEAST16_MAX__ 32767\000"
 6779      545F4C45 
 6779      41535431 
 6779      365F4D41 
 6779      585F5F20 
 6780              	.LASF386:
 6781 1d5a 5F5F554C 		.ascii	"__ULLACCUM_EPSILON__ 0x1P-32ULLK\000"
 6781      4C414343 
 6781      554D5F45 
 6781      5053494C 
 6781      4F4E5F5F 
 6782              	.LASF822:
 6783 1d7b 7461736B 		.ascii	"taskENTER_CRITICAL() portENTER_CRITICAL()\000"
 6783      454E5445 
 6783      525F4352 
 6783      49544943 
 6783      414C2829 
 6784              	.LASF492:
 6785 1da5 5F454E44 		.ascii	"_END_STD_C \000"
 6785      5F535444 
 6785      5F432000 
 6786              	.LASF436:
 6787 1db1 5F5F4743 		.ascii	"__GCC_ATOMIC_SHORT_LOCK_FREE 2\000"
 6787      435F4154 
 6787      4F4D4943 
 6787      5F53484F 
 6787      52545F4C 
 6788              	.LASF228:
 6789 1dd0 5F5F5549 		.ascii	"__UINT32_C(c) c ## UL\000"
 6789      4E543332 
 6789      5F432863 
 6789      29206320 
 6789      23232055 
 6790              	.LASF696:
 6791 1de6 494E434C 		.ascii	"INCLUDE_vTaskDelayUntil 1\000"
 6791      5544455F 
 6791      76546173 
 6791      6B44656C 
ARM GAS  C:\Users\Grzybek\AppData\Local\Temp\ccXBk3wH.s 			page 165


 6791      6179556E 
 6792              	.LASF16:
 6793 1e00 70764F77 		.ascii	"pvOwner\000"
 6793      6E657200 
 6794              	.LASF618:
 6795 1e08 5F524545 		.ascii	"_REENT_MBTOWC_STATE(ptr) ((ptr)->_misc->_mbtowc_sta"
 6795      4E545F4D 
 6795      42544F57 
 6795      435F5354 
 6795      41544528 
 6796 1e3b 74652900 		.ascii	"te)\000"
 6797              	.LASF253:
 6798 1e3f 5F5F464C 		.ascii	"__FLT_EPSILON__ 1.1920928955078125e-7F\000"
 6798      545F4550 
 6798      53494C4F 
 6798      4E5F5F20 
 6798      312E3139 
 6799              	.LASF466:
 6800 1e66 56454354 		.ascii	"VECT_TAB_FLASH 1\000"
 6800      5F544142 
 6800      5F464C41 
 6800      53482031 
 6800      00
 6801              	.LASF566:
 6802 1e77 5F5F6C6F 		.ascii	"__lock_close(lock) (_CAST_VOID 0)\000"
 6802      636B5F63 
 6802      6C6F7365 
 6802      286C6F63 
 6802      6B292028 
 6803              	.LASF789:
 6804 1e99 74726163 		.ascii	"traceTASK_RESUME(pxTaskToResume) \000"
 6804      65544153 
 6804      4B5F5245 
 6804      53554D45 
 6804      28707854 
 6805              	.LASF455:
 6806 1ebb 5F5F5646 		.ascii	"__VFP_FP__ 1\000"
 6806      505F4650 
 6806      5F5F2031 
 6806      00
 6807              	.LASF167:
 6808 1ec8 5F5F5549 		.ascii	"__UINT8_TYPE__ unsigned char\000"
 6808      4E54385F 
 6808      54595045 
 6808      5F5F2075 
 6808      6E736967 
 6809              	.LASF109:
 6810 1ee5 70784D75 		.ascii	"pxMutexHolder pcTail\000"
 6810      74657848 
 6810      6F6C6465 
 6810      72207063 
 6810      5461696C 
 6811              	.LASF352:
 6812 1efa 5F5F5553 		.ascii	"__USACCUM_FBIT__ 8\000"
 6812      41434355 
 6812      4D5F4642 
 6812      49545F5F 
ARM GAS  C:\Users\Grzybek\AppData\Local\Temp\ccXBk3wH.s 			page 166


 6812      203800
 6813              	.LASF440:
 6814 1f0d 5F5F4743 		.ascii	"__GCC_ATOMIC_TEST_AND_SET_TRUEVAL 1\000"
 6814      435F4154 
 6814      4F4D4943 
 6814      5F544553 
 6814      545F414E 
 6815              	.LASF105:
 6816 1f31 71756575 		.ascii	"queueLOCKED_UNMODIFIED ( ( signed portBASE_TYPE ) 0"
 6816      654C4F43 
 6816      4B45445F 
 6816      554E4D4F 
 6816      44494649 
 6817 1f64 202900   		.ascii	" )\000"
 6818              	.LASF94:
 6819 1f67 5F535953 		.ascii	"_SYS__TYPES_H \000"
 6819      5F5F5459 
 6819      5045535F 
 6819      482000
 6820              	.LASF576:
 6821 1f76 5F4E554C 		.ascii	"_NULL 0\000"
 6821      4C203000 
 6822              	.LASF190:
 6823 1f7e 5F5F5343 		.ascii	"__SCHAR_MAX__ 127\000"
 6823      4841525F 
 6823      4D41585F 
 6823      5F203132 
 6823      3700
 6824              	.LASF632:
 6825 1f90 5F4E4557 		.ascii	"_NEWLIB_ALLOCA_H \000"
 6825      4C49425F 
 6825      414C4C4F 
 6825      43415F48 
 6825      2000
 6826              	.LASF284:
 6827 1fa2 5F5F4C44 		.ascii	"__LDBL_HAS_INFINITY__ 1\000"
 6827      424C5F48 
 6827      41535F49 
 6827      4E46494E 
 6827      4954595F 
 6828              	.LASF673:
 6829 1fba 46524545 		.ascii	"FREERTOS_CONFIG_H \000"
 6829      52544F53 
 6829      5F434F4E 
 6829      4649475F 
 6829      482000
 6830              	.LASF406:
 6831 1fcd 5F5F5554 		.ascii	"__UTQ_IBIT__ 0\000"
 6831      515F4942 
 6831      49545F5F 
 6831      203000
 6832              	.LASF86:
 6833 1fdc 536F7572 		.ascii	"Source/queue.c\000"
 6833      63652F71 
 6833      75657565 
 6833      2E6300
 6834              	.LASF598:
ARM GAS  C:\Users\Grzybek\AppData\Local\Temp\ccXBk3wH.s 			page 167


 6835 1feb 5F524545 		.ascii	"_REENT_INIT_MP(var) do { struct _reent *_r = (var);"
 6835      4E545F49 
 6835      4E49545F 
 6835      4D502876 
 6835      61722920 
 6836 201e 205F722D 		.ascii	" _r->_mp->_result_k = 0; _r->_mp->_result = _r->_mp"
 6836      3E5F6D70 
 6836      2D3E5F72 
 6836      6573756C 
 6836      745F6B20 
 6837 2051 2D3E5F70 		.ascii	"->_p5s = _NULL; _r->_mp->_freelist = _NULL; } while"
 6837      3573203D 
 6837      205F4E55 
 6837      4C4C3B20 
 6837      5F722D3E 
 6838 2084 20283029 		.ascii	" (0)\000"
 6838      00
 6839              	.LASF699:
 6840 2089 636F6E66 		.ascii	"configKERNEL_INTERRUPT_PRIORITY 255\000"
 6840      69674B45 
 6840      524E454C 
 6840      5F494E54 
 6840      45525255 
 6841              	.LASF458:
 6842 20ad 5F5F4152 		.ascii	"__ARM_PCS 1\000"
 6842      4D5F5043 
 6842      53203100 
 6843              	.LASF669:
 6844 20b9 65727243 		.ascii	"errCOULD_NOT_ALLOCATE_REQUIRED_MEMORY ( -1 )\000"
 6844      4F554C44 
 6844      5F4E4F54 
 6844      5F414C4C 
 6844      4F434154 
 6845              	.LASF32:
 6846 20e6 70634865 		.ascii	"pcHead\000"
 6846      616400
 6847              	.LASF206:
 6848 20ed 5F5F5349 		.ascii	"__SIG_ATOMIC_MIN__ (-__SIG_ATOMIC_MAX__ - 1)\000"
 6848      475F4154 
 6848      4F4D4943 
 6848      5F4D494E 
 6848      5F5F2028 
 6849              	.LASF364:
 6850 211a 5F5F5541 		.ascii	"__UACCUM_MIN__ 0.0UK\000"
 6850      4343554D 
 6850      5F4D494E 
 6850      5F5F2030 
 6850      2E30554B 
 6851              	.LASF121:
 6852 212f 7072764C 		.ascii	"prvLockQueue(pxQueue) taskENTER_CRITICAL(); { if( ("
 6852      6F636B51 
 6852      75657565 
 6852      28707851 
 6852      75657565 
 6853 2162 20707851 		.ascii	" pxQueue )->xRxLock == queueUNLOCKED ) { ( pxQueue "
 6853      75657565 
 6853      20292D3E 
ARM GAS  C:\Users\Grzybek\AppData\Local\Temp\ccXBk3wH.s 			page 168


 6853      7852784C 
 6853      6F636B20 
 6854 2195 292D3E78 		.ascii	")->xRxLock = queueLOCKED_UNMODIFIED; } if( ( pxQueu"
 6854      52784C6F 
 6854      636B203D 
 6854      20717565 
 6854      75654C4F 
 6855 21c8 6520292D 		.ascii	"e )->xTxLock == queueUNLOCKED ) { ( pxQueue )->xTxL"
 6855      3E785478 
 6855      4C6F636B 
 6855      203D3D20 
 6855      71756575 
 6856 21fb 6F636B20 		.ascii	"ock = queueLOCKED_UNMODIFIED; } } taskEXIT_CRITICAL"
 6856      3D207175 
 6856      6575654C 
 6856      4F434B45 
 6856      445F554E 
 6857 222e 282900   		.ascii	"()\000"
 6858              	.LASF786:
 6859 2231 74726163 		.ascii	"traceTASK_DELAY() \000"
 6859      65544153 
 6859      4B5F4445 
 6859      4C415928 
 6859      292000
 6860              	.LASF611:
 6861 2244 5F524545 		.ascii	"_REENT_MP_P5S(ptr) ((ptr)->_mp->_p5s)\000"
 6861      4E545F4D 
 6861      505F5035 
 6861      53287074 
 6861      72292028 
 6862              	.LASF773:
 6863 226a 74726163 		.ascii	"traceQUEUE_SEND_FAILED(pxQueue) \000"
 6863      65515545 
 6863      55455F53 
 6863      454E445F 
 6863      4641494C 
 6864              	.LASF569:
 6865 228b 5F5F6C6F 		.ascii	"__lock_acquire_recursive(lock) (_CAST_VOID 0)\000"
 6865      636B5F61 
 6865      63717569 
 6865      72655F72 
 6865      65637572 
 6866              	.LASF829:
 6867 22b9 78546173 		.ascii	"xTaskCreate(pvTaskCode,pcName,usStackDepth,pvParame"
 6867      6B437265 
 6867      61746528 
 6867      70765461 
 6867      736B436F 
 6868 22ec 74657273 		.ascii	"ters,uxPriority,pxCreatedTask) xTaskGenericCreate( "
 6868      2C757850 
 6868      72696F72 
 6868      6974792C 
 6868      70784372 
 6869 231f 28207076 		.ascii	"( pvTaskCode ), ( pcName ), ( usStackDepth ), ( pvP"
 6869      5461736B 
 6869      436F6465 
 6869      20292C20 
ARM GAS  C:\Users\Grzybek\AppData\Local\Temp\ccXBk3wH.s 			page 169


 6869      28207063 
 6870 2352 6172616D 		.ascii	"arameters ), ( uxPriority ), ( pxCreatedTask ), ( N"
 6870      65746572 
 6870      7320292C 
 6870      20282075 
 6870      78507269 
 6871 2385 554C4C20 		.ascii	"ULL ), ( NULL ) )\000"
 6871      292C2028 
 6871      204E554C 
 6871      4C202920 
 6871      2900
 6872              	.LASF680:
 6873 2397 636F6E66 		.ascii	"configMINIMAL_STACK_SIZE ( ( unsigned portSHORT ) 1"
 6873      69674D49 
 6873      4E494D41 
 6873      4C5F5354 
 6873      41434B5F 
 6874 23ca 32382029 		.ascii	"28 )\000"
 6874      00
 6875              	.LASF269:
 6876 23cf 5F5F4442 		.ascii	"__DBL_HAS_DENORM__ 1\000"
 6876      4C5F4841 
 6876      535F4445 
 6876      4E4F524D 
 6876      5F5F2031 
 6877              	.LASF613:
 6878 23e4 5F524545 		.ascii	"_REENT_ASCTIME_BUF(ptr) ((ptr)->_asctime_buf)\000"
 6878      4E545F41 
 6878      53435449 
 6878      4D455F42 
 6878      55462870 
 6879              	.LASF693:
 6880 2412 494E434C 		.ascii	"INCLUDE_vTaskDelete 1\000"
 6880      5544455F 
 6880      76546173 
 6880      6B44656C 
 6880      65746520 
 6881              	.LASF812:
 6882 2428 6C697374 		.ascii	"listLIST_IS_EMPTY(pxList) ( ( pxList )->uxNumberOfI"
 6882      4C495354 
 6882      5F49535F 
 6882      454D5054 
 6882      59287078 
 6883 245b 74656D73 		.ascii	"tems == ( unsigned portBASE_TYPE ) 0 )\000"
 6883      203D3D20 
 6883      2820756E 
 6883      7369676E 
 6883      65642070 
 6884              	.LASF662:
 6885 2482 50524F4A 		.ascii	"PROJDEFS_H \000"
 6885      44454653 
 6885      5F482000 
 6886              	.LASF299:
 6887 248e 5F5F4445 		.ascii	"__DEC64_SUBNORMAL_MIN__ 0.000000000000001E-383DD\000"
 6887      4336345F 
 6887      5355424E 
 6887      4F524D41 
ARM GAS  C:\Users\Grzybek\AppData\Local\Temp\ccXBk3wH.s 			page 170


 6887      4C5F4D49 
 6888              	.LASF316:
 6889 24bf 5F5F5553 		.ascii	"__USFRACT_EPSILON__ 0x1P-8UHR\000"
 6889      46524143 
 6889      545F4550 
 6889      53494C4F 
 6889      4E5F5F20 
 6890              	.LASF660:
 6891 24dd 4E554C4C 		.ascii	"NULL ((void *)0)\000"
 6891      20282876 
 6891      6F696420 
 6891      2A293029 
 6891      00
 6892              	.LASF4:
 6893 24ee 73686F72 		.ascii	"short unsigned int\000"
 6893      7420756E 
 6893      7369676E 
 6893      65642069 
 6893      6E7400
 6894              	.LASF234:
 6895 2501 5F5F494E 		.ascii	"__INT_FAST64_MAX__ 9223372036854775807LL\000"
 6895      545F4641 
 6895      53543634 
 6895      5F4D4158 
 6895      5F5F2039 
 6896              	.LASF710:
 6897 252a 706F7274 		.ascii	"portMAX_DELAY ( portTickType ) 0xffffffff\000"
 6897      4D41585F 
 6897      44454C41 
 6897      59202820 
 6897      706F7274 
 6898              	.LASF312:
 6899 2554 5F5F5553 		.ascii	"__USFRACT_FBIT__ 8\000"
 6899      46524143 
 6899      545F4642 
 6899      49545F5F 
 6899      203800
 6900              	.LASF380:
 6901 2567 5F5F4C4C 		.ascii	"__LLACCUM_MAX__ 0X7FFFFFFFFFFFFFFFP-31LLK\000"
 6901      41434355 
 6901      4D5F4D41 
 6901      585F5F20 
 6901      30583746 
 6902              	.LASF551:
 6903 2591 5F5F6E65 		.ascii	"__need_NULL\000"
 6903      65645F4E 
 6903      554C4C00 
 6904              	.LASF724:
 6905 259d 706F7274 		.ascii	"portSUPPRESS_TICKS_AND_SLEEP(xExpectedIdleTime) vPo"
 6905      53555050 
 6905      52455353 
 6905      5F544943 
 6905      4B535F41 
 6906 25d0 72745375 		.ascii	"rtSuppressTicksAndSleep( xExpectedIdleTime )\000"
 6906      70707265 
 6906      73735469 
 6906      636B7341 
ARM GAS  C:\Users\Grzybek\AppData\Local\Temp\ccXBk3wH.s 			page 171


 6906      6E64536C 
 6907              	.LASF41:
 6908 25fd 7852784C 		.ascii	"xRxLock\000"
 6908      6F636B00 
 6909              	.LASF676:
 6910 2605 636F6E66 		.ascii	"configUSE_TICK_HOOK 0\000"
 6910      69675553 
 6910      455F5449 
 6910      434B5F48 
 6910      4F4F4B20 
 6911              	.LASF687:
 6912 261b 636F6E66 		.ascii	"configCHECK_FOR_STACK_OVERFLOW 2\000"
 6912      69674348 
 6912      45434B5F 
 6912      464F525F 
 6912      53544143 
 6913              	.LASF675:
 6914 263c 636F6E66 		.ascii	"configUSE_IDLE_HOOK 0\000"
 6914      69675553 
 6914      455F4944 
 6914      4C455F48 
 6914      4F4F4B20 
 6915              	.LASF441:
 6916 2652 5F5F4743 		.ascii	"__GCC_ATOMIC_POINTER_LOCK_FREE 2\000"
 6916      435F4154 
 6916      4F4D4943 
 6916      5F504F49 
 6916      4E544552 
 6917              	.LASF133:
 6918 2673 5F5F4154 		.ascii	"__ATOMIC_ACQUIRE 2\000"
 6918      4F4D4943 
 6918      5F414351 
 6918      55495245 
 6918      203200
 6919              	.LASF720:
 6920 2686 706F7274 		.ascii	"portENTER_CRITICAL() vPortEnterCritical()\000"
 6920      454E5445 
 6920      525F4352 
 6920      49544943 
 6920      414C2829 
 6921              	.LASF59:
 6922 26b0 78517565 		.ascii	"xQueueGenericSend\000"
 6922      75654765 
 6922      6E657269 
 6922      6353656E 
 6922      6400
 6923              	.LASF814:
 6924 26c2 6C697374 		.ascii	"listGET_OWNER_OF_NEXT_ENTRY(pxTCB,pxList) { xList *"
 6924      4745545F 
 6924      4F574E45 
 6924      525F4F46 
 6924      5F4E4558 
 6925 26f5 20636F6E 		.ascii	" const pxConstList = ( pxList ); ( pxConstList )->p"
 6925      73742070 
 6925      78436F6E 
 6925      73744C69 
 6925      7374203D 
ARM GAS  C:\Users\Grzybek\AppData\Local\Temp\ccXBk3wH.s 			page 172


 6926 2728 78496E64 		.ascii	"xIndex = ( pxConstList )->pxIndex->pxNext; if( ( px"
 6926      6578203D 
 6926      20282070 
 6926      78436F6E 
 6926      73744C69 
 6927 275b 436F6E73 		.ascii	"ConstList )->pxIndex == ( xListItem * ) &( ( pxCons"
 6927      744C6973 
 6927      7420292D 
 6927      3E707849 
 6927      6E646578 
 6928 278e 744C6973 		.ascii	"tList )->xListEnd ) ) { ( pxConstList )->pxIndex = "
 6928      7420292D 
 6928      3E784C69 
 6928      7374456E 
 6928      64202920 
 6929 27c1 28207078 		.ascii	"( pxConstList )->pxIndex->pxNext; } ( pxTCB ) = ( p"
 6929      436F6E73 
 6929      744C6973 
 6929      7420292D 
 6929      3E707849 
 6930 27f4 78436F6E 		.ascii	"xConstList )->pxIndex->pvOwner; }\000"
 6930      73744C69 
 6930      73742029 
 6930      2D3E7078 
 6930      496E6465 
 6931              	.LASF56:
 6932 2816 70784D75 		.ascii	"pxMutex\000"
 6932      74657800 
 6933              	.LASF28:
 6934 281e 784F7665 		.ascii	"xOverflowCount\000"
 6934      72666C6F 
 6934      77436F75 
 6934      6E7400
 6935              	.LASF760:
 6936 282d 74726163 		.ascii	"traceBLOCKING_ON_QUEUE_SEND(pxQueue) \000"
 6936      65424C4F 
 6936      434B494E 
 6936      475F4F4E 
 6936      5F515545 
 6937              	.LASF785:
 6938 2853 74726163 		.ascii	"traceTASK_DELAY_UNTIL() \000"
 6938      65544153 
 6938      4B5F4445 
 6938      4C41595F 
 6938      554E5449 
 6939              	.LASF267:
 6940 286c 5F5F4442 		.ascii	"__DBL_EPSILON__ ((double)2.2204460492503131e-16L)\000"
 6940      4C5F4550 
 6940      53494C4F 
 6940      4E5F5F20 
 6940      2828646F 
 6941              	.LASF329:
 6942 289e 5F5F4C46 		.ascii	"__LFRACT_MIN__ (-0.5LR-0.5LR)\000"
 6942      52414354 
 6942      5F4D494E 
 6942      5F5F2028 
 6942      2D302E35 
ARM GAS  C:\Users\Grzybek\AppData\Local\Temp\ccXBk3wH.s 			page 173


 6943              	.LASF136:
 6944 28bc 5F5F4154 		.ascii	"__ATOMIC_CONSUME 1\000"
 6944      4F4D4943 
 6944      5F434F4E 
 6944      53554D45 
 6944      203100
 6945              	.LASF256:
 6946 28cf 5F5F464C 		.ascii	"__FLT_HAS_INFINITY__ 1\000"
 6946      545F4841 
 6946      535F494E 
 6946      46494E49 
 6946      54595F5F 
 6947              	.LASF692:
 6948 28e6 494E434C 		.ascii	"INCLUDE_uxTaskPriorityGet 1\000"
 6948      5544455F 
 6948      75785461 
 6948      736B5072 
 6948      696F7269 
 6949              	.LASF360:
 6950 2902 5F5F4143 		.ascii	"__ACCUM_MAX__ 0X7FFFFFFFP-15K\000"
 6950      43554D5F 
 6950      4D41585F 
 6950      5F203058 
 6950      37464646 
 6951              	.LASF771:
 6952 2920 74726163 		.ascii	"traceCREATE_COUNTING_SEMAPHORE_FAILED() \000"
 6952      65435245 
 6952      4154455F 
 6952      434F554E 
 6952      54494E47 
 6953              	.LASF275:
 6954 2949 5F5F4C44 		.ascii	"__LDBL_MIN_10_EXP__ (-307)\000"
 6954      424C5F4D 
 6954      494E5F31 
 6954      305F4558 
 6954      505F5F20 
 6955              	.LASF80:
 6956 2964 78517565 		.ascii	"xQueueIsQueueEmptyFromISR\000"
 6956      75654973 
 6956      51756575 
 6956      65456D70 
 6956      74794672 
 6957              	.LASF201:
 6958 297e 5F5F494E 		.ascii	"__INTMAX_MAX__ 9223372036854775807LL\000"
 6958      544D4158 
 6958      5F4D4158 
 6958      5F5F2039 
 6958      32323333 
 6959              	.LASF719:
 6960 29a3 706F7274 		.ascii	"portENABLE_INTERRUPTS() vPortClearInterruptMask(0)\000"
 6960      454E4142 
 6960      4C455F49 
 6960      4E544552 
 6960      52555054 
 6961              	.LASF781:
 6962 29d6 74726163 		.ascii	"traceQUEUE_DELETE(pxQueue) \000"
 6962      65515545 
ARM GAS  C:\Users\Grzybek\AppData\Local\Temp\ccXBk3wH.s 			page 174


 6962      55455F44 
 6962      454C4554 
 6962      45287078 
 6963              	.LASF442:
 6964 29f2 5F5F4743 		.ascii	"__GCC_HAVE_DWARF2_CFI_ASM 1\000"
 6964      435F4841 
 6964      56455F44 
 6964      57415246 
 6964      325F4346 
 6965              	.LASF554:
 6966 2a0e 5F5F5F69 		.ascii	"___int8_t_defined 1\000"
 6966      6E74385F 
 6966      745F6465 
 6966      66696E65 
 6966      64203100 
 6967              	.LASF309:
 6968 2a22 5F5F5346 		.ascii	"__SFRACT_MIN__ (-0.5HR-0.5HR)\000"
 6968      52414354 
 6968      5F4D494E 
 6968      5F5F2028 
 6968      2D302E35 
 6969              	.LASF9:
 6970 2a40 6C6F6E67 		.ascii	"long unsigned int\000"
 6970      20756E73 
 6970      69676E65 
 6970      6420696E 
 6970      7400
 6971              	.LASF410:
 6972 2a52 5F5F5341 		.ascii	"__SA_IBIT__ 16\000"
 6972      5F494249 
 6972      545F5F20 
 6972      313600
 6973              	.LASF127:
 6974 2a61 5F5F474E 		.ascii	"__GNUC__ 4\000"
 6974      55435F5F 
 6974      203400
 6975              	.LASF721:
 6976 2a6c 706F7274 		.ascii	"portEXIT_CRITICAL() vPortExitCritical()\000"
 6976      45584954 
 6976      5F435249 
 6976      54494341 
 6976      4C282920 
 6977              	.LASF622:
 6978 2a94 5F524545 		.ascii	"_REENT_MBSRTOWCS_STATE(ptr) ((ptr)->_misc->_mbsrtow"
 6978      4E545F4D 
 6978      42535254 
 6978      4F574353 
 6978      5F535441 
 6979 2ac7 63735F73 		.ascii	"cs_state)\000"
 6979      74617465 
 6979      2900
 6980              	.LASF638:
 6981 2ad1 52414E44 		.ascii	"RAND_MAX __RAND_MAX\000"
 6981      5F4D4158 
 6981      205F5F52 
 6981      414E445F 
 6981      4D415800 
ARM GAS  C:\Users\Grzybek\AppData\Local\Temp\ccXBk3wH.s 			page 175


 6982              	.LASF454:
 6983 2ae5 5F5F534F 		.ascii	"__SOFTFP__ 1\000"
 6983      46544650 
 6983      5F5F2031 
 6983      00
 6984              	.LASF614:
 6985 2af2 5F524545 		.ascii	"_REENT_TM(ptr) ((ptr)->_localtime_buf)\000"
 6985      4E545F54 
 6985      4D287074 
 6985      72292028 
 6985      28707472 
 6986              	.LASF288:
 6987 2b19 5F5F4445 		.ascii	"__DEC32_MAX_EXP__ 97\000"
 6987      4333325F 
 6987      4D41585F 
 6987      4558505F 
 6987      5F203937 
 6988              	.LASF520:
 6989 2b2e 5F545F53 		.ascii	"_T_SIZE_ \000"
 6989      495A455F 
 6989      2000
 6990              	.LASF44:
 6991 2b38 78517565 		.ascii	"xQueueHandle\000"
 6991      75654861 
 6991      6E646C65 
 6991      00
 6992              	.LASF183:
 6993 2b45 5F5F5549 		.ascii	"__UINT_FAST8_TYPE__ unsigned int\000"
 6993      4E545F46 
 6993      41535438 
 6993      5F545950 
 6993      455F5F20 
 6994              	.LASF378:
 6995 2b66 5F5F4C4C 		.ascii	"__LLACCUM_IBIT__ 32\000"
 6995      41434355 
 6995      4D5F4942 
 6995      49545F5F 
 6995      20333200 
 6996              	.LASF321:
 6997 2b7a 5F5F4652 		.ascii	"__FRACT_EPSILON__ 0x1P-15R\000"
 6997      4143545F 
 6997      45505349 
 6997      4C4F4E5F 
 6997      5F203078 
 6998              	.LASF717:
 6999 2b95 706F7274 		.ascii	"portCLEAR_INTERRUPT_MASK_FROM_ISR(x) vPortClearInte"
 6999      434C4541 
 6999      525F494E 
 6999      54455252 
 6999      5550545F 
 7000 2bc8 72727570 		.ascii	"rruptMask(x)\000"
 7000      744D6173 
 7000      6B287829 
 7000      00
 7001              	.LASF461:
 7002 2bd5 5F5F4758 		.ascii	"__GXX_TYPEINFO_EQUALITY_INLINE 0\000"
 7002      585F5459 
ARM GAS  C:\Users\Grzybek\AppData\Local\Temp\ccXBk3wH.s 			page 176


 7002      5045494E 
 7002      464F5F45 
 7002      5155414C 
 7003              	.LASF63:
 7004 2bf6 78456E74 		.ascii	"xEntryTimeSet\000"
 7004      72795469 
 7004      6D655365 
 7004      7400
 7005              	.LASF211:
 7006 2c04 5F5F5549 		.ascii	"__UINT8_MAX__ 255\000"
 7006      4E54385F 
 7006      4D41585F 
 7006      5F203235 
 7006      3500
 7007              	.LASF756:
 7008 2c16 74726163 		.ascii	"traceTASK_SWITCHED_OUT() \000"
 7008      65544153 
 7008      4B5F5357 
 7008      49544348 
 7008      45445F4F 
 7009              	.LASF590:
 7010 2c30 5F524545 		.ascii	"_REENT_INIT(var) { 0, (__FILE *)&__sf_fake_stdin, ("
 7010      4E545F49 
 7010      4E495428 
 7010      76617229 
 7010      207B2030 
 7011 2c63 5F5F4649 		.ascii	"__FILE *)&__sf_fake_stdout, (__FILE *)&__sf_fake_st"
 7011      4C45202A 
 7011      29265F5F 
 7011      73665F66 
 7011      616B655F 
 7012 2c96 64657272 		.ascii	"derr, 0, _NULL, 0, 0, \"C\", _NULL, _NULL, 0, 0, _N"
 7012      2C20302C 
 7012      205F4E55 
 7012      4C4C2C20 
 7012      302C2030 
 7013 2cc7 554C4C2C 		.ascii	"ULL, _NULL, _NULL, _NULL, _NULL, _NULL, {_NULL, 0, "
 7013      205F4E55 
 7013      4C4C2C20 
 7013      5F4E554C 
 7013      4C2C205F 
 7014 2cfa 7B5F4E55 		.ascii	"{_NULL}, _NULL}, {_NULL, 0, _NULL}, _NULL, _NULL, _"
 7014      4C4C7D2C 
 7014      205F4E55 
 7014      4C4C7D2C 
 7014      207B5F4E 
 7015 2d2d 4E554C4C 		.ascii	"NULL }\000"
 7015      207D00
 7016              	.LASF192:
 7017 2d34 5F5F494E 		.ascii	"__INT_MAX__ 2147483647\000"
 7017      545F4D41 
 7017      585F5F20 
 7017      32313437 
 7017      34383336 
 7018              	.LASF661:
 7019 2d4b 6F666673 		.ascii	"offsetof(TYPE,MEMBER) __builtin_offsetof (TYPE, MEM"
 7019      65746F66 
ARM GAS  C:\Users\Grzybek\AppData\Local\Temp\ccXBk3wH.s 			page 177


 7019      28545950 
 7019      452C4D45 
 7019      4D424552 
 7020 2d7e 42455229 		.ascii	"BER)\000"
 7020      00
 7021              	.LASF230:
 7022 2d83 5F5F5549 		.ascii	"__UINT64_C(c) c ## ULL\000"
 7022      4E543634 
 7022      5F432863 
 7022      29206320 
 7022      23232055 
 7023              	.LASF178:
 7024 2d9a 5F5F5549 		.ascii	"__UINT_LEAST64_TYPE__ long long unsigned int\000"
 7024      4E545F4C 
 7024      45415354 
 7024      36345F54 
 7024      5950455F 
 7025              	.LASF705:
 7026 2dc7 706F7274 		.ascii	"portDOUBLE double\000"
 7026      444F5542 
 7026      4C452064 
 7026      6F75626C 
 7026      6500
 7027              	.LASF433:
 7028 2dd9 5F5F4743 		.ascii	"__GCC_ATOMIC_CHAR16_T_LOCK_FREE 2\000"
 7028      435F4154 
 7028      4F4D4943 
 7028      5F434841 
 7028      5231365F 
 7029              	.LASF262:
 7030 2dfb 5F5F4442 		.ascii	"__DBL_MAX_EXP__ 1024\000"
 7030      4C5F4D41 
 7030      585F4558 
 7030      505F5F20 
 7030      31303234 
 7031              	.LASF134:
 7032 2e10 5F5F4154 		.ascii	"__ATOMIC_RELEASE 3\000"
 7032      4F4D4943 
 7032      5F52454C 
 7032      45415345 
 7032      203300
 7033              	.LASF513:
 7034 2e23 5F454C49 		.ascii	"_ELIDABLE_INLINE __inline__\000"
 7034      4441424C 
 7034      455F494E 
 7034      4C494E45 
 7034      205F5F69 
 7035              	.LASF667:
 7036 2e3f 65727251 		.ascii	"errQUEUE_EMPTY ( 0 )\000"
 7036      55455545 
 7036      5F454D50 
 7036      54592028 
 7036      20302029 
 7037              	.LASF244:
 7038 2e54 5F5F464C 		.ascii	"__FLT_MANT_DIG__ 24\000"
 7038      545F4D41 
 7038      4E545F44 
ARM GAS  C:\Users\Grzybek\AppData\Local\Temp\ccXBk3wH.s 			page 178


 7038      49475F5F 
 7038      20323400 
 7039              	.LASF828:
 7040 2e68 7461736B 		.ascii	"taskSCHEDULER_SUSPENDED 2\000"
 7040      53434845 
 7040      44554C45 
 7040      525F5355 
 7040      5350454E 
 7041              	.LASF581:
 7042 2e82 5F52414E 		.ascii	"_RAND48_SEED_1 (0xabcd)\000"
 7042      4434385F 
 7042      53454544 
 7042      5F312028 
 7042      30786162 
 7043              	.LASF367:
 7044 2e9a 5F5F4C41 		.ascii	"__LACCUM_FBIT__ 31\000"
 7044      4343554D 
 7044      5F464249 
 7044      545F5F20 
 7044      333100
 7045              	.LASF681:
 7046 2ead 636F6E66 		.ascii	"configTOTAL_HEAP_SIZE ( ( size_t ) ( 17 * 1024 ) )\000"
 7046      6967544F 
 7046      54414C5F 
 7046      48454150 
 7046      5F53495A 
 7047              	.LASF563:
 7048 2ee0 5F5F4C4F 		.ascii	"__LOCK_INIT_RECURSIVE(class,lock) static int lock ="
 7048      434B5F49 
 7048      4E49545F 
 7048      52454355 
 7048      52534956 
 7049 2f13 20303B00 		.ascii	" 0;\000"
 7050              	.LASF806:
 7051 2f17 4C495354 		.ascii	"LIST_H \000"
 7051      5F482000 
 7052              	.LASF733:
 7053 2f1f 494E434C 		.ascii	"INCLUDE_xTimerGetTimerDaemonTaskHandle 0\000"
 7053      5544455F 
 7053      7854696D 
 7053      65724765 
 7053      7454696D 
 7054              	.LASF76:
 7055 2f48 78506F73 		.ascii	"xPosition\000"
 7055      6974696F 
 7055      6E00
 7056              	.LASF651:
 7057 2f52 5F545F50 		.ascii	"_T_PTRDIFF_ \000"
 7057      54524449 
 7057      46465F20 
 7057      00
 7058              	.LASF282:
 7059 2f5f 5F5F4C44 		.ascii	"__LDBL_DENORM_MIN__ 4.9406564584124654e-324L\000"
 7059      424C5F44 
 7059      454E4F52 
 7059      4D5F4D49 
 7059      4E5F5F20 
ARM GAS  C:\Users\Grzybek\AppData\Local\Temp\ccXBk3wH.s 			page 179


 7060              	.LASF487:
 7061 2f8c 5F5F4558 		.ascii	"__EXPORT \000"
 7061      504F5254 
 7061      2000
 7062              	.LASF343:
 7063 2f96 5F5F554C 		.ascii	"__ULLFRACT_IBIT__ 0\000"
 7063      4C465241 
 7063      43545F49 
 7063      4249545F 
 7063      5F203000 
 7064              	.LASF648:
 7065 2faa 5F414E53 		.ascii	"_ANSI_STDDEF_H \000"
 7065      495F5354 
 7065      44444546 
 7065      5F482000 
 7066              	.LASF575:
 7067 2fba 5F5F6E65 		.ascii	"__need_wint_t\000"
 7067      65645F77 
 7067      696E745F 
 7067      7400
 7068              	.LASF686:
 7069 2fc8 636F6E66 		.ascii	"configUSE_MUTEXES 1\000"
 7069      69675553 
 7069      455F4D55 
 7069      54455845 
 7069      53203100 
 7070              	.LASF568:
 7071 2fdc 5F5F6C6F 		.ascii	"__lock_acquire(lock) (_CAST_VOID 0)\000"
 7071      636B5F61 
 7071      63717569 
 7071      7265286C 
 7071      6F636B29 
 7072              	.LASF623:
 7073 3000 5F524545 		.ascii	"_REENT_WCRTOMB_STATE(ptr) ((ptr)->_misc->_wcrtomb_s"
 7073      4E545F57 
 7073      4352544F 
 7073      4D425F53 
 7073      54415445 
 7074 3033 74617465 		.ascii	"tate)\000"
 7074      2900
 7075              	.LASF677:
 7076 3039 636F6E66 		.ascii	"configCPU_CLOCK_HZ ( ( unsigned portLONG ) 72000000"
 7076      69674350 
 7076      555F434C 
 7076      4F434B5F 
 7076      485A2028 
 7077 306c 202900   		.ascii	" )\000"
 7078              	.LASF803:
 7079 306f 76506F72 		.ascii	"vPortFreeAligned(pvBlockToFree) vPortFree( pvBlockT"
 7079      74467265 
 7079      65416C69 
 7079      676E6564 
 7079      28707642 
 7080 30a2 6F467265 		.ascii	"oFree )\000"
 7080      65202900 
 7081              	.LASF251:
 7082 30aa 5F5F464C 		.ascii	"__FLT_MAX__ 3.4028234663852886e+38F\000"
ARM GAS  C:\Users\Grzybek\AppData\Local\Temp\ccXBk3wH.s 			page 180


 7082      545F4D41 
 7082      585F5F20 
 7082      332E3430 
 7082      32383233 
 7083              	.LASF362:
 7084 30ce 5F5F5541 		.ascii	"__UACCUM_FBIT__ 16\000"
 7084      4343554D 
 7084      5F464249 
 7084      545F5F20 
 7084      313600
 7085              	.LASF326:
 7086 30e1 5F5F5546 		.ascii	"__UFRACT_EPSILON__ 0x1P-16UR\000"
 7086      52414354 
 7086      5F455053 
 7086      494C4F4E 
 7086      5F5F2030 
 7087              	.LASF196:
 7088 30fe 5F5F5743 		.ascii	"__WCHAR_MIN__ 0U\000"
 7088      4841525F 
 7088      4D494E5F 
 7088      5F203055 
 7088      00
 7089              	.LASF213:
 7090 310f 5F5F5549 		.ascii	"__UINT32_MAX__ 4294967295UL\000"
 7090      4E543332 
 7090      5F4D4158 
 7090      5F5F2034 
 7090      32393439 
 7091              	.LASF398:
 7092 312b 5F5F5551 		.ascii	"__UQQ_IBIT__ 0\000"
 7092      515F4942 
 7092      49545F5F 
 7092      203000
 7093              	.LASF438:
 7094 313a 5F5F4743 		.ascii	"__GCC_ATOMIC_LONG_LOCK_FREE 2\000"
 7094      435F4154 
 7094      4F4D4943 
 7094      5F4C4F4E 
 7094      475F4C4F 
 7095              	.LASF374:
 7096 3158 5F5F554C 		.ascii	"__ULACCUM_MIN__ 0.0ULK\000"
 7096      41434355 
 7096      4D5F4D49 
 7096      4E5F5F20 
 7096      302E3055 
 7097              	.LASF480:
 7098 316f 5F415445 		.ascii	"_ATEXIT_DYNAMIC_ALLOC 1\000"
 7098      5849545F 
 7098      44594E41 
 7098      4D49435F 
 7098      414C4C4F 
 7099              	.LASF533:
 7100 3187 5F5F6E65 		.ascii	"__need_size_t\000"
 7100      65645F73 
 7100      697A655F 
 7100      7400
 7101              	.LASF67:
ARM GAS  C:\Users\Grzybek\AppData\Local\Temp\ccXBk3wH.s 			page 181


 7102 3195 75785361 		.ascii	"uxSavedInterruptStatus\000"
 7102      76656449 
 7102      6E746572 
 7102      72757074 
 7102      53746174 
 7103              	.LASF165:
 7104 31ac 5F5F494E 		.ascii	"__INT32_TYPE__ long int\000"
 7104      5433325F 
 7104      54595045 
 7104      5F5F206C 
 7104      6F6E6720 
 7105              	.LASF523:
 7106 31c4 5F53495A 		.ascii	"_SIZE_T_ \000"
 7106      455F545F 
 7106      2000
 7107              	.LASF500:
 7108 31ce 5F444F54 		.ascii	"_DOTS , ...\000"
 7108      53202C20 
 7108      2E2E2E00 
 7109              	.LASF243:
 7110 31da 5F5F464C 		.ascii	"__FLT_RADIX__ 2\000"
 7110      545F5241 
 7110      4449585F 
 7110      5F203200 
 7111              	.LASF5:
 7112 31ea 6C6F6E67 		.ascii	"long long int\000"
 7112      206C6F6E 
 7112      6720696E 
 7112      7400
 7113              	.LASF111:
 7114 31f8 75785265 		.ascii	"uxRecursiveCallCount pcReadFrom\000"
 7114      63757273 
 7114      69766543 
 7114      616C6C43 
 7114      6F756E74 
 7115              	.LASF107:
 7116 3218 71756575 		.ascii	"queueSEND_TO_BACK ( 0 )\000"
 7116      6553454E 
 7116      445F544F 
 7116      5F424143 
 7116      4B202820 
 7117              	.LASF431:
 7118 3230 5F5F4743 		.ascii	"__GCC_ATOMIC_BOOL_LOCK_FREE 2\000"
 7118      435F4154 
 7118      4F4D4943 
 7118      5F424F4F 
 7118      4C5F4C4F 
 7119              	.LASF601:
 7120 324e 5F524545 		.ascii	"_REENT_INIT_MISC(var) do { struct _reent *_r = (var"
 7120      4E545F49 
 7120      4E49545F 
 7120      4D495343 
 7120      28766172 
 7121 3281 293B205F 		.ascii	"); _r->_misc->_strtok_last = _NULL; _r->_misc->_mbl"
 7121      722D3E5F 
 7121      6D697363 
 7121      2D3E5F73 
ARM GAS  C:\Users\Grzybek\AppData\Local\Temp\ccXBk3wH.s 			page 182


 7121      7472746F 
 7122 32b4 656E5F73 		.ascii	"en_state.__count = 0; _r->_misc->_mblen_state.__val"
 7122      74617465 
 7122      2E5F5F63 
 7122      6F756E74 
 7122      203D2030 
 7123 32e7 75652E5F 		.ascii	"ue.__wch = 0; _r->_misc->_wctomb_state.__count = 0;"
 7123      5F776368 
 7123      203D2030 
 7123      3B205F72 
 7123      2D3E5F6D 
 7124 331a 205F722D 		.ascii	" _r->_misc->_wctomb_state.__value.__wch = 0; _r->_m"
 7124      3E5F6D69 
 7124      73632D3E 
 7124      5F776374 
 7124      6F6D625F 
 7125 334d 6973632D 		.ascii	"isc->_mbtowc_state.__count = 0; _r->_misc->_mbtowc_"
 7125      3E5F6D62 
 7125      746F7763 
 7125      5F737461 
 7125      74652E5F 
 7126 3380 73746174 		.ascii	"state.__value.__wch = 0; _r->_misc->_mbrlen_state._"
 7126      652E5F5F 
 7126      76616C75 
 7126      652E5F5F 
 7126      77636820 
 7127 33b3 5F636F75 		.ascii	"_count = 0; _r->_misc->_mbrlen_state.__value.__wch "
 7127      6E74203D 
 7127      20303B20 
 7127      5F722D3E 
 7127      5F6D6973 
 7128 33e6 3D20303B 		.ascii	"= 0; _r->_misc->_mbrtowc_state.__count = 0; _r->_mi"
 7128      205F722D 
 7128      3E5F6D69 
 7128      73632D3E 
 7128      5F6D6272 
 7129 3419 73632D3E 		.ascii	"sc->_mbrtowc_state.__value.__wch = 0; _r->_misc->_m"
 7129      5F6D6272 
 7129      746F7763 
 7129      5F737461 
 7129      74652E5F 
 7130 344c 62737274 		.ascii	"bsrtowcs_state.__count = 0; _r->_misc->_mbsrtowcs_s"
 7130      6F776373 
 7130      5F737461 
 7130      74652E5F 
 7130      5F636F75 
 7131 347f 74617465 		.ascii	"tate.__value.__wch = 0; _r->_misc->_wcrtomb_state._"
 7131      2E5F5F76 
 7131      616C7565 
 7131      2E5F5F77 
 7131      6368203D 
 7132 34b2 5F636F75 		.ascii	"_count = 0; _r->_misc->_wcrtomb_state.__value.__wch"
 7132      6E74203D 
 7132      20303B20 
 7132      5F722D3E 
 7132      5F6D6973 
 7133 34e5 203D2030 		.ascii	" = 0; _r->_misc->_wcsrtombs_state.__count = 0; _r->"
ARM GAS  C:\Users\Grzybek\AppData\Local\Temp\ccXBk3wH.s 			page 183


 7133      3B205F72 
 7133      2D3E5F6D 
 7133      6973632D 
 7133      3E5F7763 
 7134 3518 5F6D6973 		.ascii	"_misc->_wcsrtombs_state.__value.__wch = 0; _r->_mis"
 7134      632D3E5F 
 7134      77637372 
 7134      746F6D62 
 7134      735F7374 
 7135 354b 632D3E5F 		.ascii	"c->_l64a_buf[0] = '\\0'; _r->_misc->_getdate_err = "
 7135      6C363461 
 7135      5F627566 
 7135      5B305D20 
 7135      3D20275C 
 7136 357d 303B207D 		.ascii	"0; } while (0)\000"
 7136      20776869 
 7136      6C652028 
 7136      302900
 7137              	.LASF650:
 7138 358c 5F505452 		.ascii	"_PTRDIFF_T \000"
 7138      44494646 
 7138      5F542000 
 7139              	.LASF820:
 7140 3598 74736B49 		.ascii	"tskIDLE_PRIORITY ( ( unsigned portBASE_TYPE ) 0U )\000"
 7140      444C455F 
 7140      5052494F 
 7140      52495459 
 7140      20282028 
 7141              	.LASF181:
 7142 35cb 5F5F494E 		.ascii	"__INT_FAST32_TYPE__ int\000"
 7142      545F4641 
 7142      53543332 
 7142      5F545950 
 7142      455F5F20 
 7143              	.LASF600:
 7144 35e3 5F524545 		.ascii	"_REENT_CHECK_EMERGENCY(var) _REENT_CHECK(var, _emer"
 7144      4E545F43 
 7144      4845434B 
 7144      5F454D45 
 7144      5247454E 
 7145 3616 67656E63 		.ascii	"gency, char *, _REENT_EMERGENCY_SIZE, )\000"
 7145      792C2063 
 7145      68617220 
 7145      2A2C205F 
 7145      5245454E 
 7146              	.LASF572:
 7147 363e 5F5F6C6F 		.ascii	"__lock_release(lock) (_CAST_VOID 0)\000"
 7147      636B5F72 
 7147      656C6561 
 7147      7365286C 
 7147      6F636B29 
 7148              	.LASF679:
 7149 3662 636F6E66 		.ascii	"configMAX_PRIORITIES ( ( unsigned portBASE_TYPE ) 5"
 7149      69674D41 
 7149      585F5052 
 7149      494F5249 
 7149      54494553 
ARM GAS  C:\Users\Grzybek\AppData\Local\Temp\ccXBk3wH.s 			page 184


 7150 3695 202900   		.ascii	" )\000"
 7151              	.LASF607:
 7152 3698 5F524545 		.ascii	"_REENT_RAND48_MULT(ptr) ((ptr)->_r48->_mult)\000"
 7152      4E545F52 
 7152      414E4434 
 7152      385F4D55 
 7152      4C542870 
 7153              	.LASF539:
 7154 36c5 5F5F5743 		.ascii	"__WCHAR_T \000"
 7154      4841525F 
 7154      542000
 7155              	.LASF91:
 7156 36d0 5F5F5359 		.ascii	"__SYS_CONFIG_H__ \000"
 7156      535F434F 
 7156      4E464947 
 7156      5F485F5F 
 7156      2000
 7157              	.LASF639:
 7158 36e2 4D425F43 		.ascii	"MB_CUR_MAX __locale_mb_cur_max()\000"
 7158      55525F4D 
 7158      4158205F 
 7158      5F6C6F63 
 7158      616C655F 
 7159              	.LASF62:
 7160 3703 78436F70 		.ascii	"xCopyPosition\000"
 7160      79506F73 
 7160      6974696F 
 7160      6E00
 7161              	.LASF818:
 7162 3711 6C697374 		.ascii	"listLIST_IS_INITIALISED(pxList) ( ( pxList )->xList"
 7162      4C495354 
 7162      5F49535F 
 7162      494E4954 
 7162      49414C49 
 7163 3744 456E642E 		.ascii	"End.xItemValue == portMAX_DELAY )\000"
 7163      78497465 
 7163      6D56616C 
 7163      7565203D 
 7163      3D20706F 
 7164              	.LASF166:
 7165 3766 5F5F494E 		.ascii	"__INT64_TYPE__ long long int\000"
 7165      5436345F 
 7165      54595045 
 7165      5F5F206C 
 7165      6F6E6720 
 7166              	.LASF327:
 7167 3783 5F5F4C46 		.ascii	"__LFRACT_FBIT__ 31\000"
 7167      52414354 
 7167      5F464249 
 7167      545F5F20 
 7167      333100
 7168              	.LASF146:
 7169 3796 5F5F4348 		.ascii	"__CHAR_BIT__ 8\000"
 7169      41525F42 
 7169      49545F5F 
 7169      203800
 7170              	.LASF444:
ARM GAS  C:\Users\Grzybek\AppData\Local\Temp\ccXBk3wH.s 			page 185


 7171 37a5 5F5F5349 		.ascii	"__SIZEOF_WCHAR_T__ 4\000"
 7171      5A454F46 
 7171      5F574348 
 7171      41525F54 
 7171      5F5F2034 
 7172              	.LASF19:
 7173 37ba 784C4953 		.ascii	"xLIST_ITEM\000"
 7173      545F4954 
 7173      454D00
 7174              	.LASF780:
 7175 37c5 74726163 		.ascii	"traceQUEUE_RECEIVE_FROM_ISR_FAILED(pxQueue) \000"
 7175      65515545 
 7175      55455F52 
 7175      45434549 
 7175      56455F46 
 7176              	.LASF50:
 7177 37f2 75635175 		.ascii	"ucQueueType\000"
 7177      65756554 
 7177      79706500 
 7178              	.LASF325:
 7179 37fe 5F5F5546 		.ascii	"__UFRACT_MAX__ 0XFFFFP-16UR\000"
 7179      52414354 
 7179      5F4D4158 
 7179      5F5F2030 
 7179      58464646 
 7180              	.LASF599:
 7181 381a 5F524545 		.ascii	"_REENT_CHECK_MP(var) _REENT_CHECK(var, _mp, struct "
 7181      4E545F43 
 7181      4845434B 
 7181      5F4D5028 
 7181      76617229 
 7182 384d 5F6D7072 		.ascii	"_mprec *, sizeof *((var)->_mp), _REENT_INIT_MP(var)"
 7182      6563202A 
 7182      2C207369 
 7182      7A656F66 
 7182      202A2828 
 7183 3880 2900     		.ascii	")\000"
 7184              	.LASF308:
 7185 3882 5F5F5346 		.ascii	"__SFRACT_IBIT__ 0\000"
 7185      52414354 
 7185      5F494249 
 7185      545F5F20 
 7185      3000
 7186              	.LASF754:
 7187 3894 74726163 		.ascii	"traceEND() \000"
 7187      65454E44 
 7187      28292000 
 7188              	.LASF553:
 7189 38a0 5F5F4558 		.ascii	"__EXP(x) __ ##x ##__\000"
 7189      50287829 
 7189      205F5F20 
 7189      23237820 
 7189      23235F5F 
 7190              	.LASF151:
 7191 38b5 5F5F4259 		.ascii	"__BYTE_ORDER__ __ORDER_LITTLE_ENDIAN__\000"
 7191      54455F4F 
 7191      52444552 
ARM GAS  C:\Users\Grzybek\AppData\Local\Temp\ccXBk3wH.s 			page 186


 7191      5F5F205F 
 7191      5F4F5244 
 7192              	.LASF493:
 7193 38dc 5F4E4F54 		.ascii	"_NOTHROW \000"
 7193      48524F57 
 7193      2000
 7194              	.LASF90:
 7195 38e6 5F414E53 		.ascii	"_ANSIDECL_H_ \000"
 7195      49444543 
 7195      4C5F485F 
 7195      2000
 7196              	.LASF711:
 7197 38f4 706F7274 		.ascii	"portSTACK_GROWTH ( -1 )\000"
 7197      53544143 
 7197      4B5F4752 
 7197      4F575448 
 7197      2028202D 
 7198              	.LASF424:
 7199 390c 5F5F5553 		.ascii	"__USER_LABEL_PREFIX__ \000"
 7199      45525F4C 
 7199      4142454C 
 7199      5F505245 
 7199      4649585F 
 7200              	.LASF233:
 7201 3923 5F5F494E 		.ascii	"__INT_FAST32_MAX__ 2147483647\000"
 7201      545F4641 
 7201      53543332 
 7201      5F4D4158 
 7201      5F5F2032 
 7202              	.LASF322:
 7203 3941 5F5F5546 		.ascii	"__UFRACT_FBIT__ 16\000"
 7203      52414354 
 7203      5F464249 
 7203      545F5F20 
 7203      313600
 7204              	.LASF403:
 7205 3954 5F5F5544 		.ascii	"__UDQ_FBIT__ 64\000"
 7205      515F4642 
 7205      49545F5F 
 7205      20363400 
 7206              	.LASF38:
 7207 3964 75784D65 		.ascii	"uxMessagesWaiting\000"
 7207      73736167 
 7207      65735761 
 7207      6974696E 
 7207      6700
 7208              	.LASF739:
 7209 3976 636F6E66 		.ascii	"configUSE_COUNTING_SEMAPHORES 0\000"
 7209      69675553 
 7209      455F434F 
 7209      554E5449 
 7209      4E475F53 
 7210              	.LASF620:
 7211 3996 5F524545 		.ascii	"_REENT_MBRLEN_STATE(ptr) ((ptr)->_misc->_mbrlen_sta"
 7211      4E545F4D 
 7211      42524C45 
 7211      4E5F5354 
ARM GAS  C:\Users\Grzybek\AppData\Local\Temp\ccXBk3wH.s 			page 187


 7211      41544528 
 7212 39c9 74652900 		.ascii	"te)\000"
 7213              	.LASF712:
 7214 39cd 706F7274 		.ascii	"portTICK_RATE_MS ( ( portTickType ) 1000 / configTI"
 7214      5449434B 
 7214      5F524154 
 7214      455F4D53 
 7214      20282028 
 7215 3a00 434B5F52 		.ascii	"CK_RATE_HZ )\000"
 7215      4154455F 
 7215      485A2029 
 7215      00
 7216              	.LASF0:
 7217 3a0d 756E7369 		.ascii	"unsigned int\000"
 7217      676E6564 
 7217      20696E74 
 7217      00
 7218              	.LASF525:
 7219 3a1a 5F53495A 		.ascii	"_SIZE_T_DEFINED_ \000"
 7219      455F545F 
 7219      44454649 
 7219      4E45445F 
 7219      2000
 7220              	.LASF12:
 7221 3a2c 706F7274 		.ascii	"portTickType\000"
 7221      5469636B 
 7221      54797065 
 7221      00
 7222              	.LASF246:
 7223 3a39 5F5F464C 		.ascii	"__FLT_MIN_EXP__ (-125)\000"
 7223      545F4D49 
 7223      4E5F4558 
 7223      505F5F20 
 7223      282D3132 
 7224              	.LASF242:
 7225 3a50 5F5F4445 		.ascii	"__DEC_EVAL_METHOD__ 2\000"
 7225      435F4556 
 7225      414C5F4D 
 7225      4554484F 
 7225      445F5F20 
 7226              	.LASF353:
 7227 3a66 5F5F5553 		.ascii	"__USACCUM_IBIT__ 8\000"
 7227      41434355 
 7227      4D5F4942 
 7227      49545F5F 
 7227      203800
 7228              	.LASF824:
 7229 3a79 7461736B 		.ascii	"taskDISABLE_INTERRUPTS() portDISABLE_INTERRUPTS()\000"
 7229      44495341 
 7229      424C455F 
 7229      494E5445 
 7229      52525550 
 7230              	.LASF240:
 7231 3aab 5F5F5549 		.ascii	"__UINTPTR_MAX__ 4294967295U\000"
 7231      4E545054 
 7231      525F4D41 
 7231      585F5F20 
ARM GAS  C:\Users\Grzybek\AppData\Local\Temp\ccXBk3wH.s 			page 188


 7231      34323934 
 7232              	.LASF245:
 7233 3ac7 5F5F464C 		.ascii	"__FLT_DIG__ 6\000"
 7233      545F4449 
 7233      475F5F20 
 7233      3600
 7234              	.LASF366:
 7235 3ad5 5F5F5541 		.ascii	"__UACCUM_EPSILON__ 0x1P-16UK\000"
 7235      4343554D 
 7235      5F455053 
 7235      494C4F4E 
 7235      5F5F2030 
 7236              	.LASF78:
 7237 3af2 70727643 		.ascii	"prvCopyDataFromQueue\000"
 7237      6F707944 
 7237      61746146 
 7237      726F6D51 
 7237      75657565 
 7238              	.LASF548:
 7239 3b07 5F574348 		.ascii	"_WCHAR_T_DECLARED \000"
 7239      41525F54 
 7239      5F444543 
 7239      4C415245 
 7239      442000
 7240              	.LASF744:
 7241 3b1a 706F7274 		.ascii	"portALIGNMENT_ASSERT_pxCurrentTCB configASSERT\000"
 7241      414C4947 
 7241      4E4D454E 
 7241      545F4153 
 7241      53455254 
 7242              	.LASF93:
 7243 3b49 5F535953 		.ascii	"_SYS_REENT_H_ \000"
 7243      5F524545 
 7243      4E545F48 
 7243      5F2000
 7244              	.LASF241:
 7245 3b58 5F5F464C 		.ascii	"__FLT_EVAL_METHOD__ 0\000"
 7245      545F4556 
 7245      414C5F4D 
 7245      4554484F 
 7245      445F5F20 
 7246              	.LASF23:
 7247 3b6e 75784E75 		.ascii	"uxNumberOfItems\000"
 7247      6D626572 
 7247      4F664974 
 7247      656D7300 
 7248              	.LASF457:
 7249 3b7e 5F5F4152 		.ascii	"__ARM_ARCH_7M__ 1\000"
 7249      4D5F4152 
 7249      43485F37 
 7249      4D5F5F20 
 7249      3100
 7250              	.LASF811:
 7251 3b90 6C697374 		.ascii	"listGET_ITEM_VALUE_OF_HEAD_ENTRY(pxList) ( (&( ( px"
 7251      4745545F 
 7251      4954454D 
 7251      5F56414C 
ARM GAS  C:\Users\Grzybek\AppData\Local\Temp\ccXBk3wH.s 			page 189


 7251      55455F4F 
 7252 3bc3 4C697374 		.ascii	"List )->xListEnd ))->pxNext->xItemValue )\000"
 7252      20292D3E 
 7252      784C6973 
 7252      74456E64 
 7252      2029292D 
 7253              	.LASF124:
 7254 3bed 5F5F5354 		.ascii	"__STDC_UTF_16__ 1\000"
 7254      44435F55 
 7254      54465F31 
 7254      365F5F20 
 7254      3100
 7255              	.LASF515:
 7256 3bff 5F5F6E65 		.ascii	"__need_wchar_t \000"
 7256      65645F77 
 7256      63686172 
 7256      5F742000 
 7257              	.LASF502:
 7258 3c0f 5F455846 		.ascii	"_EXFUN_NOTHROW(name,proto) name proto _NOTHROW\000"
 7258      554E5F4E 
 7258      4F544852 
 7258      4F57286E 
 7258      616D652C 
 7259              	.LASF602:
 7260 3c3e 5F524545 		.ascii	"_REENT_CHECK_MISC(var) _REENT_CHECK(var, _misc, str"
 7260      4E545F43 
 7260      4845434B 
 7260      5F4D4953 
 7260      43287661 
 7261 3c71 75637420 		.ascii	"uct _misc_reent *, sizeof *((var)->_misc), _REENT_I"
 7261      5F6D6973 
 7261      635F7265 
 7261      656E7420 
 7261      2A2C2073 
 7262 3ca4 4E49545F 		.ascii	"NIT_MISC(var))\000"
 7262      4D495343 
 7262      28766172 
 7262      292900
 7263              	.LASF652:
 7264 3cb3 5F545F50 		.ascii	"_T_PTRDIFF \000"
 7264      54524449 
 7264      46462000 
 7265              	.LASF397:
 7266 3cbf 5F5F5551 		.ascii	"__UQQ_FBIT__ 8\000"
 7266      515F4642 
 7266      49545F5F 
 7266      203800
 7267              	.LASF294:
 7268 3cce 5F5F4445 		.ascii	"__DEC64_MIN_EXP__ (-382)\000"
 7268      4336345F 
 7268      4D494E5F 
 7268      4558505F 
 7268      5F20282D 
 7269              	.LASF365:
 7270 3ce7 5F5F5541 		.ascii	"__UACCUM_MAX__ 0XFFFFFFFFP-16UK\000"
 7270      4343554D 
 7270      5F4D4158 
ARM GAS  C:\Users\Grzybek\AppData\Local\Temp\ccXBk3wH.s 			page 190


 7270      5F5F2030 
 7270      58464646 
 7271              	.LASF805:
 7272 3d07 636F6E66 		.ascii	"configPOST_SLEEP_PROCESSING(x) \000"
 7272      6967504F 
 7272      53545F53 
 7272      4C454550 
 7272      5F50524F 
 7273              	.LASF633:
 7274 3d27 616C6C6F 		.ascii	"alloca\000"
 7274      636100
 7275              	.LASF330:
 7276 3d2e 5F5F4C46 		.ascii	"__LFRACT_MAX__ 0X7FFFFFFFP-31LR\000"
 7276      52414354 
 7276      5F4D4158 
 7276      5F5F2030 
 7276      58374646 
 7277              	.LASF446:
 7278 3d4e 5F5F5349 		.ascii	"__SIZEOF_PTRDIFF_T__ 4\000"
 7278      5A454F46 
 7278      5F505452 
 7278      44494646 
 7278      5F545F5F 
 7279              	.LASF122:
 7280 3d65 5F5F5354 		.ascii	"__STDC__ 1\000"
 7280      44435F5F 
 7280      203100
 7281              	.LASF452:
 7282 3d70 5F5F4152 		.ascii	"__ARMEL__ 1\000"
 7282      4D454C5F 
 7282      5F203100 
 7283              	.LASF152:
 7284 3d7c 5F5F464C 		.ascii	"__FLOAT_WORD_ORDER__ __ORDER_LITTLE_ENDIAN__\000"
 7284      4F41545F 
 7284      574F5244 
 7284      5F4F5244 
 7284      45525F5F 
 7285              	.LASF547:
 7286 3da9 5F474343 		.ascii	"_GCC_WCHAR_T \000"
 7286      5F574348 
 7286      41525F54 
 7286      2000
 7287              	.LASF468:
 7288 3db7 696E6C69 		.ascii	"inline \000"
 7288      6E652000 
 7289              	.LASF162:
 7290 3dbf 5F5F5349 		.ascii	"__SIG_ATOMIC_TYPE__ int\000"
 7290      475F4154 
 7290      4F4D4943 
 7290      5F545950 
 7290      455F5F20 
 7291              	.LASF767:
 7292 3dd7 74726163 		.ascii	"traceGIVE_MUTEX_RECURSIVE_FAILED(pxMutex) \000"
 7292      65474956 
 7292      455F4D55 
 7292      5445585F 
 7292      52454355 
ARM GAS  C:\Users\Grzybek\AppData\Local\Temp\ccXBk3wH.s 			page 191


 7293              	.LASF819:
 7294 3e02 74736B4B 		.ascii	"tskKERNEL_VERSION_NUMBER \"V7.3.0\"\000"
 7294      45524E45 
 7294      4C5F5645 
 7294      5253494F 
 7294      4E5F4E55 
 7295              	.LASF150:
 7296 3e24 5F5F4F52 		.ascii	"__ORDER_PDP_ENDIAN__ 3412\000"
 7296      4445525F 
 7296      5044505F 
 7296      454E4449 
 7296      414E5F5F 
 7297              	.LASF34:
 7298 3e3e 70635772 		.ascii	"pcWriteTo\000"
 7298      69746554 
 7298      6F00
 7299              	.LASF300:
 7300 3e48 5F5F4445 		.ascii	"__DEC128_MANT_DIG__ 34\000"
 7300      43313238 
 7300      5F4D414E 
 7300      545F4449 
 7300      475F5F20 
 7301              	.LASF205:
 7302 3e5f 5F5F5349 		.ascii	"__SIG_ATOMIC_MAX__ 2147483647\000"
 7302      475F4154 
 7302      4F4D4943 
 7302      5F4D4158 
 7302      5F5F2032 
 7303              	.LASF488:
 7304 3e7d 5F5F494D 		.ascii	"__IMPORT \000"
 7304      504F5254 
 7304      2000
 7305              	.LASF578:
 7306 3e87 5F415445 		.ascii	"_ATEXIT_SIZE 32\000"
 7306      5849545F 
 7306      53495A45 
 7306      20333200 
 7307              	.LASF417:
 7308 3e97 5F5F5553 		.ascii	"__USA_FBIT__ 16\000"
 7308      415F4642 
 7308      49545F5F 
 7308      20313600 
 7309              	.LASF61:
 7310 3ea7 78546963 		.ascii	"xTicksToWait\000"
 7310      6B73546F 
 7310      57616974 
 7310      00
 7311              	.LASF95:
 7312 3eb4 5F4D4143 		.ascii	"_MACHINE__TYPES_H \000"
 7312      48494E45 
 7312      5F5F5459 
 7312      5045535F 
 7312      482000
 7313              	.LASF564:
 7314 3ec7 5F5F6C6F 		.ascii	"__lock_init(lock) (_CAST_VOID 0)\000"
 7314      636B5F69 
 7314      6E697428 
ARM GAS  C:\Users\Grzybek\AppData\Local\Temp\ccXBk3wH.s 			page 192


 7314      6C6F636B 
 7314      2920285F 
 7315              	.LASF89:
 7316 3ee8 5F5F4945 		.ascii	"__IEEE_LITTLE_ENDIAN \000"
 7316      45455F4C 
 7316      4954544C 
 7316      455F454E 
 7316      4449414E 
 7317              	.LASF257:
 7318 3efe 5F5F464C 		.ascii	"__FLT_HAS_QUIET_NAN__ 1\000"
 7318      545F4841 
 7318      535F5155 
 7318      4945545F 
 7318      4E414E5F 
 7319              	.LASF432:
 7320 3f16 5F5F4743 		.ascii	"__GCC_ATOMIC_CHAR_LOCK_FREE 2\000"
 7320      435F4154 
 7320      4F4D4943 
 7320      5F434841 
 7320      525F4C4F 
 7321              	.LASF504:
 7322 3f34 5F455850 		.ascii	"_EXPARM(name,proto) (* name) proto\000"
 7322      41524D28 
 7322      6E616D65 
 7322      2C70726F 
 7322      746F2920 
 7323              	.LASF715:
 7324 3f57 706F7274 		.ascii	"portEND_SWITCHING_ISR(xSwitchRequired) if( xSwitchR"
 7324      454E445F 
 7324      53574954 
 7324      4348494E 
 7324      475F4953 
 7325 3f8a 65717569 		.ascii	"equired ) vPortYieldFromISR()\000"
 7325      72656420 
 7325      29207650 
 7325      6F727459 
 7325      69656C64 
 7326              	.LASF331:
 7327 3fa8 5F5F4C46 		.ascii	"__LFRACT_EPSILON__ 0x1P-31LR\000"
 7327      52414354 
 7327      5F455053 
 7327      494C4F4E 
 7327      5F5F2030 
 7328              	.LASF491:
 7329 3fc5 5F424547 		.ascii	"_BEGIN_STD_C \000"
 7329      494E5F53 
 7329      54445F43 
 7329      2000
 7330              	.LASF794:
 7331 3fd3 74726163 		.ascii	"traceTIMER_COMMAND_SEND(xTimer,xMessageID,xMessageV"
 7331      6554494D 
 7331      45525F43 
 7331      4F4D4D41 
 7331      4E445F53 
 7332 4006 616C7565 		.ascii	"alueValue,xReturn) \000"
 7332      56616C75 
 7332      652C7852 
ARM GAS  C:\Users\Grzybek\AppData\Local\Temp\ccXBk3wH.s 			page 193


 7332      65747572 
 7332      6E292000 
 7333              	.LASF595:
 7334 401a 5F524545 		.ascii	"_REENT_CHECK_ASCTIME_BUF(var) _REENT_CHECK(var, _as"
 7334      4E545F43 
 7334      4845434B 
 7334      5F415343 
 7334      54494D45 
 7335 404d 6374696D 		.ascii	"ctime_buf, char *, _REENT_ASCTIME_SIZE, memset((var"
 7335      655F6275 
 7335      662C2063 
 7335      68617220 
 7335      2A2C205F 
 7336 4080 292D3E5F 		.ascii	")->_asctime_buf, 0, _REENT_ASCTIME_SIZE))\000"
 7336      61736374 
 7336      696D655F 
 7336      6275662C 
 7336      20302C20 
 7337              	.LASF102:
 7338 40aa 5441534B 		.ascii	"TASK_H \000"
 7338      5F482000 
 7339              	.LASF644:
 7340 40b2 7374726E 		.ascii	"strncmpi strncasecmp\000"
 7340      636D7069 
 7340      20737472 
 7340      6E636173 
 7340      65636D70 
 7341              	.LASF215:
 7342 40c7 5F5F494E 		.ascii	"__INT_LEAST8_MAX__ 127\000"
 7342      545F4C45 
 7342      41535438 
 7342      5F4D4158 
 7342      5F5F2031 
 7343              	.LASF779:
 7344 40de 74726163 		.ascii	"traceQUEUE_RECEIVE_FROM_ISR(pxQueue) \000"
 7344      65515545 
 7344      55455F52 
 7344      45434549 
 7344      56455F46 
 7345              	.LASF448:
 7346 4104 5F5F6172 		.ascii	"__arm__ 1\000"
 7346      6D5F5F20 
 7346      3100
 7347              	.LASF759:
 7348 410e 74726163 		.ascii	"traceBLOCKING_ON_QUEUE_RECEIVE(pxQueue) \000"
 7348      65424C4F 
 7348      434B494E 
 7348      475F4F4E 
 7348      5F515545 
 7349              	.LASF25:
 7350 4137 784C6973 		.ascii	"xListEnd\000"
 7350      74456E64 
 7350      00
 7351              	.LASF790:
 7352 4140 74726163 		.ascii	"traceTASK_RESUME_FROM_ISR(pxTaskToResume) \000"
 7352      65544153 
 7352      4B5F5245 
ARM GAS  C:\Users\Grzybek\AppData\Local\Temp\ccXBk3wH.s 			page 194


 7352      53554D45 
 7352      5F46524F 
 7353              	.LASF802:
 7354 416b 7076506F 		.ascii	"pvPortMallocAligned(x,puxStackBuffer) ( ( ( puxStac"
 7354      72744D61 
 7354      6C6C6F63 
 7354      416C6967 
 7354      6E656428 
 7355 419e 6B427566 		.ascii	"kBuffer ) == NULL ) ? ( pvPortMalloc( ( x ) ) ) : ("
 7355      66657220 
 7355      29203D3D 
 7355      204E554C 
 7355      4C202920 
 7356 41d1 20707578 		.ascii	" puxStackBuffer ) )\000"
 7356      53746163 
 7356      6B427566 
 7356      66657220 
 7356      29202900 
 7357              	.LASF619:
 7358 41e5 5F524545 		.ascii	"_REENT_WCTOMB_STATE(ptr) ((ptr)->_misc->_wctomb_sta"
 7358      4E545F57 
 7358      43544F4D 
 7358      425F5354 
 7358      41544528 
 7359 4218 74652900 		.ascii	"te)\000"
 7360              	.LASF536:
 7361 421c 5F574348 		.ascii	"_WCHAR_T \000"
 7361      41525F54 
 7361      2000
 7362              	.LASF64:
 7363 4226 7854696D 		.ascii	"xTimeOut\000"
 7363      654F7574 
 7363      00
 7364              	.LASF783:
 7365 422f 74726163 		.ascii	"traceTASK_CREATE_FAILED() \000"
 7365      65544153 
 7365      4B5F4352 
 7365      45415445 
 7365      5F464149 
 7366              	.LASF286:
 7367 424a 5F5F4445 		.ascii	"__DEC32_MANT_DIG__ 7\000"
 7367      4333325F 
 7367      4D414E54 
 7367      5F444947 
 7367      5F5F2037 
 7368              	.LASF472:
 7369 425f 5F5F4353 		.ascii	"__CS_SOURCERYGXX_MIN__ 9\000"
 7369      5F534F55 
 7369      52434552 
 7369      59475858 
 7369      5F4D494E 
 7370              	.LASF552:
 7371 4278 5F4D4143 		.ascii	"_MACHINE__DEFAULT_TYPES_H \000"
 7371      48494E45 
 7371      5F5F4445 
 7371      4641554C 
 7371      545F5459 
ARM GAS  C:\Users\Grzybek\AppData\Local\Temp\ccXBk3wH.s 			page 195


 7372              	.LASF147:
 7373 4293 5F5F4249 		.ascii	"__BIGGEST_ALIGNMENT__ 8\000"
 7373      47474553 
 7373      545F414C 
 7373      49474E4D 
 7373      454E545F 
 7374              	.LASF354:
 7375 42ab 5F5F5553 		.ascii	"__USACCUM_MIN__ 0.0UHK\000"
 7375      41434355 
 7375      4D5F4D49 
 7375      4E5F5F20 
 7375      302E3055 
 7376              	.LASF657:
 7377 42c2 5F474343 		.ascii	"_GCC_PTRDIFF_T \000"
 7377      5F505452 
 7377      44494646 
 7377      5F542000 
 7378              	.LASF713:
 7379 42d2 706F7274 		.ascii	"portBYTE_ALIGNMENT 8\000"
 7379      42595445 
 7379      5F414C49 
 7379      474E4D45 
 7379      4E542038 
 7380              	.LASF691:
 7381 42e7 494E434C 		.ascii	"INCLUDE_vTaskPrioritySet 1\000"
 7381      5544455F 
 7381      76546173 
 7381      6B507269 
 7381      6F726974 
 7382              	.LASF414:
 7383 4302 5F5F5441 		.ascii	"__TA_IBIT__ 64\000"
 7383      5F494249 
 7383      545F5F20 
 7383      363400
 7384              	.LASF697:
 7385 4311 494E434C 		.ascii	"INCLUDE_vTaskDelay 1\000"
 7385      5544455F 
 7385      76546173 
 7385      6B44656C 
 7385      61792031 
 7386              	.LASF562:
 7387 4326 5F5F4C4F 		.ascii	"__LOCK_INIT(class,lock) static int lock = 0;\000"
 7387      434B5F49 
 7387      4E495428 
 7387      636C6173 
 7387      732C6C6F 
 7388              	.LASF518:
 7389 4353 5F53495A 		.ascii	"_SIZE_T \000"
 7389      455F5420 
 7389      00
 7390              	.LASF544:
 7391 435c 5F574348 		.ascii	"_WCHAR_T_H \000"
 7391      41525F54 
 7391      5F482000 
 7392              	.LASF734:
 7393 4368 494E434C 		.ascii	"INCLUDE_xQueueGetMutexHolder 0\000"
 7393      5544455F 
ARM GAS  C:\Users\Grzybek\AppData\Local\Temp\ccXBk3wH.s 			page 196


 7393      78517565 
 7393      75654765 
 7393      744D7574 
 7394              	.LASF731:
 7395 4387 706F7274 		.ascii	"portUSING_MPU_WRAPPERS 0\000"
 7395      5553494E 
 7395      475F4D50 
 7395      555F5752 
 7395      41505045 
 7396              	.LASF229:
 7397 43a0 5F5F5549 		.ascii	"__UINT_LEAST64_MAX__ 18446744073709551615ULL\000"
 7397      4E545F4C 
 7397      45415354 
 7397      36345F4D 
 7397      41585F5F 
 7398              	.LASF231:
 7399 43cd 5F5F494E 		.ascii	"__INT_FAST8_MAX__ 2147483647\000"
 7399      545F4641 
 7399      5354385F 
 7399      4D41585F 
 7399      5F203231 
 7400              	.LASF782:
 7401 43ea 74726163 		.ascii	"traceTASK_CREATE(pxNewTCB) \000"
 7401      65544153 
 7401      4B5F4352 
 7401      45415445 
 7401      2870784E 
 7402              	.LASF323:
 7403 4406 5F5F5546 		.ascii	"__UFRACT_IBIT__ 0\000"
 7403      52414354 
 7403      5F494249 
 7403      545F5F20 
 7403      3000
 7404              	.LASF689:
 7405 4418 636F6E66 		.ascii	"configUSE_CO_ROUTINES 0\000"
 7405      69675553 
 7405      455F434F 
 7405      5F524F55 
 7405      54494E45 
 7406              	.LASF216:
 7407 4430 5F5F494E 		.ascii	"__INT8_C(c) c\000"
 7407      54385F43 
 7407      28632920 
 7407      6300
 7408              	.LASF328:
 7409 443e 5F5F4C46 		.ascii	"__LFRACT_IBIT__ 0\000"
 7409      52414354 
 7409      5F494249 
 7409      545F5F20 
 7409      3000
 7410              	.LASF647:
 7411 4450 5F535444 		.ascii	"_STDDEF_H_ \000"
 7411      4445465F 
 7411      485F2000 
 7412              	.LASF475:
 7413 445c 5F4E4557 		.ascii	"_NEWLIB_VERSION \"1.18.0\"\000"
 7413      4C49425F 
ARM GAS  C:\Users\Grzybek\AppData\Local\Temp\ccXBk3wH.s 			page 197


 7413      56455253 
 7413      494F4E20 
 7413      22312E31 
 7414              	.LASF260:
 7415 4475 5F5F4442 		.ascii	"__DBL_MIN_EXP__ (-1021)\000"
 7415      4C5F4D49 
 7415      4E5F4558 
 7415      505F5F20 
 7415      282D3130 
 7416              	.LASF522:
 7417 448d 5F5F5349 		.ascii	"__SIZE_T \000"
 7417      5A455F54 
 7417      2000
 7418              	.LASF99:
 7419 4497 494E435F 		.ascii	"INC_FREERTOS_H \000"
 7419      46524545 
 7419      52544F53 
 7419      5F482000 
 7420              	.LASF209:
 7421 44a7 5F5F494E 		.ascii	"__INT32_MAX__ 2147483647L\000"
 7421      5433325F 
 7421      4D41585F 
 7421      5F203231 
 7421      34373438 
 7422              	.LASF798:
 7423 44c1 706F7274 		.ascii	"portCONFIGURE_TIMER_FOR_RUN_TIME_STATS() \000"
 7423      434F4E46 
 7423      49475552 
 7423      455F5449 
 7423      4D45525F 
 7424              	.LASF571:
 7425 44eb 5F5F6C6F 		.ascii	"__lock_try_acquire_recursive(lock) (_CAST_VOID 0)\000"
 7425      636B5F74 
 7425      72795F61 
 7425      63717569 
 7425      72655F72 
 7426              	.LASF296:
 7427 451d 5F5F4445 		.ascii	"__DEC64_MIN__ 1E-383DD\000"
 7427      4336345F 
 7427      4D494E5F 
 7427      5F203145 
 7427      2D333833 
 7428              	.LASF21:
 7429 4534 784D696E 		.ascii	"xMiniListItem\000"
 7429      694C6973 
 7429      74497465 
 7429      6D00
 7430              	.LASF560:
 7431 4542 5F5F4558 		.ascii	"__EXP\000"
 7431      5000
 7432              	.LASF559:
 7433 4548 5F5F5F69 		.ascii	"___int64_t_defined 1\000"
 7433      6E743634 
 7433      5F745F64 
 7433      6566696E 
 7433      65642031 
 7434              	.LASF283:
ARM GAS  C:\Users\Grzybek\AppData\Local\Temp\ccXBk3wH.s 			page 198


 7435 455d 5F5F4C44 		.ascii	"__LDBL_HAS_DENORM__ 1\000"
 7435      424C5F48 
 7435      41535F44 
 7435      454E4F52 
 7435      4D5F5F20 
 7436              	.LASF776:
 7437 4573 74726163 		.ascii	"traceQUEUE_RECEIVE_FAILED(pxQueue) \000"
 7437      65515545 
 7437      55455F52 
 7437      45434549 
 7437      56455F46 
 7438              	.LASF430:
 7439 4597 5F5F4743 		.ascii	"__GCC_HAVE_SYNC_COMPARE_AND_SWAP_4 1\000"
 7439      435F4841 
 7439      56455F53 
 7439      594E435F 
 7439      434F4D50 
 7440              	.LASF104:
 7441 45bc 71756575 		.ascii	"queueUNLOCKED ( ( signed portBASE_TYPE ) -1 )\000"
 7441      65554E4C 
 7441      4F434B45 
 7441      44202820 
 7441      28207369 
 7442              	.LASF359:
 7443 45ea 5F5F4143 		.ascii	"__ACCUM_MIN__ (-0X1P15K-0X1P15K)\000"
 7443      43554D5F 
 7443      4D494E5F 
 7443      5F20282D 
 7443      30583150 
 7444              	.LASF495:
 7445 460b 5F414E44 		.ascii	"_AND ,\000"
 7445      202C00
 7446              	.LASF726:
 7447 4612 706F7274 		.ascii	"portBYTE_ALIGNMENT_MASK ( 0x0007 )\000"
 7447      42595445 
 7447      5F414C49 
 7447      474E4D45 
 7447      4E545F4D 
 7448              	.LASF173:
 7449 4635 5F5F494E 		.ascii	"__INT_LEAST32_TYPE__ long int\000"
 7449      545F4C45 
 7449      41535433 
 7449      325F5459 
 7449      50455F5F 
 7450              	.LASF199:
 7451 4653 5F5F5054 		.ascii	"__PTRDIFF_MAX__ 2147483647\000"
 7451      52444946 
 7451      465F4D41 
 7451      585F5F20 
 7451      32313437 
 7452              	.LASF26:
 7453 466e 784C6973 		.ascii	"xList\000"
 7453      7400
 7454              	.LASF793:
 7455 4674 74726163 		.ascii	"traceTIMER_CREATE_FAILED() \000"
 7455      6554494D 
 7455      45525F43 
ARM GAS  C:\Users\Grzybek\AppData\Local\Temp\ccXBk3wH.s 			page 199


 7455      52454154 
 7455      455F4641 
 7456              	.LASF318:
 7457 4690 5F5F4652 		.ascii	"__FRACT_IBIT__ 0\000"
 7457      4143545F 
 7457      49424954 
 7457      5F5F2030 
 7457      00
 7458              	.LASF728:
 7459 46a1 4D50555F 		.ascii	"MPU_WRAPPERS_H \000"
 7459      57524150 
 7459      50455253 
 7459      5F482000 
 7460              	.LASF148:
 7461 46b1 5F5F4F52 		.ascii	"__ORDER_LITTLE_ENDIAN__ 1234\000"
 7461      4445525F 
 7461      4C495454 
 7461      4C455F45 
 7461      4E444941 
 7462              	.LASF39:
 7463 46ce 75784C65 		.ascii	"uxLength\000"
 7463      6E677468 
 7463      00
 7464              	.LASF293:
 7465 46d7 5F5F4445 		.ascii	"__DEC64_MANT_DIG__ 16\000"
 7465      4336345F 
 7465      4D414E54 
 7465      5F444947 
 7465      5F5F2031 
 7466              	.LASF6:
 7467 46ed 6C6F6E67 		.ascii	"long long unsigned int\000"
 7467      206C6F6E 
 7467      6720756E 
 7467      7369676E 
 7467      65642069 
 7468              	.LASF626:
 7469 4704 5F524545 		.ascii	"_REENT_GETDATE_ERR_P(ptr) (&((ptr)->_misc->_getdate"
 7469      4E545F47 
 7469      45544441 
 7469      54455F45 
 7469      52525F50 
 7470 4737 5F657272 		.ascii	"_err))\000"
 7470      292900
 7471              	.LASF700:
 7472 473e 636F6E66 		.ascii	"configMAX_SYSCALL_INTERRUPT_PRIORITY 191\000"
 7472      69674D41 
 7472      585F5359 
 7472      5343414C 
 7472      4C5F494E 
 7473              	.LASF373:
 7474 4767 5F5F554C 		.ascii	"__ULACCUM_IBIT__ 32\000"
 7474      41434355 
 7474      4D5F4942 
 7474      49545F5F 
 7474      20333200 
 7475              	.LASF746:
 7476 477b 494E434C 		.ascii	"INCLUDE_xTaskGetCurrentTaskHandle 0\000"
ARM GAS  C:\Users\Grzybek\AppData\Local\Temp\ccXBk3wH.s 			page 200


 7476      5544455F 
 7476      78546173 
 7476      6B476574 
 7476      43757272 
 7477              	.LASF777:
 7478 479f 74726163 		.ascii	"traceQUEUE_SEND_FROM_ISR(pxQueue) \000"
 7478      65515545 
 7478      55455F53 
 7478      454E445F 
 7478      46524F4D 
 7479              	.LASF155:
 7480 47c2 5F5F5054 		.ascii	"__PTRDIFF_TYPE__ int\000"
 7480      52444946 
 7480      465F5459 
 7480      50455F5F 
 7480      20696E74 
 7481              	.LASF449:
 7482 47d7 5F5F4150 		.ascii	"__APCS_32__ 1\000"
 7482      43535F33 
 7482      325F5F20 
 7482      3100
 7483              	.LASF393:
 7484 47e5 5F5F4451 		.ascii	"__DQ_FBIT__ 63\000"
 7484      5F464249 
 7484      545F5F20 
 7484      363300
 7485              	.LASF807:
 7486 47f4 6C697374 		.ascii	"listSET_LIST_ITEM_OWNER(pxListItem,pxOwner) ( pxLis"
 7486      5345545F 
 7486      4C495354 
 7486      5F495445 
 7486      4D5F4F57 
 7487 4827 74497465 		.ascii	"tItem )->pvOwner = ( void * ) ( pxOwner )\000"
 7487      6D20292D 
 7487      3E70764F 
 7487      776E6572 
 7487      203D2028 
 7488              	.LASF653:
 7489 4851 5F5F5054 		.ascii	"__PTRDIFF_T \000"
 7489      52444946 
 7489      465F5420 
 7489      00
 7490              	.LASF400:
 7491 485e 5F5F5548 		.ascii	"__UHQ_IBIT__ 0\000"
 7491      515F4942 
 7491      49545F5F 
 7491      203000
 7492              	.LASF741:
 7493 486d 706F7274 		.ascii	"portCRITICAL_NESTING_IN_TCB 0\000"
 7493      43524954 
 7493      4943414C 
 7493      5F4E4553 
 7493      54494E47 
 7494              	.LASF180:
 7495 488b 5F5F494E 		.ascii	"__INT_FAST16_TYPE__ int\000"
 7495      545F4641 
 7495      53543136 
ARM GAS  C:\Users\Grzybek\AppData\Local\Temp\ccXBk3wH.s 			page 201


 7495      5F545950 
 7495      455F5F20 
 7496              	.LASF796:
 7497 48a3 74726163 		.ascii	"traceTIMER_COMMAND_RECEIVED(pxTimer,xMessageID,xMes"
 7497      6554494D 
 7497      45525F43 
 7497      4F4D4D41 
 7497      4E445F52 
 7498 48d6 73616765 		.ascii	"sageValue) \000"
 7498      56616C75 
 7498      65292000 
 7499              	.LASF349:
 7500 48e2 5F5F5341 		.ascii	"__SACCUM_MIN__ (-0X1P7HK-0X1P7HK)\000"
 7500      4343554D 
 7500      5F4D494E 
 7500      5F5F2028 
 7500      2D305831 
 7501              	.LASF335:
 7502 4904 5F5F554C 		.ascii	"__ULFRACT_MAX__ 0XFFFFFFFFP-32ULR\000"
 7502      46524143 
 7502      545F4D41 
 7502      585F5F20 
 7502      30584646 
 7503              	.LASF176:
 7504 4926 5F5F5549 		.ascii	"__UINT_LEAST16_TYPE__ short unsigned int\000"
 7504      4E545F4C 
 7504      45415354 
 7504      31365F54 
 7504      5950455F 
 7505              	.LASF370:
 7506 494f 5F5F4C41 		.ascii	"__LACCUM_MAX__ 0X7FFFFFFFFFFFFFFFP-31LK\000"
 7506      4343554D 
 7506      5F4D4158 
 7506      5F5F2030 
 7506      58374646 
 7507              	.LASF160:
 7508 4977 5F5F4348 		.ascii	"__CHAR16_TYPE__ short unsigned int\000"
 7508      41523136 
 7508      5F545950 
 7508      455F5F20 
 7508      73686F72 
 7509              	.LASF225:
 7510 499a 5F5F5549 		.ascii	"__UINT_LEAST16_MAX__ 65535\000"
 7510      4E545F4C 
 7510      45415354 
 7510      31365F4D 
 7510      41585F5F 
 7511              	.LASF678:
 7512 49b5 636F6E66 		.ascii	"configTICK_RATE_HZ ( ( portTickType ) 1000 )\000"
 7512      69675449 
 7512      434B5F52 
 7512      4154455F 
 7512      485A2028 
 7513              	.LASF405:
 7514 49e2 5F5F5554 		.ascii	"__UTQ_FBIT__ 128\000"
 7514      515F4642 
 7514      49545F5F 
ARM GAS  C:\Users\Grzybek\AppData\Local\Temp\ccXBk3wH.s 			page 202


 7514      20313238 
 7514      00
 7515              	.LASF57:
 7516 49f3 78517565 		.ascii	"xQueueTakeMutexRecursive\000"
 7516      75655461 
 7516      6B654D75 
 7516      74657852 
 7516      65637572 
 7517              	.LASF666:
 7518 4a0c 70644641 		.ascii	"pdFAIL ( 0 )\000"
 7518      494C2028 
 7518      20302029 
 7518      00
 7519              	.LASF709:
 7520 4a19 706F7274 		.ascii	"portBASE_TYPE long\000"
 7520      42415345 
 7520      5F545950 
 7520      45206C6F 
 7520      6E6700
 7521              	.LASF137:
 7522 4a2c 5F5F4649 		.ascii	"__FINITE_MATH_ONLY__ 0\000"
 7522      4E495445 
 7522      5F4D4154 
 7522      485F4F4E 
 7522      4C595F5F 
 7523              	.LASF15:
 7524 4a43 70785072 		.ascii	"pxPrevious\000"
 7524      6576696F 
 7524      757300
 7525              	.LASF120:
 7526 4a4e 71756575 		.ascii	"queueQUEUE_TYPE_RECURSIVE_MUTEX ( 4U )\000"
 7526      65515545 
 7526      55455F54 
 7526      5950455F 
 7526      52454355 
 7527              	.LASF815:
 7528 4a75 6C697374 		.ascii	"listGET_OWNER_OF_HEAD_ENTRY(pxList) ( (&( ( pxList "
 7528      4745545F 
 7528      4F574E45 
 7528      525F4F46 
 7528      5F484541 
 7529 4aa8 292D3E78 		.ascii	")->xListEnd ))->pxNext->pvOwner )\000"
 7529      4C697374 
 7529      456E6420 
 7529      29292D3E 
 7529      70784E65 
 7530              	.LASF816:
 7531 4aca 6C697374 		.ascii	"listIS_CONTAINED_WITHIN(pxList,pxListItem) ( ( pxLi"
 7531      49535F43 
 7531      4F4E5441 
 7531      494E4544 
 7531      5F574954 
 7532 4afd 73744974 		.ascii	"stItem )->pvContainer == ( void * ) ( pxList ) )\000"
 7532      656D2029 
 7532      2D3E7076 
 7532      436F6E74 
 7532      61696E65 
ARM GAS  C:\Users\Grzybek\AppData\Local\Temp\ccXBk3wH.s 			page 203


 7533              	.LASF543:
 7534 4b2e 5F574348 		.ascii	"_WCHAR_T_DEFINED \000"
 7534      41525F54 
 7534      5F444546 
 7534      494E4544 
 7534      2000
 7535              	.LASF375:
 7536 4b40 5F5F554C 		.ascii	"__ULACCUM_MAX__ 0XFFFFFFFFFFFFFFFFP-32ULK\000"
 7536      41434355 
 7536      4D5F4D41 
 7536      585F5F20 
 7536      30584646 
 7537              	.LASF605:
 7538 4b6a 5F524545 		.ascii	"_REENT_RAND_NEXT(ptr) ((ptr)->_r48->_rand_next)\000"
 7538      4E545F52 
 7538      414E445F 
 7538      4E455854 
 7538      28707472 
 7539              	.LASF752:
 7540 4b9a 706F7274 		.ascii	"portPOINTER_SIZE_TYPE unsigned long\000"
 7540      504F494E 
 7540      5445525F 
 7540      53495A45 
 7540      5F545950 
 7541              	.LASF703:
 7542 4bbe 706F7274 		.ascii	"portCHAR char\000"
 7542      43484152 
 7542      20636861 
 7542      7200
 7543              	.LASF37:
 7544 4bcc 78546173 		.ascii	"xTasksWaitingToReceive\000"
 7544      6B735761 
 7544      6974696E 
 7544      67546F52 
 7544      65636569 
 7545              	.LASF394:
 7546 4be3 5F5F4451 		.ascii	"__DQ_IBIT__ 0\000"
 7546      5F494249 
 7546      545F5F20 
 7546      3000
 7547              	.LASF743:
 7548 4bf1 636F6E66 		.ascii	"configASSERT(x) \000"
 7548      69674153 
 7548      53455254 
 7548      28782920 
 7548      00
 7549              	.LASF73:
 7550 4c02 75785175 		.ascii	"uxQueueMessagesWaiting\000"
 7550      6575654D 
 7550      65737361 
 7550      67657357 
 7550      61697469 
 7551              	.LASF684:
 7552 4c19 636F6E66 		.ascii	"configUSE_16_BIT_TICKS 0\000"
 7552      69675553 
 7552      455F3136 
 7552      5F424954 
ARM GAS  C:\Users\Grzybek\AppData\Local\Temp\ccXBk3wH.s 			page 204


 7552      5F544943 
 7553              	.LASF507:
 7554 4c32 5F444546 		.ascii	"_DEFUN_VOID(name) name(_NOARGS)\000"
 7554      554E5F56 
 7554      4F494428 
 7554      6E616D65 
 7554      29206E61 
 7555              	.LASF197:
 7556 4c52 5F5F5749 		.ascii	"__WINT_MAX__ 4294967295U\000"
 7556      4E545F4D 
 7556      41585F5F 
 7556      20343239 
 7556      34393637 
 7557              	.LASF524:
 7558 4c6b 5F425344 		.ascii	"_BSD_SIZE_T_ \000"
 7558      5F53495A 
 7558      455F545F 
 7558      2000
 7559              	.LASF540:
 7560 4c79 5F574348 		.ascii	"_WCHAR_T_ \000"
 7560      41525F54 
 7560      5F2000
 7561              	.LASF221:
 7562 4c84 5F5F494E 		.ascii	"__INT_LEAST64_MAX__ 9223372036854775807LL\000"
 7562      545F4C45 
 7562      41535436 
 7562      345F4D41 
 7562      585F5F20 
 7563              	.LASF538:
 7564 4cae 5F545F57 		.ascii	"_T_WCHAR \000"
 7564      43484152 
 7564      2000
 7565              	.LASF649:
 7566 4cb8 5F5F5354 		.ascii	"__STDDEF_H__ \000"
 7566      44444546 
 7566      5F485F5F 
 7566      2000
 7567              	.LASF103:
 7568 4cc6 4D50555F 		.ascii	"MPU_WRAPPERS_INCLUDED_FROM_API_FILE\000"
 7568      57524150 
 7568      50455253 
 7568      5F494E43 
 7568      4C554445 
 7569              	.LASF200:
 7570 4cea 5F5F5349 		.ascii	"__SIZE_MAX__ 4294967295U\000"
 7570      5A455F4D 
 7570      41585F5F 
 7570      20343239 
 7570      34393637 
 7571              	.LASF624:
 7572 4d03 5F524545 		.ascii	"_REENT_WCSRTOMBS_STATE(ptr) ((ptr)->_misc->_wcsrtom"
 7572      4E545F57 
 7572      43535254 
 7572      4F4D4253 
 7572      5F535441 
 7573 4d36 62735F73 		.ascii	"bs_state)\000"
 7573      74617465 
ARM GAS  C:\Users\Grzybek\AppData\Local\Temp\ccXBk3wH.s 			page 205


 7573      2900
 7574              	.LASF409:
 7575 4d40 5F5F5341 		.ascii	"__SA_FBIT__ 15\000"
 7575      5F464249 
 7575      545F5F20 
 7575      313500
 7576              	.LASF546:
 7577 4d4f 5F5F494E 		.ascii	"__INT_WCHAR_T_H \000"
 7577      545F5743 
 7577      4841525F 
 7577      545F4820 
 7577      00
 7578              	.LASF508:
 7579 4d60 5F434153 		.ascii	"_CAST_VOID (void)\000"
 7579      545F564F 
 7579      49442028 
 7579      766F6964 
 7579      2900
 7580              	.LASF363:
 7581 4d72 5F5F5541 		.ascii	"__UACCUM_IBIT__ 16\000"
 7581      4343554D 
 7581      5F494249 
 7581      545F5F20 
 7581      313600
 7582              	.LASF462:
 7583 4d85 5F5F454C 		.ascii	"__ELF__ 1\000"
 7583      465F5F20 
 7583      3100
 7584              	.LASF453:
 7585 4d8f 5F5F5448 		.ascii	"__THUMBEL__ 1\000"
 7585      554D4245 
 7585      4C5F5F20 
 7585      3100
 7586              	.LASF18:
 7587 4d9d 784C6973 		.ascii	"xListItem\000"
 7587      74497465 
 7587      6D00
 7588              	.LASF98:
 7589 4da7 4D50555F 		.ascii	"MPU_WRAPPERS_INCLUDED_FROM_API_FILE \000"
 7589      57524150 
 7589      50455253 
 7589      5F494E43 
 7589      4C554445 
 7590              	.LASF541:
 7591 4dcc 5F425344 		.ascii	"_BSD_WCHAR_T_ \000"
 7591      5F574348 
 7591      41525F54 
 7591      5F2000
 7592              	.LASF388:
 7593 4ddb 5F5F5151 		.ascii	"__QQ_IBIT__ 0\000"
 7593      5F494249 
 7593      545F5F20 
 7593      3000
 7594              	.LASF239:
 7595 4de9 5F5F494E 		.ascii	"__INTPTR_MAX__ 2147483647\000"
 7595      54505452 
 7595      5F4D4158 
ARM GAS  C:\Users\Grzybek\AppData\Local\Temp\ccXBk3wH.s 			page 206


 7595      5F5F2032 
 7595      31343734 
 7596              	.LASF774:
 7597 4e03 74726163 		.ascii	"traceQUEUE_RECEIVE(pxQueue) \000"
 7597      65515545 
 7597      55455F52 
 7597      45434549 
 7597      56452870 
 7598              	.LASF592:
 7599 4e20 5F5F7265 		.ascii	"__reent_assert(x) ((void)0)\000"
 7599      656E745F 
 7599      61737365 
 7599      72742878 
 7599      29202828 
 7600              	.LASF377:
 7601 4e3c 5F5F4C4C 		.ascii	"__LLACCUM_FBIT__ 31\000"
 7601      41434355 
 7601      4D5F4642 
 7601      49545F5F 
 7601      20333100 
 7602              	.LASF203:
 7603 4e50 5F5F5549 		.ascii	"__UINTMAX_MAX__ 18446744073709551615ULL\000"
 7603      4E544D41 
 7603      585F4D41 
 7603      585F5F20 
 7603      31383434 
 7604              	.LASF46:
 7605 4e78 784E6577 		.ascii	"xNewQueue\000"
 7605      51756575 
 7605      6500
 7606              	.LASF496:
 7607 4e82 5F4E4F41 		.ascii	"_NOARGS void\000"
 7607      52475320 
 7607      766F6964 
 7607      00
 7608              	.LASF770:
 7609 4e8f 74726163 		.ascii	"traceCREATE_COUNTING_SEMAPHORE() \000"
 7609      65435245 
 7609      4154455F 
 7609      434F554E 
 7609      54494E47 
 7610              	.LASF402:
 7611 4eb1 5F5F5553 		.ascii	"__USQ_IBIT__ 0\000"
 7611      515F4942 
 7611      49545F5F 
 7611      203000
 7612              	.LASF823:
 7613 4ec0 7461736B 		.ascii	"taskEXIT_CRITICAL() portEXIT_CRITICAL()\000"
 7613      45584954 
 7613      5F435249 
 7613      54494341 
 7613      4C282920 
 7614              	.LASF177:
 7615 4ee8 5F5F5549 		.ascii	"__UINT_LEAST32_TYPE__ long unsigned int\000"
 7615      4E545F4C 
 7615      45415354 
 7615      33325F54 
ARM GAS  C:\Users\Grzybek\AppData\Local\Temp\ccXBk3wH.s 			page 207


 7615      5950455F 
 7616              	.LASF128:
 7617 4f10 5F5F474E 		.ascii	"__GNUC_MINOR__ 7\000"
 7617      55435F4D 
 7617      494E4F52 
 7617      5F5F2037 
 7617      00
 7618              	.LASF117:
 7619 4f21 71756575 		.ascii	"queueQUEUE_TYPE_MUTEX ( 1U )\000"
 7619      65515545 
 7619      55455F54 
 7619      5950455F 
 7619      4D555445 
 7620              	.LASF584:
 7621 4f3e 5F52414E 		.ascii	"_RAND48_MULT_1 (0xdeec)\000"
 7621      4434385F 
 7621      4D554C54 
 7621      5F312028 
 7621      30786465 
 7622              	.LASF158:
 7623 4f56 5F5F494E 		.ascii	"__INTMAX_TYPE__ long long int\000"
 7623      544D4158 
 7623      5F545950 
 7623      455F5F20 
 7623      6C6F6E67 
 7624              	.LASF437:
 7625 4f74 5F5F4743 		.ascii	"__GCC_ATOMIC_INT_LOCK_FREE 2\000"
 7625      435F4154 
 7625      4F4D4943 
 7625      5F494E54 
 7625      5F4C4F43 
 7626              	.LASF75:
 7627 4f91 75785175 		.ascii	"uxQueueMessagesWaitingFromISR\000"
 7627      6575654D 
 7627      65737361 
 7627      67657357 
 7627      61697469 
 7628              	.LASF580:
 7629 4faf 5F52414E 		.ascii	"_RAND48_SEED_0 (0x330e)\000"
 7629      4434385F 
 7629      53454544 
 7629      5F302028 
 7629      30783333 
 7630              	.LASF769:
 7631 4fc7 74726163 		.ascii	"traceTAKE_MUTEX_RECURSIVE_FAILED(pxMutex) \000"
 7631      6554414B 
 7631      455F4D55 
 7631      5445585F 
 7631      52454355 
 7632              	.LASF577:
 7633 4ff2 5F5F4C6F 		.ascii	"__Long long\000"
 7633      6E67206C 
 7633      6F6E6700 
 7634              	.LASF558:
 7635 4ffe 5F5F5F69 		.ascii	"___int_least32_t_defined 1\000"
 7635      6E745F6C 
 7635      65617374 
ARM GAS  C:\Users\Grzybek\AppData\Local\Temp\ccXBk3wH.s 			page 208


 7635      33325F74 
 7635      5F646566 
 7636              	.LASF531:
 7637 5019 5F53495A 		.ascii	"_SIZET_ \000"
 7637      45545F20 
 7637      00
 7638              	.LASF706:
 7639 5022 706F7274 		.ascii	"portLONG long\000"
 7639      4C4F4E47 
 7639      206C6F6E 
 7639      6700
 7640              	.LASF88:
 7641 5030 5F535444 		.ascii	"_STDLIB_H_ \000"
 7641      4C49425F 
 7641      485F2000 
 7642              	.LASF271:
 7643 503c 5F5F4442 		.ascii	"__DBL_HAS_QUIET_NAN__ 1\000"
 7643      4C5F4841 
 7643      535F5155 
 7643      4945545F 
 7643      4E414E5F 
 7644              	.LASF688:
 7645 5054 636F6E66 		.ascii	"configUSE_RECURSIVE_MUTEXES 1\000"
 7645      69675553 
 7645      455F5245 
 7645      43555253 
 7645      4956455F 
 7646              	.LASF830:
 7647 5072 78546173 		.ascii	"xTaskCreateRestricted(x,pxCreatedTask) xTaskGeneric"
 7647      6B437265 
 7647      61746552 
 7647      65737472 
 7647      69637465 
 7648 50a5 43726561 		.ascii	"Create( ((x)->pvTaskCode), ((x)->pcName), ((x)->usS"
 7648      74652820 
 7648      28287829 
 7648      2D3E7076 
 7648      5461736B 
 7649 50d8 7461636B 		.ascii	"tackDepth), ((x)->pvParameters), ((x)->uxPriority),"
 7649      44657074 
 7649      68292C20 
 7649      28287829 
 7649      2D3E7076 
 7650 510b 20287078 		.ascii	" (pxCreatedTask), ((x)->puxStackBuffer), ((x)->xReg"
 7650      43726561 
 7650      74656454 
 7650      61736B29 
 7650      2C202828 
 7651 513e 696F6E73 		.ascii	"ions) )\000"
 7651      29202900 
 7652              	.LASF340:
 7653 5146 5F5F4C4C 		.ascii	"__LLFRACT_MAX__ 0X7FFFFFFFFFFFFFFFP-63LLR\000"
 7653      46524143 
 7653      545F4D41 
 7653      585F5F20 
 7653      30583746 
 7654              	.LASF302:
ARM GAS  C:\Users\Grzybek\AppData\Local\Temp\ccXBk3wH.s 			page 209


 7655 5170 5F5F4445 		.ascii	"__DEC128_MAX_EXP__ 6145\000"
 7655      43313238 
 7655      5F4D4158 
 7655      5F455850 
 7655      5F5F2036 
 7656              	.LASF694:
 7657 5188 494E434C 		.ascii	"INCLUDE_vTaskCleanUpResources 0\000"
 7657      5544455F 
 7657      76546173 
 7657      6B436C65 
 7657      616E5570 
 7658              	.LASF350:
 7659 51a8 5F5F5341 		.ascii	"__SACCUM_MAX__ 0X7FFFP-7HK\000"
 7659      4343554D 
 7659      5F4D4158 
 7659      5F5F2030 
 7659      58374646 
 7660              	.LASF631:
 7661 51c3 5F474C4F 		.ascii	"_GLOBAL_REENT _global_impure_ptr\000"
 7661      42414C5F 
 7661      5245454E 
 7661      54205F67 
 7661      6C6F6261 
 7662              	.LASF188:
 7663 51e4 5F5F5549 		.ascii	"__UINTPTR_TYPE__ unsigned int\000"
 7663      4E545054 
 7663      525F5459 
 7663      50455F5F 
 7663      20756E73 
 7664              	.LASF645:
 7665 5202 7374726E 		.ascii	"strnicmp strncasecmp\000"
 7665      69636D70 
 7665      20737472 
 7665      6E636173 
 7665      65636D70 
 7666              	.LASF423:
 7667 5217 5F5F5245 		.ascii	"__REGISTER_PREFIX__ \000"
 7667      47495354 
 7667      45525F50 
 7667      52454649 
 7667      585F5F20 
 7668              	.LASF306:
 7669 522c 5F5F4445 		.ascii	"__DEC128_SUBNORMAL_MIN__ 0.000000000000000000000000"
 7669      43313238 
 7669      5F535542 
 7669      4E4F524D 
 7669      414C5F4D 
 7670 525f 30303030 		.ascii	"000000001E-6143DL\000"
 7670      30303030 
 7670      31452D36 
 7670      31343344 
 7670      4C00
 7671              	.LASF259:
 7672 5271 5F5F4442 		.ascii	"__DBL_DIG__ 15\000"
 7672      4C5F4449 
 7672      475F5F20 
 7672      313500
ARM GAS  C:\Users\Grzybek\AppData\Local\Temp\ccXBk3wH.s 			page 210


 7673              	.LASF336:
 7674 5280 5F5F554C 		.ascii	"__ULFRACT_EPSILON__ 0x1P-32ULR\000"
 7674      46524143 
 7674      545F4550 
 7674      53494C4F 
 7674      4E5F5F20 
 7675              	.LASF116:
 7676 529f 71756575 		.ascii	"queueQUEUE_TYPE_BASE ( 0U )\000"
 7676      65515545 
 7676      55455F54 
 7676      5950455F 
 7676      42415345 
 7677              	.LASF625:
 7678 52bb 5F524545 		.ascii	"_REENT_L64A_BUF(ptr) ((ptr)->_misc->_l64a_buf)\000"
 7678      4E545F4C 
 7678      3634415F 
 7678      42554628 
 7678      70747229 
 7679              	.LASF145:
 7680 52ea 5F5F5349 		.ascii	"__SIZEOF_SIZE_T__ 4\000"
 7680      5A454F46 
 7680      5F53495A 
 7680      455F545F 
 7680      5F203400 
 7681              	.LASF22:
 7682 52fe 784C4953 		.ascii	"xLIST\000"
 7682      5400
 7683              	.LASF170:
 7684 5304 5F5F5549 		.ascii	"__UINT64_TYPE__ long long unsigned int\000"
 7684      4E543634 
 7684      5F545950 
 7684      455F5F20 
 7684      6C6F6E67 
 7685              	.LASF303:
 7686 532b 5F5F4445 		.ascii	"__DEC128_MIN__ 1E-6143DL\000"
 7686      43313238 
 7686      5F4D494E 
 7686      5F5F2031 
 7686      452D3631 
 7687              	.LASF222:
 7688 5344 5F5F494E 		.ascii	"__INT64_C(c) c ## LL\000"
 7688      5436345F 
 7688      43286329 
 7688      20632023 
 7688      23204C4C 
 7689              	.LASF66:
 7690 5359 70784869 		.ascii	"pxHigherPriorityTaskWoken\000"
 7690      67686572 
 7690      5072696F 
 7690      72697479 
 7690      5461736B 
 7691              	.LASF479:
 7692 5373 48415645 		.ascii	"HAVE_INITFINI_ARRAY 1\000"
 7692      5F494E49 
 7692      5446494E 
 7692      495F4152 
 7692      52415920 
ARM GAS  C:\Users\Grzybek\AppData\Local\Temp\ccXBk3wH.s 			page 211


 7693              	.LASF467:
 7694 5389 4743435F 		.ascii	"GCC_ARMCM3 1\000"
 7694      41524D43 
 7694      4D332031 
 7694      00
 7695              	.LASF490:
 7696 5396 5F484156 		.ascii	"_HAVE_STDC \000"
 7696      455F5354 
 7696      44432000 
 7697              	.LASF473:
 7698 53a2 5F5F4353 		.ascii	"__CS_SOURCERYGXX_REV__ 63\000"
 7698      5F534F55 
 7698      52434552 
 7698      59475858 
 7698      5F524556 
 7699              	.LASF664:
 7700 53bc 70644641 		.ascii	"pdFALSE ( 0 )\000"
 7700      4C534520 
 7700      28203020 
 7700      2900
 7701              	.LASF280:
 7702 53ca 5F5F4C44 		.ascii	"__LDBL_MIN__ 2.2250738585072014e-308L\000"
 7702      424C5F4D 
 7702      494E5F5F 
 7702      20322E32 
 7702      32353037 
 7703              	.LASF764:
 7704 53f0 74726163 		.ascii	"traceCREATE_MUTEX(pxNewQueue) \000"
 7704      65435245 
 7704      4154455F 
 7704      4D555445 
 7704      58287078 
 7705              	.LASF358:
 7706 540f 5F5F4143 		.ascii	"__ACCUM_IBIT__ 16\000"
 7706      43554D5F 
 7706      49424954 
 7706      5F5F2031 
 7706      3600
 7707              	.LASF212:
 7708 5421 5F5F5549 		.ascii	"__UINT16_MAX__ 65535\000"
 7708      4E543136 
 7708      5F4D4158 
 7708      5F5F2036 
 7708      35353335 
 7709              	.LASF52:
 7710 5436 78517565 		.ascii	"xQueueSizeInBytes\000"
 7710      75655369 
 7710      7A65496E 
 7710      42797465 
 7710      7300
 7711              	.LASF704:
 7712 5448 706F7274 		.ascii	"portFLOAT float\000"
 7712      464C4F41 
 7712      5420666C 
 7712      6F617400 
 7713              	.LASF797:
 7714 5458 636F6E66 		.ascii	"configGENERATE_RUN_TIME_STATS 0\000"
ARM GAS  C:\Users\Grzybek\AppData\Local\Temp\ccXBk3wH.s 			page 212


 7714      69674745 
 7714      4E455241 
 7714      54455F52 
 7714      554E5F54 
 7715              	.LASF787:
 7716 5478 74726163 		.ascii	"traceTASK_PRIORITY_SET(pxTask,uxNewPriority) \000"
 7716      65544153 
 7716      4B5F5052 
 7716      494F5249 
 7716      54595F53 
 7717              	.LASF641:
 7718 54a6 5F535452 		.ascii	"_STRING_H_ \000"
 7718      494E475F 
 7718      485F2000 
 7719              	.LASF3:
 7720 54b2 73686F72 		.ascii	"short int\000"
 7720      7420696E 
 7720      7400
 7721              	.LASF646:
 7722 54bc 5F535444 		.ascii	"_STDDEF_H \000"
 7722      4445465F 
 7722      482000
 7723              	.LASF768:
 7724 54c7 74726163 		.ascii	"traceTAKE_MUTEX_RECURSIVE(pxMutex) \000"
 7724      6554414B 
 7724      455F4D55 
 7724      5445585F 
 7724      52454355 
 7725              	.LASF226:
 7726 54eb 5F5F5549 		.ascii	"__UINT16_C(c) c\000"
 7726      4E543136 
 7726      5F432863 
 7726      29206300 
 7727              	.LASF420:
 7728 54fb 5F5F5544 		.ascii	"__UDA_IBIT__ 32\000"
 7728      415F4942 
 7728      49545F5F 
 7728      20333200 
 7729              	.LASF775:
 7730 550b 74726163 		.ascii	"traceQUEUE_PEEK(pxQueue) \000"
 7730      65515545 
 7730      55455F50 
 7730      45454B28 
 7730      70785175 
 7731              	.LASF426:
 7732 5525 5F5F4E4F 		.ascii	"__NO_INLINE__ 1\000"
 7732      5F494E4C 
 7732      494E455F 
 7732      5F203100 
 7733              	.LASF131:
 7734 5535 5F5F4154 		.ascii	"__ATOMIC_RELAXED 0\000"
 7734      4F4D4943 
 7734      5F52454C 
 7734      41584544 
 7734      203000
 7735              	.LASF512:
 7736 5548 5F415454 		.ascii	"_ATTRIBUTE(attrs) __attribute__ (attrs)\000"
ARM GAS  C:\Users\Grzybek\AppData\Local\Temp\ccXBk3wH.s 			page 213


 7736      52494255 
 7736      54452861 
 7736      74747273 
 7736      29205F5F 
 7737              	.LASF629:
 7738 5570 5F5F4154 		.ascii	"__ATTRIBUTE_IMPURE_PTR__ \000"
 7738      54524942 
 7738      5554455F 
 7738      494D5055 
 7738      52455F50 
 7739              	.LASF270:
 7740 558a 5F5F4442 		.ascii	"__DBL_HAS_INFINITY__ 1\000"
 7740      4C5F4841 
 7740      535F494E 
 7740      46494E49 
 7740      54595F5F 
 7741              	.LASF219:
 7742 55a1 5F5F494E 		.ascii	"__INT_LEAST32_MAX__ 2147483647L\000"
 7742      545F4C45 
 7742      41535433 
 7742      325F4D41 
 7742      585F5F20 
 7743              	.LASF583:
 7744 55c1 5F52414E 		.ascii	"_RAND48_MULT_0 (0xe66d)\000"
 7744      4434385F 
 7744      4D554C54 
 7744      5F302028 
 7744      30786536 
 7745              	.LASF597:
 7746 55d9 5F524545 		.ascii	"_REENT_CHECK_RAND48(var) _REENT_CHECK(var, _r48, st"
 7746      4E545F43 
 7746      4845434B 
 7746      5F52414E 
 7746      44343828 
 7747 560c 72756374 		.ascii	"ruct _rand48 *, sizeof *((var)->_r48), _REENT_INIT_"
 7747      205F7261 
 7747      6E643438 
 7747      202A2C20 
 7747      73697A65 
 7748 563f 52414E44 		.ascii	"RAND48((var)))\000"
 7748      34382828 
 7748      76617229 
 7748      292900
 7749              	.LASF702:
 7750 564e 504F5254 		.ascii	"PORTMACRO_H \000"
 7750      4D414352 
 7750      4F5F4820 
 7750      00
 7751              	.LASF129:
 7752 565b 5F5F474E 		.ascii	"__GNUC_PATCHLEVEL__ 2\000"
 7752      55435F50 
 7752      41544348 
 7752      4C455645 
 7752      4C5F5F20 
 7753              	.LASF460:
 7754 5671 5F5F4152 		.ascii	"__ARM_ARCH_EXT_IDIV__ 1\000"
 7754      4D5F4152 
ARM GAS  C:\Users\Grzybek\AppData\Local\Temp\ccXBk3wH.s 			page 214


 7754      43485F45 
 7754      58545F49 
 7754      4449565F 
 7755              	.LASF191:
 7756 5689 5F5F5348 		.ascii	"__SHRT_MAX__ 32767\000"
 7756      52545F4D 
 7756      41585F5F 
 7756      20333237 
 7756      363700
 7757              	.LASF658:
 7758 569c 5F5F6E65 		.ascii	"__need_ptrdiff_t\000"
 7758      65645F70 
 7758      74726469 
 7758      66665F74 
 7758      00
 7759              	.LASF264:
 7760 56ad 5F5F4442 		.ascii	"__DBL_DECIMAL_DIG__ 17\000"
 7760      4C5F4445 
 7760      43494D41 
 7760      4C5F4449 
 7760      475F5F20 
 7761              	.LASF654:
 7762 56c4 5F505452 		.ascii	"_PTRDIFF_T_ \000"
 7762      44494646 
 7762      5F545F20 
 7762      00
 7763              	.LASF227:
 7764 56d1 5F5F5549 		.ascii	"__UINT_LEAST32_MAX__ 4294967295UL\000"
 7764      4E545F4C 
 7764      45415354 
 7764      33325F4D 
 7764      41585F5F 
 7765              	.LASF372:
 7766 56f3 5F5F554C 		.ascii	"__ULACCUM_FBIT__ 32\000"
 7766      41434355 
 7766      4D5F4642 
 7766      49545F5F 
 7766      20333200 
 7767              	.LASF762:
 7768 5707 74726163 		.ascii	"traceQUEUE_CREATE(pxNewQueue) \000"
 7768      65515545 
 7768      55455F43 
 7768      52454154 
 7768      45287078 
 7769              	.LASF100:
 7770 5726 636F6E66 		.ascii	"configUSE_PORT_OPTIMISED_TASK_SELECTION 0\000"
 7770      69675553 
 7770      455F504F 
 7770      52545F4F 
 7770      5054494D 
 7771              	.LASF477:
 7772 5750 5F57414E 		.ascii	"_WANT_REGISTER_FINI 1\000"
 7772      545F5245 
 7772      47495354 
 7772      45525F46 
 7772      494E4920 
 7773              	.LASF708:
ARM GAS  C:\Users\Grzybek\AppData\Local\Temp\ccXBk3wH.s 			page 215


 7774 5766 706F7274 		.ascii	"portSTACK_TYPE unsigned portLONG\000"
 7774      53544143 
 7774      4B5F5459 
 7774      50452075 
 7774      6E736967 
 7775              	.LASF106:
 7776 5787 71756575 		.ascii	"queueERRONEOUS_UNBLOCK ( -1 )\000"
 7776      65455252 
 7776      4F4E454F 
 7776      55535F55 
 7776      4E424C4F 
 7777              	.LASF535:
 7778 57a5 5F5F5743 		.ascii	"__WCHAR_T__ \000"
 7778      4841525F 
 7778      545F5F20 
 7778      00
 7779              	.LASF97:
 7780 57b2 5F4D4143 		.ascii	"_MACHSTDLIB_H_ \000"
 7780      48535444 
 7780      4C49425F 
 7780      485F2000 
 7781              	.LASF465:
 7782 57c2 5553455F 		.ascii	"USE_STDPERIPH_DRIVER 1\000"
 7782      53544450 
 7782      45524950 
 7782      485F4452 
 7782      49564552 
 7783              	.LASF193:
 7784 57d9 5F5F4C4F 		.ascii	"__LONG_MAX__ 2147483647L\000"
 7784      4E475F4D 
 7784      41585F5F 
 7784      20323134 
 7784      37343833 
 7785              	.LASF387:
 7786 57f2 5F5F5151 		.ascii	"__QQ_FBIT__ 7\000"
 7786      5F464249 
 7786      545F5F20 
 7786      3700
 7787              	.LASF334:
 7788 5800 5F5F554C 		.ascii	"__ULFRACT_MIN__ 0.0ULR\000"
 7788      46524143 
 7788      545F4D49 
 7788      4E5F5F20 
 7788      302E3055 
 7789              	.LASF722:
 7790 5817 706F7274 		.ascii	"portTASK_FUNCTION_PROTO(vFunction,pvParameters) voi"
 7790      5441534B 
 7790      5F46554E 
 7790      4354494F 
 7790      4E5F5052 
 7791 584a 64207646 		.ascii	"d vFunction( void *pvParameters )\000"
 7791      756E6374 
 7791      696F6E28 
 7791      20766F69 
 7791      64202A70 
 7792              	.LASF422:
 7793 586c 5F5F5554 		.ascii	"__UTA_IBIT__ 64\000"
ARM GAS  C:\Users\Grzybek\AppData\Local\Temp\ccXBk3wH.s 			page 216


 7793      415F4942 
 7793      49545F5F 
 7793      20363400 
 7794              	.LASF383:
 7795 587c 5F5F554C 		.ascii	"__ULLACCUM_IBIT__ 32\000"
 7795      4C414343 
 7795      554D5F49 
 7795      4249545F 
 7795      5F203332 
 7796              	.LASF718:
 7797 5891 706F7274 		.ascii	"portDISABLE_INTERRUPTS() ulPortSetInterruptMask()\000"
 7797      44495341 
 7797      424C455F 
 7797      494E5445 
 7797      52525550 
 7798              	.LASF809:
 7799 58c3 6C697374 		.ascii	"listSET_LIST_ITEM_VALUE(pxListItem,xValue) ( pxList"
 7799      5345545F 
 7799      4C495354 
 7799      5F495445 
 7799      4D5F5641 
 7800 58f6 4974656D 		.ascii	"Item )->xItemValue = ( xValue )\000"
 7800      20292D3E 
 7800      78497465 
 7800      6D56616C 
 7800      7565203D 
 7801              	.LASF346:
 7802 5916 5F5F554C 		.ascii	"__ULLFRACT_EPSILON__ 0x1P-64ULLR\000"
 7802      4C465241 
 7802      43545F45 
 7802      5053494C 
 7802      4F4E5F5F 
 7803              	.LASF445:
 7804 5937 5F5F5349 		.ascii	"__SIZEOF_WINT_T__ 4\000"
 7804      5A454F46 
 7804      5F57494E 
 7804      545F545F 
 7804      5F203400 
 7805              	.LASF447:
 7806 594b 5F5F4152 		.ascii	"__ARM_FEATURE_UNALIGNED 1\000"
 7806      4D5F4645 
 7806      41545552 
 7806      455F554E 
 7806      414C4947 
 7807              	.LASF40:
 7808 5965 75784974 		.ascii	"uxItemSize\000"
 7808      656D5369 
 7808      7A6500
 7809              	.LASF501:
 7810 5970 5F564F49 		.ascii	"_VOID void\000"
 7810      4420766F 
 7810      696400
 7811              	.LASF369:
 7812 597b 5F5F4C41 		.ascii	"__LACCUM_MIN__ (-0X1P31LK-0X1P31LK)\000"
 7812      4343554D 
 7812      5F4D494E 
 7812      5F5F2028 
ARM GAS  C:\Users\Grzybek\AppData\Local\Temp\ccXBk3wH.s 			page 217


 7812      2D305831 
 7813              	.LASF268:
 7814 599f 5F5F4442 		.ascii	"__DBL_DENORM_MIN__ ((double)4.9406564584124654e-324"
 7814      4C5F4445 
 7814      4E4F524D 
 7814      5F4D494E 
 7814      5F5F2028 
 7815 59d2 4C2900   		.ascii	"L)\000"
 7816              	.LASF384:
 7817 59d5 5F5F554C 		.ascii	"__ULLACCUM_MIN__ 0.0ULLK\000"
 7817      4C414343 
 7817      554D5F4D 
 7817      494E5F5F 
 7817      20302E30 
 7818              	.LASF545:
 7819 59ee 5F5F5F69 		.ascii	"___int_wchar_t_h \000"
 7819      6E745F77 
 7819      63686172 
 7819      5F745F68 
 7819      2000
 7820              	.LASF30:
 7821 5a00 7854696D 		.ascii	"xTimeOutType\000"
 7821      654F7574 
 7821      54797065 
 7821      00
 7822              	.LASF813:
 7823 5a0d 6C697374 		.ascii	"listCURRENT_LIST_LENGTH(pxList) ( ( pxList )->uxNum"
 7823      43555252 
 7823      454E545F 
 7823      4C495354 
 7823      5F4C454E 
 7824 5a40 6265724F 		.ascii	"berOfItems )\000"
 7824      66497465 
 7824      6D732029 
 7824      00
 7825              	.LASF640:
 7826 5a4d 73747274 		.ascii	"strtodf strtof\000"
 7826      6F646620 
 7826      73747274 
 7826      6F6600
 7827              	.LASF169:
 7828 5a5c 5F5F5549 		.ascii	"__UINT32_TYPE__ long unsigned int\000"
 7828      4E543332 
 7828      5F545950 
 7828      455F5F20 
 7828      6C6F6E67 
 7829              	.LASF451:
 7830 5a7e 5F5F7468 		.ascii	"__thumb2__ 1\000"
 7830      756D6232 
 7830      5F5F2031 
 7830      00
 7831              	.LASF825:
 7832 5a8b 7461736B 		.ascii	"taskENABLE_INTERRUPTS() portENABLE_INTERRUPTS()\000"
 7832      454E4142 
 7832      4C455F49 
 7832      4E544552 
 7832      52555054 
ARM GAS  C:\Users\Grzybek\AppData\Local\Temp\ccXBk3wH.s 			page 218


 7833              	.LASF77:
 7834 5abb 70727643 		.ascii	"prvCopyDataToQueue\000"
 7834      6F707944 
 7834      61746154 
 7834      6F517565 
 7834      756500
 7835              	.LASF530:
 7836 5ace 5F474343 		.ascii	"_GCC_SIZE_T \000"
 7836      5F53495A 
 7836      455F5420 
 7836      00
 7837              	.LASF725:
 7838 5adb 706F7274 		.ascii	"portNOP() \000"
 7838      4E4F5028 
 7838      292000
 7839              	.LASF344:
 7840 5ae6 5F5F554C 		.ascii	"__ULLFRACT_MIN__ 0.0ULLR\000"
 7840      4C465241 
 7840      43545F4D 
 7840      494E5F5F 
 7840      20302E30 
 7841              	.LASF537:
 7842 5aff 5F545F57 		.ascii	"_T_WCHAR_ \000"
 7842      43484152 
 7842      5F2000
 7843              	.LASF573:
 7844 5b0a 5F5F6C6F 		.ascii	"__lock_release_recursive(lock) (_CAST_VOID 0)\000"
 7844      636B5F72 
 7844      656C6561 
 7844      73655F72 
 7844      65637572 
 7845              	.LASF716:
 7846 5b38 706F7274 		.ascii	"portSET_INTERRUPT_MASK_FROM_ISR() ulPortSetInterrup"
 7846      5345545F 
 7846      494E5445 
 7846      52525550 
 7846      545F4D41 
 7847 5b6b 744D6173 		.ascii	"tMask()\000"
 7847      6B282900 
 7848              	.LASF138:
 7849 5b73 5F5F5349 		.ascii	"__SIZEOF_INT__ 4\000"
 7849      5A454F46 
 7849      5F494E54 
 7849      5F5F2034 
 7849      00
 7850              	.LASF549:
 7851 5b84 5F425344 		.ascii	"_BSD_WCHAR_T_\000"
 7851      5F574348 
 7851      41525F54 
 7851      5F00
 7852              	.LASF338:
 7853 5b92 5F5F4C4C 		.ascii	"__LLFRACT_IBIT__ 0\000"
 7853      46524143 
 7853      545F4942 
 7853      49545F5F 
 7853      203000
 7854              	.LASF483:
ARM GAS  C:\Users\Grzybek\AppData\Local\Temp\ccXBk3wH.s 			page 219


 7855 5ba5 5F524545 		.ascii	"_REENT_SMALL \000"
 7855      4E545F53 
 7855      4D414C4C 
 7855      2000
 7856              	.LASF714:
 7857 5bb3 706F7274 		.ascii	"portYIELD() vPortYieldFromISR()\000"
 7857      5949454C 
 7857      44282920 
 7857      76506F72 
 7857      74596965 
 7858              	.LASF591:
 7859 5bd3 5F524545 		.ascii	"_REENT_INIT_PTR(var) { (var)->_stdin = (__FILE *)&_"
 7859      4E545F49 
 7859      4E49545F 
 7859      50545228 
 7859      76617229 
 7860 5c06 5F73665F 		.ascii	"_sf_fake_stdin; (var)->_stdout = (__FILE *)&__sf_fa"
 7860      66616B65 
 7860      5F737464 
 7860      696E3B20 
 7860      28766172 
 7861 5c39 6B655F73 		.ascii	"ke_stdout; (var)->_stderr = (__FILE *)&__sf_fake_st"
 7861      74646F75 
 7861      743B2028 
 7861      76617229 
 7861      2D3E5F73 
 7862 5c6c 64657272 		.ascii	"derr; (var)->_errno = 0; (var)->_inc = 0; (var)->_e"
 7862      3B202876 
 7862      6172292D 
 7862      3E5F6572 
 7862      726E6F20 
 7863 5c9f 6D657267 		.ascii	"mergency = _NULL; (var)->__sdidinit = 0; (var)->_cu"
 7863      656E6379 
 7863      203D205F 
 7863      4E554C4C 
 7863      3B202876 
 7864 5cd2 7272656E 		.ascii	"rrent_category = 0; (var)->_current_locale = \"C\";"
 7864      745F6361 
 7864      7465676F 
 7864      7279203D 
 7864      20303B20 
 7865 5d03 20287661 		.ascii	" (var)->_mp = _NULL; (var)->__cleanup = _NULL; (var"
 7865      72292D3E 
 7865      5F6D7020 
 7865      3D205F4E 
 7865      554C4C3B 
 7866 5d36 292D3E5F 		.ascii	")->_gamma_signgam = 0; (var)->_cvtlen = 0; (var)->_"
 7866      67616D6D 
 7866      615F7369 
 7866      676E6761 
 7866      6D203D20 
 7867 5d69 63767462 		.ascii	"cvtbuf = _NULL; (var)->_r48 = _NULL; (var)->_localt"
 7867      7566203D 
 7867      205F4E55 
 7867      4C4C3B20 
 7867      28766172 
 7868 5d9c 696D655F 		.ascii	"ime_buf = _NULL; (var)->_asctime_buf = _NULL; (var)"
ARM GAS  C:\Users\Grzybek\AppData\Local\Temp\ccXBk3wH.s 			page 220


 7868      62756620 
 7868      3D205F4E 
 7868      554C4C3B 
 7868      20287661 
 7869 5dcf 2D3E5F73 		.ascii	"->_sig_func = _NULL; (var)->_atexit = _NULL; (var)-"
 7869      69675F66 
 7869      756E6320 
 7869      3D205F4E 
 7869      554C4C3B 
 7870 5e02 3E5F6174 		.ascii	">_atexit0._next = _NULL; (var)->_atexit0._ind = 0; "
 7870      65786974 
 7870      302E5F6E 
 7870      65787420 
 7870      3D205F4E 
 7871 5e35 28766172 		.ascii	"(var)->_atexit0._fns[0] = _NULL; (var)->_atexit0._o"
 7871      292D3E5F 
 7871      61746578 
 7871      6974302E 
 7871      5F666E73 
 7872 5e68 6E5F6578 		.ascii	"n_exit_args_ptr = _NULL; (var)->__sglue._next = _NU"
 7872      69745F61 
 7872      7267735F 
 7872      70747220 
 7872      3D205F4E 
 7873 5e9b 4C4C3B20 		.ascii	"LL; (var)->__sglue._niobs = 0; (var)->__sglue._iobs"
 7873      28766172 
 7873      292D3E5F 
 7873      5F73676C 
 7873      75652E5F 
 7874 5ece 203D205F 		.ascii	" = _NULL; (var)->__sf = 0; (var)->_misc = _NULL; (v"
 7874      4E554C4C 
 7874      3B202876 
 7874      6172292D 
 7874      3E5F5F73 
 7875 5f01 6172292D 		.ascii	"ar)->_signal_buf = _NULL; }\000"
 7875      3E5F7369 
 7875      676E616C 
 7875      5F627566 
 7875      203D205F 
 7876              	.LASF351:
 7877 5f1d 5F5F5341 		.ascii	"__SACCUM_EPSILON__ 0x1P-7HK\000"
 7877      4343554D 
 7877      5F455053 
 7877      494C4F4E 
 7877      5F5F2030 
 7878              	.LASF108:
 7879 5f39 71756575 		.ascii	"queueSEND_TO_FRONT ( 1 )\000"
 7879      6553454E 
 7879      445F544F 
 7879      5F46524F 
 7879      4E542028 
 7880              	.LASF612:
 7881 5f52 5F524545 		.ascii	"_REENT_MP_FREELIST(ptr) ((ptr)->_mp->_freelist)\000"
 7881      4E545F4D 
 7881      505F4652 
 7881      45454C49 
 7881      53542870 
ARM GAS  C:\Users\Grzybek\AppData\Local\Temp\ccXBk3wH.s 			page 221


 7882              	.LASF119:
 7883 5f82 71756575 		.ascii	"queueQUEUE_TYPE_BINARY_SEMAPHORE ( 3U )\000"
 7883      65515545 
 7883      55455F54 
 7883      5950455F 
 7883      42494E41 
 7884              	.LASF184:
 7885 5faa 5F5F5549 		.ascii	"__UINT_FAST16_TYPE__ unsigned int\000"
 7885      4E545F46 
 7885      41535431 
 7885      365F5459 
 7885      50455F5F 
 7886              	.LASF617:
 7887 5fcc 5F524545 		.ascii	"_REENT_MBLEN_STATE(ptr) ((ptr)->_misc->_mblen_state"
 7887      4E545F4D 
 7887      424C454E 
 7887      5F535441 
 7887      54452870 
 7888 5fff 2900     		.ascii	")\000"
 7889              	.LASF96:
 7890 6001 5F5F6E65 		.ascii	"__need_wint_t \000"
 7890      65645F77 
 7890      696E745F 
 7890      742000
 7891              	.LASF361:
 7892 6010 5F5F4143 		.ascii	"__ACCUM_EPSILON__ 0x1P-15K\000"
 7892      43554D5F 
 7892      45505349 
 7892      4C4F4E5F 
 7892      5F203078 
 7893              	.LASF376:
 7894 602b 5F5F554C 		.ascii	"__ULACCUM_EPSILON__ 0x1P-32ULK\000"
 7894      41434355 
 7894      4D5F4550 
 7894      53494C4F 
 7894      4E5F5F20 
 7895              	.LASF273:
 7896 604a 5F5F4C44 		.ascii	"__LDBL_DIG__ 15\000"
 7896      424C5F44 
 7896      49475F5F 
 7896      20313500 
 7897              	.LASF609:
 7898 605a 5F524545 		.ascii	"_REENT_MP_RESULT(ptr) ((ptr)->_mp->_result)\000"
 7898      4E545F4D 
 7898      505F5245 
 7898      53554C54 
 7898      28707472 
 7899              	.LASF198:
 7900 6086 5F5F5749 		.ascii	"__WINT_MIN__ 0U\000"
 7900      4E545F4D 
 7900      494E5F5F 
 7900      20305500 
 7901              	.LASF298:
 7902 6096 5F5F4445 		.ascii	"__DEC64_EPSILON__ 1E-15DD\000"
 7902      4336345F 
 7902      45505349 
 7902      4C4F4E5F 
ARM GAS  C:\Users\Grzybek\AppData\Local\Temp\ccXBk3wH.s 			page 222


 7902      5F203145 
 7903              	.LASF736:
 7904 60b0 636F6E66 		.ascii	"configUSE_APPLICATION_TASK_TAG 0\000"
 7904      69675553 
 7904      455F4150 
 7904      504C4943 
 7904      4154494F 
 7905              	.LASF685:
 7906 60d1 636F6E66 		.ascii	"configIDLE_SHOULD_YIELD 1\000"
 7906      69674944 
 7906      4C455F53 
 7906      484F554C 
 7906      445F5949 
 7907              	.LASF172:
 7908 60eb 5F5F494E 		.ascii	"__INT_LEAST16_TYPE__ short int\000"
 7908      545F4C45 
 7908      41535431 
 7908      365F5459 
 7908      50455F5F 
 7909              	.LASF265:
 7910 610a 5F5F4442 		.ascii	"__DBL_MAX__ ((double)1.7976931348623157e+308L)\000"
 7910      4C5F4D41 
 7910      585F5F20 
 7910      2828646F 
 7910      75626C65 
 7911              	.LASF494:
 7912 6139 5F505452 		.ascii	"_PTR void *\000"
 7912      20766F69 
 7912      64202A00 
 7913              	.LASF337:
 7914 6145 5F5F4C4C 		.ascii	"__LLFRACT_FBIT__ 63\000"
 7914      46524143 
 7914      545F4642 
 7914      49545F5F 
 7914      20363300 
 7915              	.LASF534:
 7916 6159 5F5F7763 		.ascii	"__wchar_t__ \000"
 7916      6861725F 
 7916      745F5F20 
 7916      00
 7917              	.LASF450:
 7918 6166 5F5F7468 		.ascii	"__thumb__ 1\000"
 7918      756D625F 
 7918      5F203100 
 7919              	.LASF277:
 7920 6172 5F5F4C44 		.ascii	"__LDBL_MAX_10_EXP__ 308\000"
 7920      424C5F4D 
 7920      41585F31 
 7920      305F4558 
 7920      505F5F20 
 7921              	.LASF236:
 7922 618a 5F5F5549 		.ascii	"__UINT_FAST16_MAX__ 4294967295U\000"
 7922      4E545F46 
 7922      41535431 
 7922      365F4D41 
 7922      585F5F20 
 7923              	.LASF565:
ARM GAS  C:\Users\Grzybek\AppData\Local\Temp\ccXBk3wH.s 			page 223


 7924 61aa 5F5F6C6F 		.ascii	"__lock_init_recursive(lock) (_CAST_VOID 0)\000"
 7924      636B5F69 
 7924      6E69745F 
 7924      72656375 
 7924      72736976 
 7925              	.LASF389:
 7926 61d5 5F5F4851 		.ascii	"__HQ_FBIT__ 15\000"
 7926      5F464249 
 7926      545F5F20 
 7926      313500
 7927              	.LASF42:
 7928 61e4 7854784C 		.ascii	"xTxLock\000"
 7928      6F636B00 
 7929              	.LASF68:
 7930 61ec 78517565 		.ascii	"xQueueGenericReceive\000"
 7930      75654765 
 7930      6E657269 
 7930      63526563 
 7930      65697665 
 7931              	.LASF51:
 7932 6201 70784E65 		.ascii	"pxNewQueue\000"
 7932      77517565 
 7932      756500
 7933              	.LASF586:
 7934 620c 5F52414E 		.ascii	"_RAND48_ADD (0x000b)\000"
 7934      4434385F 
 7934      41444420 
 7934      28307830 
 7934      30306229 
 7935              	.LASF636:
 7936 6221 45584954 		.ascii	"EXIT_FAILURE 1\000"
 7936      5F464149 
 7936      4C555245 
 7936      203100
 7937              	.LASF749:
 7938 6230 636F6E66 		.ascii	"configQUEUE_REGISTRY_SIZE 0U\000"
 7938      69675155 
 7938      4555455F 
 7938      52454749 
 7938      53545259 
 7939              	.LASF671:
 7940 624d 65727251 		.ascii	"errQUEUE_BLOCKED ( -4 )\000"
 7940      55455545 
 7940      5F424C4F 
 7940      434B4544 
 7940      2028202D 
 7941              	.LASF341:
 7942 6265 5F5F4C4C 		.ascii	"__LLFRACT_EPSILON__ 0x1P-63LLR\000"
 7942      46524143 
 7942      545F4550 
 7942      53494C4F 
 7942      4E5F5F20 
 7943              	.LASF310:
 7944 6284 5F5F5346 		.ascii	"__SFRACT_MAX__ 0X7FP-7HR\000"
 7944      52414354 
 7944      5F4D4158 
 7944      5F5F2030 
ARM GAS  C:\Users\Grzybek\AppData\Local\Temp\ccXBk3wH.s 			page 224


 7944      58374650 
 7945              	.LASF43:
 7946 629d 78515545 		.ascii	"xQUEUE\000"
 7946      554500
 7947              	.LASF159:
 7948 62a4 5F5F5549 		.ascii	"__UINTMAX_TYPE__ long long unsigned int\000"
 7948      4E544D41 
 7948      585F5459 
 7948      50455F5F 
 7948      206C6F6E 
 7949              	.LASF218:
 7950 62cc 5F5F494E 		.ascii	"__INT16_C(c) c\000"
 7950      5431365F 
 7950      43286329 
 7950      206300
 7951              	.LASF118:
 7952 62db 71756575 		.ascii	"queueQUEUE_TYPE_COUNTING_SEMAPHORE ( 2U )\000"
 7952      65515545 
 7952      55455F54 
 7952      5950455F 
 7952      434F554E 
 7953              	.LASF412:
 7954 6305 5F5F4441 		.ascii	"__DA_IBIT__ 32\000"
 7954      5F494249 
 7954      545F5F20 
 7954      333200
 7955              	.LASF810:
 7956 6314 6C697374 		.ascii	"listGET_LIST_ITEM_VALUE(pxListItem) ( ( pxListItem "
 7956      4745545F 
 7956      4C495354 
 7956      5F495445 
 7956      4D5F5641 
 7957 6347 292D3E78 		.ascii	")->xItemValue )\000"
 7957      4974656D 
 7957      56616C75 
 7957      65202900 
 7958              	.LASF47:
 7959 6357 78517565 		.ascii	"xQueueGenericReset\000"
 7959      75654765 
 7959      6E657269 
 7959      63526573 
 7959      657400
 7960              	.LASF683:
 7961 636a 636F6E66 		.ascii	"configUSE_TRACE_FACILITY 0\000"
 7961      69675553 
 7961      455F5452 
 7961      4143455F 
 7961      46414349 
 7962              	.LASF135:
 7963 6385 5F5F4154 		.ascii	"__ATOMIC_ACQ_REL 4\000"
 7963      4F4D4943 
 7963      5F414351 
 7963      5F52454C 
 7963      203400
 7964              	.LASF390:
 7965 6398 5F5F4851 		.ascii	"__HQ_IBIT__ 0\000"
 7965      5F494249 
ARM GAS  C:\Users\Grzybek\AppData\Local\Temp\ccXBk3wH.s 			page 225


 7965      545F5F20 
 7965      3000
 7966              	.LASF542:
 7967 63a6 5F574348 		.ascii	"_WCHAR_T_DEFINED_ \000"
 7967      41525F54 
 7967      5F444546 
 7967      494E4544 
 7967      5F2000
 7968              	.LASF476:
 7969 63b9 5F57414E 		.ascii	"_WANT_IO_LONG_LONG 1\000"
 7969      545F494F 
 7969      5F4C4F4E 
 7969      475F4C4F 
 7969      4E472031 
 7970              	.LASF579:
 7971 63ce 5F524545 		.ascii	"_REENT_SMALL_CHECK_INIT(ptr) do { if ((ptr) && !(pt"
 7971      4E545F53 
 7971      4D414C4C 
 7971      5F434845 
 7971      434B5F49 
 7972 6401 72292D3E 		.ascii	"r)->__sdidinit) __sinit (ptr); } while (0)\000"
 7972      5F5F7364 
 7972      6964696E 
 7972      69742920 
 7972      5F5F7369 
 7973              	.LASF778:
 7974 642c 74726163 		.ascii	"traceQUEUE_SEND_FROM_ISR_FAILED(pxQueue) \000"
 7974      65515545 
 7974      55455F53 
 7974      454E445F 
 7974      46524F4D 
 7975              	.LASF588:
 7976 6456 5F524545 		.ascii	"_REENT_ASCTIME_SIZE 26\000"
 7976      4E545F41 
 7976      53435449 
 7976      4D455F53 
 7976      495A4520 
 7977              	.LASF237:
 7978 646d 5F5F5549 		.ascii	"__UINT_FAST32_MAX__ 4294967295U\000"
 7978      4E545F46 
 7978      41535433 
 7978      325F4D41 
 7978      585F5F20 
 7979              	.LASF223:
 7980 648d 5F5F5549 		.ascii	"__UINT_LEAST8_MAX__ 255\000"
 7980      4E545F4C 
 7980      45415354 
 7980      385F4D41 
 7980      585F5F20 
 7981              	.LASF732:
 7982 64a5 494E434C 		.ascii	"INCLUDE_xTaskGetIdleTaskHandle 0\000"
 7982      5544455F 
 7982      78546173 
 7982      6B476574 
 7982      49646C65 
 7983              	.LASF13:
 7984 64c6 78497465 		.ascii	"xItemValue\000"
ARM GAS  C:\Users\Grzybek\AppData\Local\Temp\ccXBk3wH.s 			page 226


 7984      6D56616C 
 7984      756500
 7985              	.LASF258:
 7986 64d1 5F5F4442 		.ascii	"__DBL_MANT_DIG__ 53\000"
 7986      4C5F4D41 
 7986      4E545F44 
 7986      49475F5F 
 7986      20353300 
 7987              	.LASF333:
 7988 64e5 5F5F554C 		.ascii	"__ULFRACT_IBIT__ 0\000"
 7988      46524143 
 7988      545F4942 
 7988      49545F5F 
 7988      203000
 7989              	.LASF87:
 7990 64f8 433A5C55 		.ascii	"C:\\Users\\Grzybek\\workspace\\FreeRTOS\000"
 7990      73657273 
 7990      5C47727A 
 7990      7962656B 
 7990      5C776F72 
 7991              	.LASF561:
 7992 651c 5F5F5359 		.ascii	"__SYS_LOCK_H__ \000"
 7992      535F4C4F 
 7992      434B5F48 
 7992      5F5F2000 
 7993              	.LASF459:
 7994 652c 5F5F4152 		.ascii	"__ARM_EABI__ 1\000"
 7994      4D5F4541 
 7994      42495F5F 
 7994      203100
 7995              	.LASF174:
 7996 653b 5F5F494E 		.ascii	"__INT_LEAST64_TYPE__ long long int\000"
 7996      545F4C45 
 7996      41535436 
 7996      345F5459 
 7996      50455F5F 
 7997              	.LASF347:
 7998 655e 5F5F5341 		.ascii	"__SACCUM_FBIT__ 7\000"
 7998      4343554D 
 7998      5F464249 
 7998      545F5F20 
 7998      3700
 7999              	.LASF701:
 8000 6570 636F6E66 		.ascii	"configLIBRARY_KERNEL_INTERRUPT_PRIORITY 15\000"
 8000      69674C49 
 8000      42524152 
 8000      595F4B45 
 8000      524E454C 
 8001              		.ident	"GCC: (Sourcery CodeBench Lite 2012.09-63) 4.7.2"
ARM GAS  C:\Users\Grzybek\AppData\Local\Temp\ccXBk3wH.s 			page 227


DEFINED SYMBOLS
                            *ABS*:00000000 queue.c
C:\Users\Grzybek\AppData\Local\Temp\ccXBk3wH.s:58     .text.xQueueGenericReset:00000000 $t
C:\Users\Grzybek\AppData\Local\Temp\ccXBk3wH.s:63     .text.xQueueGenericReset:00000000 xQueueGenericReset
C:\Users\Grzybek\AppData\Local\Temp\ccXBk3wH.s:170    .text.xQueueGenericCreate:00000000 $t
C:\Users\Grzybek\AppData\Local\Temp\ccXBk3wH.s:175    .text.xQueueGenericCreate:00000000 xQueueGenericCreate
C:\Users\Grzybek\AppData\Local\Temp\ccXBk3wH.s:260    .text.xQueueCreateMutex:00000000 $t
C:\Users\Grzybek\AppData\Local\Temp\ccXBk3wH.s:265    .text.xQueueCreateMutex:00000000 xQueueCreateMutex
C:\Users\Grzybek\AppData\Local\Temp\ccXBk3wH.s:502    .text.xQueueGenericSend:00000000 xQueueGenericSend
C:\Users\Grzybek\AppData\Local\Temp\ccXBk3wH.s:356    .text.xQueueGiveMutexRecursive:00000000 $t
C:\Users\Grzybek\AppData\Local\Temp\ccXBk3wH.s:361    .text.xQueueGiveMutexRecursive:00000000 xQueueGiveMutexRecursive
C:\Users\Grzybek\AppData\Local\Temp\ccXBk3wH.s:425    .text.xQueueTakeMutexRecursive:00000000 $t
C:\Users\Grzybek\AppData\Local\Temp\ccXBk3wH.s:430    .text.xQueueTakeMutexRecursive:00000000 xQueueTakeMutexRecursive
C:\Users\Grzybek\AppData\Local\Temp\ccXBk3wH.s:780    .text.xQueueGenericReceive:00000000 xQueueGenericReceive
C:\Users\Grzybek\AppData\Local\Temp\ccXBk3wH.s:497    .text.xQueueGenericSend:00000000 $t
C:\Users\Grzybek\AppData\Local\Temp\ccXBk3wH.s:1237   .text.prvCopyDataToQueue:00000000 prvCopyDataToQueue
C:\Users\Grzybek\AppData\Local\Temp\ccXBk3wH.s:1641   .text.prvIsQueueFull:00000000 prvIsQueueFull
C:\Users\Grzybek\AppData\Local\Temp\ccXBk3wH.s:1433   .text.prvUnlockQueue:00000000 prvUnlockQueue
C:\Users\Grzybek\AppData\Local\Temp\ccXBk3wH.s:676    .text.xQueueGenericSendFromISR:00000000 $t
C:\Users\Grzybek\AppData\Local\Temp\ccXBk3wH.s:681    .text.xQueueGenericSendFromISR:00000000 xQueueGenericSendFromISR
C:\Users\Grzybek\AppData\Local\Temp\ccXBk3wH.s:775    .text.xQueueGenericReceive:00000000 $t
C:\Users\Grzybek\AppData\Local\Temp\ccXBk3wH.s:1366   .text.prvCopyDataFromQueue:00000000 prvCopyDataFromQueue
C:\Users\Grzybek\AppData\Local\Temp\ccXBk3wH.s:1551   .text.prvIsQueueEmpty:00000000 prvIsQueueEmpty
C:\Users\Grzybek\AppData\Local\Temp\ccXBk3wH.s:1012   .text.xQueueReceiveFromISR:00000000 $t
C:\Users\Grzybek\AppData\Local\Temp\ccXBk3wH.s:1017   .text.xQueueReceiveFromISR:00000000 xQueueReceiveFromISR
C:\Users\Grzybek\AppData\Local\Temp\ccXBk3wH.s:1113   .text.uxQueueMessagesWaiting:00000000 $t
C:\Users\Grzybek\AppData\Local\Temp\ccXBk3wH.s:1118   .text.uxQueueMessagesWaiting:00000000 uxQueueMessagesWaiting
C:\Users\Grzybek\AppData\Local\Temp\ccXBk3wH.s:1155   .text.uxQueueMessagesWaitingFromISR:00000000 $t
C:\Users\Grzybek\AppData\Local\Temp\ccXBk3wH.s:1160   .text.uxQueueMessagesWaitingFromISR:00000000 uxQueueMessagesWaitingFromISR
C:\Users\Grzybek\AppData\Local\Temp\ccXBk3wH.s:1194   .text.vQueueDelete:00000000 $t
C:\Users\Grzybek\AppData\Local\Temp\ccXBk3wH.s:1199   .text.vQueueDelete:00000000 vQueueDelete
C:\Users\Grzybek\AppData\Local\Temp\ccXBk3wH.s:1233   .text.prvCopyDataToQueue:00000000 $t
C:\Users\Grzybek\AppData\Local\Temp\ccXBk3wH.s:1362   .text.prvCopyDataFromQueue:00000000 $t
C:\Users\Grzybek\AppData\Local\Temp\ccXBk3wH.s:1429   .text.prvUnlockQueue:00000000 $t
C:\Users\Grzybek\AppData\Local\Temp\ccXBk3wH.s:1547   .text.prvIsQueueEmpty:00000000 $t
C:\Users\Grzybek\AppData\Local\Temp\ccXBk3wH.s:1593   .text.xQueueIsQueueEmptyFromISR:00000000 $t
C:\Users\Grzybek\AppData\Local\Temp\ccXBk3wH.s:1598   .text.xQueueIsQueueEmptyFromISR:00000000 xQueueIsQueueEmptyFromISR
C:\Users\Grzybek\AppData\Local\Temp\ccXBk3wH.s:1637   .text.prvIsQueueFull:00000000 $t
C:\Users\Grzybek\AppData\Local\Temp\ccXBk3wH.s:1685   .text.xQueueIsQueueFullFromISR:00000000 $t
C:\Users\Grzybek\AppData\Local\Temp\ccXBk3wH.s:1690   .text.xQueueIsQueueFullFromISR:00000000 xQueueIsQueueFullFromISR
                     .debug_frame:00000010 $d
                           .group:00000000 wm4.1.ce89de828273fac0ab1bbb9e83b278fe
                           .group:00000000 wm4.newlib.h.8.e1d498e57c12962fc6d7be5061a6981a
                           .group:00000000 wm4.config.h.148.52fe83653334d06815a0c57b59a3e584
                           .group:00000000 wm4._ansi.h.23.8aa39ec63c47b0c474529e4131d42f04
                           .group:00000000 wm4.stdlib.h.18.6f6153fd5cb89acd58c0f0ab1f77e147
                           .group:00000000 wm4.stddef.h.187.40b3a084f9bc2c020a9e00b9eabe9c14
                           .group:00000000 wm4._default_types.h.6.1dbd2e581fd590860c7c17f21d147e91
                           .group:00000000 wm4.lock.h.2.9bc98482741e5e2a9450b12934a684ea
                           .group:00000000 wm4.stddef.h.349.31f4c5baff3fa2689010b32028da9c47
                           .group:00000000 wm4.reent.h.16.58b23a9f0faf0e7f2dfe7e2d33154afd
                           .group:00000000 wm4.alloca.h.8.dfc0c703c47ec3e69746825b17d9e66d
                           .group:00000000 wm4.stdlib.h.55.22eafe60f8565d898cbb44515781114b
                           .group:00000000 wm4.string.h.8.ef946ad0bc9ad5c970c365dcd1fc4b0a
                           .group:00000000 wm4.stddef.h.235.d9f4f80b8c4429535175712282cda6a6
                           .group:00000000 wm4.string.h.86.d5c872ff52e2712c985b588a0ef39f3c
                           .group:00000000 wm4.stddef.h.40.b60a1c1ee3f272eef5327a730cbabca6
ARM GAS  C:\Users\Grzybek\AppData\Local\Temp\ccXBk3wH.s 			page 228


                           .group:00000000 wm4.projdefs.h.70.dbccf9a6ca737be695addf5321434443
                           .group:00000000 wm4.FreeRTOSConfig.h.51.75288dd46c012b59f4d59ef4654b728b
                           .group:00000000 wm4.portmacro.h.71.52a50c2eeecf8808d04241ce2362cf60
                           .group:00000000 wm4.portable.h.326.d973d87d91a2870806201c5c4493d578
                           .group:00000000 wm4.mpu_wrappers.h.70.805d5308b530bfb35337fa0cda53b379
                           .group:00000000 wm4.FreeRTOS.h.153.96ab976bfb595dc71389a47535011fba
                           .group:00000000 wm4.list.h.99.4794e53f44ef377a7e8b918fd5c142a2
                           .group:00000000 wm4.task.h.87.ccd4c448460750abd1f398251d355800

UNDEFINED SYMBOLS
vPortEnterCritical
xTaskRemoveFromEventList
vPortYieldFromISR
vListInitialise
vPortExitCritical
pvPortMalloc
vPortFree
xTaskGetCurrentTaskHandle
vTaskSetTimeOutState
vTaskSuspendAll
xTaskCheckForTimeOut
vTaskPlaceOnEventList
xTaskResumeAll
ulPortSetInterruptMask
vPortClearInterruptMask
vTaskPriorityInherit
vTaskPriorityDisinherit
memcpy
vTaskMissedYield
