ARM GAS  C:\Users\Grzybek\AppData\Local\Temp\ccXBk3wH.s 			page 1


   1              		.syntax unified
   2              		.cpu cortex-m3
   3              		.fpu softvfp
   4              		.eabi_attribute 20, 1	@ Tag_ABI_FP_denormal
   5              		.eabi_attribute 21, 1	@ Tag_ABI_FP_exceptions
   6              		.eabi_attribute 23, 3	@ Tag_ABI_FP_number_model
   7              		.eabi_attribute 24, 1	@ Tag_ABI_align8_needed
   8              		.eabi_attribute 25, 1	@ Tag_ABI_align8_preserved
   9              		.eabi_attribute 26, 1	@ Tag_ABI_enum_size
  10              		.eabi_attribute 30, 6	@ Tag_ABI_optimization_goals
  11              		.eabi_attribute 34, 1	@ Tag_CPU_unaligned_access
  12              		.eabi_attribute 18, 4	@ Tag_ABI_PCS_wchar_t
  13              		.file	"queue.c"
  14              	@ GNU C (Sourcery CodeBench Lite 2012.09-63) version 4.7.2 (arm-none-eabi)
  15              	@	compiled by GNU C version 4.3.2, GMP version 5.0.5, MPFR version 3.1.1-p2, MPC version 1.0.1
  16              	@ GGC heuristics: --param ggc-min-expand=100 --param ggc-min-heapsize=131072
  17              	@ options passed:  -I . -I ./STCode -I ./Source/include
  18              	@ -I ./Source/portable/GCC/ARM_CM3 -I ./Common/include
  19              	@ -I ./Common/drivers/ST/STM32F10xFWLib/v3_2_0/Libraries/STM32F10x_StdPeriph_Driver/inc
  20              	@ -I ./Common/drivers/ST/STM32F10xFWLib/v3_2_0/Libraries/CMSIS/CM3/CoreSupport
  21              	@ -I ./Common/drivers/ST/STM32F10xFWLib/v3_2_0/Libraries/CMSIS/CM3/DeviceSupport/ST/STM32F10x
  22              	@ -imultilib thumb2
  23              	@ -iprefix c:\codesourcery\sourcery_codebench_lite_for_arm_eabi\bin\../lib/gcc/arm-none-eabi/4.7.2/
  24              	@ -isysroot c:\codesourcery\sourcery_codebench_lite_for_arm_eabi\bin\../arm-none-eabi
  25              	@ -D__USES_INITFINI__ -D STM32F10X_HD -D USE_STDPERIPH_DRIVER
  26              	@ -D VECT_TAB_FLASH -D GCC_ARMCM3 -D inline=
  27              	@ -D PACK_STRUCT_END=__attribute((packed))
  28              	@ -D ALIGN_STRUCT_END=__attribute((aligned(4)))
  29              	@ -D __CS_SOURCERYGXX_MAJ__=2012 -D __CS_SOURCERYGXX_MIN__=9
  30              	@ -D __CS_SOURCERYGXX_REV__=63 Source/queue.c -mthumb -mcpu=cortex-m3
  31              	@ -auxbase-strip Debug/queue.o -g3 -gdwarf-2 -O0 -std=gnu99
  32              	@ -ffunction-sections -fdata-sections -fmessage-length=0 -fverbose-asm
  33              	@ options enabled:  -fauto-inc-dec -fbranch-count-reg -fcommon
  34              	@ -fdata-sections -fdebug-types-section -fdelete-null-pointer-checks
  35              	@ -fdwarf2-cfi-asm -fearly-inlining -feliminate-unused-debug-types
  36              	@ -ffunction-cse -ffunction-sections -fgcse-lm -fgnu-runtime -fident
  37              	@ -finline-atomics -fira-share-save-slots -fira-share-spill-slots -fivopts
  38              	@ -fkeep-static-consts -fleading-underscore -fmath-errno
  39              	@ -fmerge-debug-strings -fmove-loop-invariants -fpeephole
  40              	@ -fprefetch-loop-arrays -freg-struct-return
  41              	@ -fsched-critical-path-heuristic -fsched-dep-count-heuristic
  42              	@ -fsched-group-heuristic -fsched-interblock -fsched-last-insn-heuristic
  43              	@ -fsched-rank-heuristic -fsched-spec -fsched-spec-insn-heuristic
  44              	@ -fsched-stalled-insns-dep -fshow-column -fsigned-zeros
  45              	@ -fsplit-ivs-in-unroller -fstrict-volatile-bitfields -ftrapping-math
  46              	@ -ftree-cselim -ftree-forwprop -ftree-loop-if-convert -ftree-loop-im
  47              	@ -ftree-loop-ivcanon -ftree-loop-optimize -ftree-parallelize-loops=
  48              	@ -ftree-phiprop -ftree-pta -ftree-reassoc -ftree-scev-cprop
  49              	@ -ftree-slp-vectorize -ftree-vect-loop-version -funit-at-a-time
  50              	@ -fverbose-asm -fzero-initialized-in-bss -mfix-cortex-m3-ldrd
  51              	@ -mlittle-endian -msched-prolog -mthumb -munaligned-access
  52              	@ -mvectorize-with-neon-quad
  53              	
  54              		.text
  55              	.Ltext0:
  56              		.cfi_sections	.debug_frame
  57              		.section	.text.xQueueGenericReset,"ax",%progbits
ARM GAS  C:\Users\Grzybek\AppData\Local\Temp\ccXBk3wH.s 			page 2


  58              		.align	2
  59              		.global	xQueueGenericReset
  60              		.thumb
  61              		.thumb_func
  62              		.type	xQueueGenericReset, %function
  63              	xQueueGenericReset:
  64              	.LFB0:
  65              		.file 1 "Source/queue.c"
   1:Source/queue.c **** /*
   2:Source/queue.c ****     FreeRTOS V7.3.0 - Copyright (C) 2012 Real Time Engineers Ltd.
   3:Source/queue.c **** 
   4:Source/queue.c ****     FEATURES AND PORTS ARE ADDED TO FREERTOS ALL THE TIME.  PLEASE VISIT 
   5:Source/queue.c ****     http://www.FreeRTOS.org TO ENSURE YOU ARE USING THE LATEST VERSION.
   6:Source/queue.c **** 
   7:Source/queue.c ****     ***************************************************************************
   8:Source/queue.c ****      *                                                                       *
   9:Source/queue.c ****      *    FreeRTOS tutorial books are available in pdf and paperback.        *
  10:Source/queue.c ****      *    Complete, revised, and edited pdf reference manuals are also       *
  11:Source/queue.c ****      *    available.                                                         *
  12:Source/queue.c ****      *                                                                       *
  13:Source/queue.c ****      *    Purchasing FreeRTOS documentation will not only help you, by       *
  14:Source/queue.c ****      *    ensuring you get running as quickly as possible and with an        *
  15:Source/queue.c ****      *    in-depth knowledge of how to use FreeRTOS, it will also help       *
  16:Source/queue.c ****      *    the FreeRTOS project to continue with its mission of providing     *
  17:Source/queue.c ****      *    professional grade, cross platform, de facto standard solutions    *
  18:Source/queue.c ****      *    for microcontrollers - completely free of charge!                  *
  19:Source/queue.c ****      *                                                                       *
  20:Source/queue.c ****      *    >>> See http://www.FreeRTOS.org/Documentation for details. <<<     *
  21:Source/queue.c ****      *                                                                       *
  22:Source/queue.c ****      *    Thank you for using FreeRTOS, and thank you for your support!      *
  23:Source/queue.c ****      *                                                                       *
  24:Source/queue.c ****     ***************************************************************************
  25:Source/queue.c **** 
  26:Source/queue.c **** 
  27:Source/queue.c ****     This file is part of the FreeRTOS distribution.
  28:Source/queue.c **** 
  29:Source/queue.c ****     FreeRTOS is free software; you can redistribute it and/or modify it under
  30:Source/queue.c ****     the terms of the GNU General Public License (version 2) as published by the
  31:Source/queue.c ****     Free Software Foundation AND MODIFIED BY the FreeRTOS exception.
  32:Source/queue.c ****     >>>NOTE<<< The modification to the GPL is included to allow you to
  33:Source/queue.c ****     distribute a combined work that includes FreeRTOS without being obliged to
  34:Source/queue.c ****     provide the source code for proprietary components outside of the FreeRTOS
  35:Source/queue.c ****     kernel.  FreeRTOS is distributed in the hope that it will be useful, but
  36:Source/queue.c ****     WITHOUT ANY WARRANTY; without even the implied warranty of MERCHANTABILITY
  37:Source/queue.c ****     or FITNESS FOR A PARTICULAR PURPOSE.  See the GNU General Public License for
  38:Source/queue.c ****     more details. You should have received a copy of the GNU General Public
  39:Source/queue.c ****     License and the FreeRTOS license exception along with FreeRTOS; if not it
  40:Source/queue.c ****     can be viewed here: http://www.freertos.org/a00114.html and also obtained
  41:Source/queue.c ****     by writing to Richard Barry, contact details for whom are available on the
  42:Source/queue.c ****     FreeRTOS WEB site.
  43:Source/queue.c **** 
  44:Source/queue.c ****     1 tab == 4 spaces!
  45:Source/queue.c ****     
  46:Source/queue.c ****     ***************************************************************************
  47:Source/queue.c ****      *                                                                       *
  48:Source/queue.c ****      *    Having a problem?  Start by reading the FAQ "My application does   *
  49:Source/queue.c ****      *    not run, what could be wrong?"                                     *
ARM GAS  C:\Users\Grzybek\AppData\Local\Temp\ccXBk3wH.s 			page 3


  50:Source/queue.c ****      *                                                                       *
  51:Source/queue.c ****      *    http://www.FreeRTOS.org/FAQHelp.html                               *
  52:Source/queue.c ****      *                                                                       *
  53:Source/queue.c ****     ***************************************************************************
  54:Source/queue.c **** 
  55:Source/queue.c ****     
  56:Source/queue.c ****     http://www.FreeRTOS.org - Documentation, training, latest versions, license 
  57:Source/queue.c ****     and contact details.  
  58:Source/queue.c ****     
  59:Source/queue.c ****     http://www.FreeRTOS.org/plus - A selection of FreeRTOS ecosystem products,
  60:Source/queue.c ****     including FreeRTOS+Trace - an indispensable productivity tool.
  61:Source/queue.c **** 
  62:Source/queue.c ****     Real Time Engineers ltd license FreeRTOS to High Integrity Systems, who sell 
  63:Source/queue.c ****     the code with commercial support, indemnification, and middleware, under 
  64:Source/queue.c ****     the OpenRTOS brand: http://www.OpenRTOS.com.  High Integrity Systems also
  65:Source/queue.c ****     provide a safety engineered and independently SIL3 certified version under 
  66:Source/queue.c ****     the SafeRTOS brand: http://www.SafeRTOS.com.
  67:Source/queue.c **** */
  68:Source/queue.c **** 
  69:Source/queue.c **** #include <stdlib.h>
  70:Source/queue.c **** #include <string.h>
  71:Source/queue.c **** 
  72:Source/queue.c **** /* Defining MPU_WRAPPERS_INCLUDED_FROM_API_FILE prevents task.h from redefining
  73:Source/queue.c **** all the API functions to use the MPU wrappers.  That should only be done when
  74:Source/queue.c **** task.h is included from an application file. */
  75:Source/queue.c **** #define MPU_WRAPPERS_INCLUDED_FROM_API_FILE
  76:Source/queue.c **** 
  77:Source/queue.c **** #include "FreeRTOS.h"
  78:Source/queue.c **** #include "task.h"
  79:Source/queue.c **** 
  80:Source/queue.c **** #if ( configUSE_CO_ROUTINES == 1 )
  81:Source/queue.c **** 	#include "croutine.h"
  82:Source/queue.c **** #endif
  83:Source/queue.c **** 
  84:Source/queue.c **** #undef MPU_WRAPPERS_INCLUDED_FROM_API_FILE
  85:Source/queue.c **** 
  86:Source/queue.c **** /*-----------------------------------------------------------
  87:Source/queue.c ****  * PUBLIC LIST API documented in list.h
  88:Source/queue.c ****  *----------------------------------------------------------*/
  89:Source/queue.c **** 
  90:Source/queue.c **** /* Constants used with the cRxLock and xTxLock structure members. */
  91:Source/queue.c **** #define queueUNLOCKED					( ( signed portBASE_TYPE ) -1 )
  92:Source/queue.c **** #define queueLOCKED_UNMODIFIED			( ( signed portBASE_TYPE ) 0 )
  93:Source/queue.c **** 
  94:Source/queue.c **** #define queueERRONEOUS_UNBLOCK			( -1 )
  95:Source/queue.c **** 
  96:Source/queue.c **** /* For internal use only. */
  97:Source/queue.c **** #define	queueSEND_TO_BACK				( 0 )
  98:Source/queue.c **** #define	queueSEND_TO_FRONT				( 1 )
  99:Source/queue.c **** 
 100:Source/queue.c **** /* Effectively make a union out of the xQUEUE structure. */
 101:Source/queue.c **** #define pxMutexHolder					pcTail
 102:Source/queue.c **** #define uxQueueType						pcHead
 103:Source/queue.c **** #define uxRecursiveCallCount			pcReadFrom
 104:Source/queue.c **** #define queueQUEUE_IS_MUTEX				NULL
 105:Source/queue.c **** 
 106:Source/queue.c **** /* Semaphores do not actually store or copy data, so have an items size of
ARM GAS  C:\Users\Grzybek\AppData\Local\Temp\ccXBk3wH.s 			page 4


 107:Source/queue.c **** zero. */
 108:Source/queue.c **** #define queueSEMAPHORE_QUEUE_ITEM_LENGTH ( ( unsigned portBASE_TYPE ) 0 )
 109:Source/queue.c **** #define queueDONT_BLOCK					 ( ( portTickType ) 0U )
 110:Source/queue.c **** #define queueMUTEX_GIVE_BLOCK_TIME		 ( ( portTickType ) 0U )
 111:Source/queue.c **** 
 112:Source/queue.c **** /* These definitions *must* match those in queue.h. */
 113:Source/queue.c **** #define queueQUEUE_TYPE_BASE				( 0U )
 114:Source/queue.c **** #define queueQUEUE_TYPE_MUTEX 				( 1U )
 115:Source/queue.c **** #define queueQUEUE_TYPE_COUNTING_SEMAPHORE	( 2U )
 116:Source/queue.c **** #define queueQUEUE_TYPE_BINARY_SEMAPHORE	( 3U )
 117:Source/queue.c **** #define queueQUEUE_TYPE_RECURSIVE_MUTEX		( 4U )
 118:Source/queue.c **** 
 119:Source/queue.c **** /*
 120:Source/queue.c ****  * Definition of the queue used by the scheduler.
 121:Source/queue.c ****  * Items are queued by copy, not reference.
 122:Source/queue.c ****  */
 123:Source/queue.c **** typedef struct QueueDefinition
 124:Source/queue.c **** {
 125:Source/queue.c **** 	signed char *pcHead;				/*< Points to the beginning of the queue storage area. */
 126:Source/queue.c **** 	signed char *pcTail;				/*< Points to the byte at the end of the queue storage area.  Once more by
 127:Source/queue.c **** 
 128:Source/queue.c **** 	signed char *pcWriteTo;				/*< Points to the free next place in the storage area. */
 129:Source/queue.c **** 	signed char *pcReadFrom;			/*< Points to the last place that a queued item was read from. */
 130:Source/queue.c **** 
 131:Source/queue.c **** 	xList xTasksWaitingToSend;				/*< List of tasks that are blocked waiting to post onto this queue. 
 132:Source/queue.c **** 	xList xTasksWaitingToReceive;			/*< List of tasks that are blocked waiting to read from this queue
 133:Source/queue.c **** 
 134:Source/queue.c **** 	volatile unsigned portBASE_TYPE uxMessagesWaiting;/*< The number of items currently in the queue. 
 135:Source/queue.c **** 	unsigned portBASE_TYPE uxLength;		/*< The length of the queue defined as the number of items it wi
 136:Source/queue.c **** 	unsigned portBASE_TYPE uxItemSize;		/*< The size of each items that the queue will hold. */
 137:Source/queue.c **** 
 138:Source/queue.c **** 	volatile signed portBASE_TYPE xRxLock;	/*< Stores the number of items received from the queue (rem
 139:Source/queue.c **** 	volatile signed portBASE_TYPE xTxLock;	/*< Stores the number of items transmitted to the queue (ad
 140:Source/queue.c **** 
 141:Source/queue.c **** 	#if ( configUSE_TRACE_FACILITY == 1 )
 142:Source/queue.c **** 		unsigned char ucQueueNumber;
 143:Source/queue.c **** 		unsigned char ucQueueType;
 144:Source/queue.c **** 	#endif
 145:Source/queue.c **** 
 146:Source/queue.c **** } xQUEUE;
 147:Source/queue.c **** /*-----------------------------------------------------------*/
 148:Source/queue.c **** 
 149:Source/queue.c **** /*
 150:Source/queue.c ****  * Inside this file xQueueHandle is a pointer to a xQUEUE structure.
 151:Source/queue.c ****  * To keep the definition private the API header file defines it as a
 152:Source/queue.c ****  * pointer to void.
 153:Source/queue.c ****  */
 154:Source/queue.c **** typedef xQUEUE * xQueueHandle;
 155:Source/queue.c **** 
 156:Source/queue.c **** /*
 157:Source/queue.c ****  * Prototypes for public functions are included here so we don't have to
 158:Source/queue.c ****  * include the API header file (as it defines xQueueHandle differently).  These
 159:Source/queue.c ****  * functions are documented in the API header file.
 160:Source/queue.c ****  */
 161:Source/queue.c **** xQueueHandle xQueueGenericCreate( unsigned portBASE_TYPE uxQueueLength, unsigned portBASE_TYPE uxIt
 162:Source/queue.c **** signed portBASE_TYPE xQueueGenericSend( xQueueHandle pxQueue, const void * const pvItemToQueue, por
 163:Source/queue.c **** unsigned portBASE_TYPE uxQueueMessagesWaiting( const xQueueHandle pxQueue ) PRIVILEGED_FUNCTION;
ARM GAS  C:\Users\Grzybek\AppData\Local\Temp\ccXBk3wH.s 			page 5


 164:Source/queue.c **** void vQueueDelete( xQueueHandle xQueue ) PRIVILEGED_FUNCTION;
 165:Source/queue.c **** signed portBASE_TYPE xQueueGenericSendFromISR( xQueueHandle pxQueue, const void * const pvItemToQue
 166:Source/queue.c **** signed portBASE_TYPE xQueueGenericReceive( xQueueHandle pxQueue, void * const pvBuffer, portTickTyp
 167:Source/queue.c **** signed portBASE_TYPE xQueueReceiveFromISR( xQueueHandle pxQueue, void * const pvBuffer, signed port
 168:Source/queue.c **** xQueueHandle xQueueCreateMutex( unsigned char ucQueueType ) PRIVILEGED_FUNCTION;
 169:Source/queue.c **** xQueueHandle xQueueCreateCountingSemaphore( unsigned portBASE_TYPE uxCountValue, unsigned portBASE_
 170:Source/queue.c **** portBASE_TYPE xQueueTakeMutexRecursive( xQueueHandle xMutex, portTickType xBlockTime ) PRIVILEGED_F
 171:Source/queue.c **** portBASE_TYPE xQueueGiveMutexRecursive( xQueueHandle xMutex ) PRIVILEGED_FUNCTION;
 172:Source/queue.c **** signed portBASE_TYPE xQueueAltGenericSend( xQueueHandle pxQueue, const void * const pvItemToQueue, 
 173:Source/queue.c **** signed portBASE_TYPE xQueueAltGenericReceive( xQueueHandle pxQueue, void * const pvBuffer, portTick
 174:Source/queue.c **** signed portBASE_TYPE xQueueIsQueueEmptyFromISR( const xQueueHandle pxQueue ) PRIVILEGED_FUNCTION;
 175:Source/queue.c **** signed portBASE_TYPE xQueueIsQueueFullFromISR( const xQueueHandle pxQueue ) PRIVILEGED_FUNCTION;
 176:Source/queue.c **** unsigned portBASE_TYPE uxQueueMessagesWaitingFromISR( const xQueueHandle pxQueue ) PRIVILEGED_FUNCT
 177:Source/queue.c **** void vQueueWaitForMessageRestricted( xQueueHandle pxQueue, portTickType xTicksToWait ) PRIVILEGED_F
 178:Source/queue.c **** unsigned char ucQueueGetQueueNumber( xQueueHandle pxQueue ) PRIVILEGED_FUNCTION;
 179:Source/queue.c **** void vQueueSetQueueNumber( xQueueHandle pxQueue, unsigned char ucQueueNumber ) PRIVILEGED_FUNCTION;
 180:Source/queue.c **** unsigned char ucQueueGetQueueType( xQueueHandle pxQueue ) PRIVILEGED_FUNCTION;
 181:Source/queue.c **** portBASE_TYPE xQueueGenericReset( xQueueHandle pxQueue, portBASE_TYPE xNewQueue ) PRIVILEGED_FUNCTI
 182:Source/queue.c **** xTaskHandle xQueueGetMutexHolder( xQueueHandle xSemaphore ) PRIVILEGED_FUNCTION;
 183:Source/queue.c **** 
 184:Source/queue.c **** /*
 185:Source/queue.c ****  * Co-routine queue functions differ from task queue functions.  Co-routines are
 186:Source/queue.c ****  * an optional component.
 187:Source/queue.c ****  */
 188:Source/queue.c **** #if configUSE_CO_ROUTINES == 1
 189:Source/queue.c **** 	signed portBASE_TYPE xQueueCRSendFromISR( xQueueHandle pxQueue, const void *pvItemToQueue, signed 
 190:Source/queue.c **** 	signed portBASE_TYPE xQueueCRReceiveFromISR( xQueueHandle pxQueue, void *pvBuffer, signed portBASE
 191:Source/queue.c **** 	signed portBASE_TYPE xQueueCRSend( xQueueHandle pxQueue, const void *pvItemToQueue, portTickType x
 192:Source/queue.c **** 	signed portBASE_TYPE xQueueCRReceive( xQueueHandle pxQueue, void *pvBuffer, portTickType xTicksToW
 193:Source/queue.c **** #endif
 194:Source/queue.c **** 
 195:Source/queue.c **** /*
 196:Source/queue.c ****  * The queue registry is just a means for kernel aware debuggers to locate
 197:Source/queue.c ****  * queue structures.  It has no other purpose so is an optional component.
 198:Source/queue.c ****  */
 199:Source/queue.c **** #if configQUEUE_REGISTRY_SIZE > 0
 200:Source/queue.c **** 
 201:Source/queue.c **** 	/* The type stored within the queue registry array.  This allows a name
 202:Source/queue.c **** 	to be assigned to each queue making kernel aware debugging a little
 203:Source/queue.c **** 	more user friendly. */
 204:Source/queue.c **** 	typedef struct QUEUE_REGISTRY_ITEM
 205:Source/queue.c **** 	{
 206:Source/queue.c **** 		signed char *pcQueueName;
 207:Source/queue.c **** 		xQueueHandle xHandle;
 208:Source/queue.c **** 	} xQueueRegistryItem;
 209:Source/queue.c **** 
 210:Source/queue.c **** 	/* The queue registry is simply an array of xQueueRegistryItem structures.
 211:Source/queue.c **** 	The pcQueueName member of a structure being NULL is indicative of the
 212:Source/queue.c **** 	array position being vacant. */
 213:Source/queue.c **** 	xQueueRegistryItem xQueueRegistry[ configQUEUE_REGISTRY_SIZE ];
 214:Source/queue.c **** 
 215:Source/queue.c **** 	/* Removes a queue from the registry by simply setting the pcQueueName
 216:Source/queue.c **** 	member to NULL. */
 217:Source/queue.c **** 	static void vQueueUnregisterQueue( xQueueHandle xQueue ) PRIVILEGED_FUNCTION;
 218:Source/queue.c **** 	void vQueueAddToRegistry( xQueueHandle xQueue, signed char *pcQueueName ) PRIVILEGED_FUNCTION;
 219:Source/queue.c **** #endif
 220:Source/queue.c **** 
ARM GAS  C:\Users\Grzybek\AppData\Local\Temp\ccXBk3wH.s 			page 6


 221:Source/queue.c **** /*
 222:Source/queue.c ****  * Unlocks a queue locked by a call to prvLockQueue.  Locking a queue does not
 223:Source/queue.c ****  * prevent an ISR from adding or removing items to the queue, but does prevent
 224:Source/queue.c ****  * an ISR from removing tasks from the queue event lists.  If an ISR finds a
 225:Source/queue.c ****  * queue is locked it will instead increment the appropriate queue lock count
 226:Source/queue.c ****  * to indicate that a task may require unblocking.  When the queue in unlocked
 227:Source/queue.c ****  * these lock counts are inspected, and the appropriate action taken.
 228:Source/queue.c ****  */
 229:Source/queue.c **** static void prvUnlockQueue( xQueueHandle pxQueue ) PRIVILEGED_FUNCTION;
 230:Source/queue.c **** 
 231:Source/queue.c **** /*
 232:Source/queue.c ****  * Uses a critical section to determine if there is any data in a queue.
 233:Source/queue.c ****  *
 234:Source/queue.c ****  * @return pdTRUE if the queue contains no items, otherwise pdFALSE.
 235:Source/queue.c ****  */
 236:Source/queue.c **** static signed portBASE_TYPE prvIsQueueEmpty( const xQueueHandle pxQueue ) PRIVILEGED_FUNCTION;
 237:Source/queue.c **** 
 238:Source/queue.c **** /*
 239:Source/queue.c ****  * Uses a critical section to determine if there is any space in a queue.
 240:Source/queue.c ****  *
 241:Source/queue.c ****  * @return pdTRUE if there is no space, otherwise pdFALSE;
 242:Source/queue.c ****  */
 243:Source/queue.c **** static signed portBASE_TYPE prvIsQueueFull( const xQueueHandle pxQueue ) PRIVILEGED_FUNCTION;
 244:Source/queue.c **** 
 245:Source/queue.c **** /*
 246:Source/queue.c ****  * Copies an item into the queue, either at the front of the queue or the
 247:Source/queue.c ****  * back of the queue.
 248:Source/queue.c ****  */
 249:Source/queue.c **** static void prvCopyDataToQueue( xQUEUE *pxQueue, const void *pvItemToQueue, portBASE_TYPE xPosition
 250:Source/queue.c **** 
 251:Source/queue.c **** /*
 252:Source/queue.c ****  * Copies an item out of a queue.
 253:Source/queue.c ****  */
 254:Source/queue.c **** static void prvCopyDataFromQueue( xQUEUE * const pxQueue, const void *pvBuffer ) PRIVILEGED_FUNCTIO
 255:Source/queue.c **** /*-----------------------------------------------------------*/
 256:Source/queue.c **** 
 257:Source/queue.c **** /*
 258:Source/queue.c ****  * Macro to mark a queue as locked.  Locking a queue prevents an ISR from
 259:Source/queue.c ****  * accessing the queue event lists.
 260:Source/queue.c ****  */
 261:Source/queue.c **** #define prvLockQueue( pxQueue )								\
 262:Source/queue.c **** 	taskENTER_CRITICAL();									\
 263:Source/queue.c **** 	{														\
 264:Source/queue.c **** 		if( ( pxQueue )->xRxLock == queueUNLOCKED )			\
 265:Source/queue.c **** 		{													\
 266:Source/queue.c **** 			( pxQueue )->xRxLock = queueLOCKED_UNMODIFIED;	\
 267:Source/queue.c **** 		}													\
 268:Source/queue.c **** 		if( ( pxQueue )->xTxLock == queueUNLOCKED )			\
 269:Source/queue.c **** 		{													\
 270:Source/queue.c **** 			( pxQueue )->xTxLock = queueLOCKED_UNMODIFIED;	\
 271:Source/queue.c **** 		}													\
 272:Source/queue.c **** 	}														\
 273:Source/queue.c **** 	taskEXIT_CRITICAL()
 274:Source/queue.c **** /*-----------------------------------------------------------*/
 275:Source/queue.c **** 
 276:Source/queue.c **** 
 277:Source/queue.c **** /*-----------------------------------------------------------
ARM GAS  C:\Users\Grzybek\AppData\Local\Temp\ccXBk3wH.s 			page 7


 278:Source/queue.c ****  * PUBLIC QUEUE MANAGEMENT API documented in queue.h
 279:Source/queue.c ****  *----------------------------------------------------------*/
 280:Source/queue.c **** 
 281:Source/queue.c **** portBASE_TYPE xQueueGenericReset( xQueueHandle pxQueue, portBASE_TYPE xNewQueue )
 282:Source/queue.c **** {
  66              		.loc 1 282 0
  67              		.cfi_startproc
  68              		@ args = 0, pretend = 0, frame = 8
  69              		@ frame_needed = 1, uses_anonymous_args = 0
  70 0000 80B5     		push	{r7, lr}	@
  71              	.LCFI0:
  72              		.cfi_def_cfa_offset 8
  73              		.cfi_offset 7, -8
  74              		.cfi_offset 14, -4
  75 0002 82B0     		sub	sp, sp, #8	@,,
  76              	.LCFI1:
  77              		.cfi_def_cfa_offset 16
  78 0004 00AF     		add	r7, sp, #0	@,,
  79              	.LCFI2:
  80              		.cfi_def_cfa_register 7
  81 0006 7860     		str	r0, [r7, #4]	@ pxQueue, pxQueue
  82 0008 3960     		str	r1, [r7, #0]	@ xNewQueue, xNewQueue
 283:Source/queue.c **** 	configASSERT( pxQueue );
 284:Source/queue.c **** 
 285:Source/queue.c **** 	taskENTER_CRITICAL();
  83              		.loc 1 285 0
  84 000a FFF7FEFF 		bl	vPortEnterCritical	@
 286:Source/queue.c **** 	{
 287:Source/queue.c **** 		pxQueue->pcTail = pxQueue->pcHead + ( pxQueue->uxLength * pxQueue->uxItemSize );
  85              		.loc 1 287 0
  86 000e 7B68     		ldr	r3, [r7, #4]	@ tmp153, pxQueue
  87 0010 1A68     		ldr	r2, [r3, #0]	@ D.5465, pxQueue_1(D)->pcHead
  88 0012 7B68     		ldr	r3, [r7, #4]	@ tmp154, pxQueue
  89 0014 DB6B     		ldr	r3, [r3, #60]	@ D.5466, pxQueue_1(D)->uxLength
  90 0016 7968     		ldr	r1, [r7, #4]	@ tmp155, pxQueue
  91 0018 096C     		ldr	r1, [r1, #64]	@ D.5467, pxQueue_1(D)->uxItemSize
  92 001a 01FB03F3 		mul	r3, r1, r3	@ D.5468, D.5467, D.5466
  93 001e D218     		adds	r2, r2, r3	@ D.5469, D.5465, D.5468
  94 0020 7B68     		ldr	r3, [r7, #4]	@ tmp156, pxQueue
  95 0022 5A60     		str	r2, [r3, #4]	@ D.5469, pxQueue_1(D)->pcTail
 288:Source/queue.c **** 		pxQueue->uxMessagesWaiting = ( unsigned portBASE_TYPE ) 0U;
  96              		.loc 1 288 0
  97 0024 7B68     		ldr	r3, [r7, #4]	@ tmp157, pxQueue
  98 0026 4FF00002 		mov	r2, #0	@ tmp158,
  99 002a 9A63     		str	r2, [r3, #56]	@ tmp158, pxQueue_1(D)->uxMessagesWaiting
 289:Source/queue.c **** 		pxQueue->pcWriteTo = pxQueue->pcHead;
 100              		.loc 1 289 0
 101 002c 7B68     		ldr	r3, [r7, #4]	@ tmp159, pxQueue
 102 002e 1A68     		ldr	r2, [r3, #0]	@ D.5470, pxQueue_1(D)->pcHead
 103 0030 7B68     		ldr	r3, [r7, #4]	@ tmp160, pxQueue
 104 0032 9A60     		str	r2, [r3, #8]	@ D.5470, pxQueue_1(D)->pcWriteTo
 290:Source/queue.c **** 		pxQueue->pcReadFrom = pxQueue->pcHead + ( ( pxQueue->uxLength - ( unsigned portBASE_TYPE ) 1U ) *
 105              		.loc 1 290 0
 106 0034 7B68     		ldr	r3, [r7, #4]	@ tmp161, pxQueue
 107 0036 1A68     		ldr	r2, [r3, #0]	@ D.5471, pxQueue_1(D)->pcHead
 108 0038 7B68     		ldr	r3, [r7, #4]	@ tmp162, pxQueue
 109 003a DB6B     		ldr	r3, [r3, #60]	@ D.5472, pxQueue_1(D)->uxLength
ARM GAS  C:\Users\Grzybek\AppData\Local\Temp\ccXBk3wH.s 			page 8


 110 003c 03F1FF33 		add	r3, r3, #-1	@ D.5473, D.5472,
 111 0040 7968     		ldr	r1, [r7, #4]	@ tmp163, pxQueue
 112 0042 096C     		ldr	r1, [r1, #64]	@ D.5474, pxQueue_1(D)->uxItemSize
 113 0044 01FB03F3 		mul	r3, r1, r3	@ D.5475, D.5474, D.5473
 114 0048 D218     		adds	r2, r2, r3	@ D.5476, D.5471, D.5475
 115 004a 7B68     		ldr	r3, [r7, #4]	@ tmp164, pxQueue
 116 004c DA60     		str	r2, [r3, #12]	@ D.5476, pxQueue_1(D)->pcReadFrom
 291:Source/queue.c **** 		pxQueue->xRxLock = queueUNLOCKED;
 117              		.loc 1 291 0
 118 004e 7B68     		ldr	r3, [r7, #4]	@ tmp165, pxQueue
 119 0050 4FF0FF32 		mov	r2, #-1	@ tmp166,
 120 0054 5A64     		str	r2, [r3, #68]	@ tmp166, pxQueue_1(D)->xRxLock
 292:Source/queue.c **** 		pxQueue->xTxLock = queueUNLOCKED;
 121              		.loc 1 292 0
 122 0056 7B68     		ldr	r3, [r7, #4]	@ tmp167, pxQueue
 123 0058 4FF0FF32 		mov	r2, #-1	@ tmp168,
 124 005c 9A64     		str	r2, [r3, #72]	@ tmp168, pxQueue_1(D)->xTxLock
 293:Source/queue.c **** 
 294:Source/queue.c **** 		if( xNewQueue == pdFALSE )
 125              		.loc 1 294 0
 126 005e 3B68     		ldr	r3, [r7, #0]	@ tmp169, xNewQueue
 127 0060 002B     		cmp	r3, #0	@ tmp169,
 128 0062 0FD1     		bne	.L2	@,
 295:Source/queue.c **** 		{
 296:Source/queue.c **** 			/* If there are tasks blocked waiting to read from the queue, then
 297:Source/queue.c **** 			the tasks will remain blocked as after this function exits the queue
 298:Source/queue.c **** 			will still be empty.  If there are tasks blocked waiting to	write to
 299:Source/queue.c **** 			the queue, then one should be unblocked as after this function exits
 300:Source/queue.c **** 			it will be possible to write to it. */
 301:Source/queue.c **** 			if( listLIST_IS_EMPTY( &( pxQueue->xTasksWaitingToSend ) ) == pdFALSE )
 129              		.loc 1 301 0
 130 0064 7B68     		ldr	r3, [r7, #4]	@ tmp170, pxQueue
 131 0066 1B69     		ldr	r3, [r3, #16]	@ D.5479, pxQueue_1(D)->xTasksWaitingToSend.uxNumberOfItems
 132 0068 002B     		cmp	r3, #0	@ D.5479,
 133 006a 17D0     		beq	.L3	@,
 302:Source/queue.c **** 			{
 303:Source/queue.c **** 				if( xTaskRemoveFromEventList( &( pxQueue->xTasksWaitingToSend ) ) == pdTRUE )
 134              		.loc 1 303 0
 135 006c 7B68     		ldr	r3, [r7, #4]	@ tmp171, pxQueue
 136 006e 03F11003 		add	r3, r3, #16	@ D.5482, tmp171,
 137 0072 1846     		mov	r0, r3	@, D.5482
 138 0074 FFF7FEFF 		bl	xTaskRemoveFromEventList	@
 139 0078 0346     		mov	r3, r0	@ D.5483,
 140 007a 012B     		cmp	r3, #1	@ D.5483,
 141 007c 0ED1     		bne	.L3	@,
 304:Source/queue.c **** 				{
 305:Source/queue.c **** 					portYIELD_WITHIN_API();
 142              		.loc 1 305 0
 143 007e FFF7FEFF 		bl	vPortYieldFromISR	@
 144 0082 0BE0     		b	.L3	@
 145              	.L2:
 306:Source/queue.c **** 				}
 307:Source/queue.c **** 			}
 308:Source/queue.c **** 		}
 309:Source/queue.c **** 		else
 310:Source/queue.c **** 		{
 311:Source/queue.c **** 			/* Ensure the event queues start in the correct state. */
ARM GAS  C:\Users\Grzybek\AppData\Local\Temp\ccXBk3wH.s 			page 9


 312:Source/queue.c **** 			vListInitialise( &( pxQueue->xTasksWaitingToSend ) );
 146              		.loc 1 312 0
 147 0084 7B68     		ldr	r3, [r7, #4]	@ tmp172, pxQueue
 148 0086 03F11003 		add	r3, r3, #16	@ D.5487, tmp172,
 149 008a 1846     		mov	r0, r3	@, D.5487
 150 008c FFF7FEFF 		bl	vListInitialise	@
 313:Source/queue.c **** 			vListInitialise( &( pxQueue->xTasksWaitingToReceive ) );
 151              		.loc 1 313 0
 152 0090 7B68     		ldr	r3, [r7, #4]	@ tmp173, pxQueue
 153 0092 03F12403 		add	r3, r3, #36	@ D.5488, tmp173,
 154 0096 1846     		mov	r0, r3	@, D.5488
 155 0098 FFF7FEFF 		bl	vListInitialise	@
 156              	.L3:
 314:Source/queue.c **** 		}
 315:Source/queue.c **** 	}
 316:Source/queue.c **** 	taskEXIT_CRITICAL();
 157              		.loc 1 316 0
 158 009c FFF7FEFF 		bl	vPortExitCritical	@
 317:Source/queue.c **** 
 318:Source/queue.c **** 	/* A value is returned for calling semantic consistency with previous
 319:Source/queue.c **** 	versions. */
 320:Source/queue.c **** 	return pdPASS;
 159              		.loc 1 320 0
 160 00a0 4FF00103 		mov	r3, #1	@ D.5489,
 321:Source/queue.c **** }
 161              		.loc 1 321 0
 162 00a4 1846     		mov	r0, r3	@, <retval>
 163 00a6 07F10807 		add	r7, r7, #8	@,,
 164 00aa BD46     		mov	sp, r7
 165 00ac 80BD     		pop	{r7, pc}
 166              		.cfi_endproc
 167              	.LFE0:
 168              		.size	xQueueGenericReset, .-xQueueGenericReset
 169 00ae 00BF     		.section	.text.xQueueGenericCreate,"ax",%progbits
 170              		.align	2
 171              		.global	xQueueGenericCreate
 172              		.thumb
 173              		.thumb_func
 174              		.type	xQueueGenericCreate, %function
 175              	xQueueGenericCreate:
 176              	.LFB1:
 322:Source/queue.c **** /*-----------------------------------------------------------*/
 323:Source/queue.c **** 
 324:Source/queue.c **** xQueueHandle xQueueGenericCreate( unsigned portBASE_TYPE uxQueueLength, unsigned portBASE_TYPE uxIt
 325:Source/queue.c **** {
 177              		.loc 1 325 0
 178              		.cfi_startproc
 179              		@ args = 0, pretend = 0, frame = 32
 180              		@ frame_needed = 1, uses_anonymous_args = 0
 181 0000 80B5     		push	{r7, lr}	@
 182              	.LCFI3:
 183              		.cfi_def_cfa_offset 8
 184              		.cfi_offset 7, -8
 185              		.cfi_offset 14, -4
 186 0002 88B0     		sub	sp, sp, #32	@,,
 187              	.LCFI4:
 188              		.cfi_def_cfa_offset 40
ARM GAS  C:\Users\Grzybek\AppData\Local\Temp\ccXBk3wH.s 			page 10


 189 0004 00AF     		add	r7, sp, #0	@,,
 190              	.LCFI5:
 191              		.cfi_def_cfa_register 7
 192 0006 F860     		str	r0, [r7, #12]	@ uxQueueLength, uxQueueLength
 193 0008 B960     		str	r1, [r7, #8]	@ uxItemSize, uxItemSize
 194 000a 1346     		mov	r3, r2	@ tmp139, ucQueueType
 195 000c FB71     		strb	r3, [r7, #7]	@ tmp140, ucQueueType
 326:Source/queue.c **** xQUEUE *pxNewQueue;
 327:Source/queue.c **** size_t xQueueSizeInBytes;
 328:Source/queue.c **** xQueueHandle xReturn = NULL;
 196              		.loc 1 328 0
 197 000e 4FF00003 		mov	r3, #0	@ tmp141,
 198 0012 FB61     		str	r3, [r7, #28]	@ tmp141, xReturn
 329:Source/queue.c **** 
 330:Source/queue.c **** 	/* Remove compiler warnings about unused parameters should
 331:Source/queue.c **** 	configUSE_TRACE_FACILITY not be set to 1. */
 332:Source/queue.c **** 	( void ) ucQueueType;
 333:Source/queue.c **** 
 334:Source/queue.c **** 	/* Allocate the new queue structure. */
 335:Source/queue.c **** 	if( uxQueueLength > ( unsigned portBASE_TYPE ) 0 )
 199              		.loc 1 335 0
 200 0014 FB68     		ldr	r3, [r7, #12]	@ tmp142, uxQueueLength
 201 0016 002B     		cmp	r3, #0	@ tmp142,
 202 0018 29D0     		beq	.L6	@,
 336:Source/queue.c **** 	{
 337:Source/queue.c **** 		pxNewQueue = ( xQUEUE * ) pvPortMalloc( sizeof( xQUEUE ) );
 203              		.loc 1 337 0
 204 001a 4FF04C00 		mov	r0, #76	@,
 205 001e FFF7FEFF 		bl	pvPortMalloc	@
 206 0022 B861     		str	r0, [r7, #24]	@, pxNewQueue
 338:Source/queue.c **** 		if( pxNewQueue != NULL )
 207              		.loc 1 338 0
 208 0024 BB69     		ldr	r3, [r7, #24]	@ tmp143, pxNewQueue
 209 0026 002B     		cmp	r3, #0	@ tmp143,
 210 0028 21D0     		beq	.L6	@,
 339:Source/queue.c **** 		{
 340:Source/queue.c **** 			/* Create the list of pointers to queue items.  The queue is one byte
 341:Source/queue.c **** 			longer than asked for to make wrap checking easier/faster. */
 342:Source/queue.c **** 			xQueueSizeInBytes = ( size_t ) ( uxQueueLength * uxItemSize ) + ( size_t ) 1;
 211              		.loc 1 342 0
 212 002a FB68     		ldr	r3, [r7, #12]	@ tmp144, uxQueueLength
 213 002c BA68     		ldr	r2, [r7, #8]	@ tmp145, uxItemSize
 214 002e 02FB03F3 		mul	r3, r2, r3	@ D.5457, tmp145, tmp144
 215 0032 03F10103 		add	r3, r3, #1	@ tmp146, D.5457,
 216 0036 7B61     		str	r3, [r7, #20]	@ tmp146, xQueueSizeInBytes
 343:Source/queue.c **** 
 344:Source/queue.c **** 			pxNewQueue->pcHead = ( signed char * ) pvPortMalloc( xQueueSizeInBytes );
 217              		.loc 1 344 0
 218 0038 7869     		ldr	r0, [r7, #20]	@, xQueueSizeInBytes
 219 003a FFF7FEFF 		bl	pvPortMalloc	@
 220 003e 0246     		mov	r2, r0	@ D.5458,
 221 0040 BB69     		ldr	r3, [r7, #24]	@ tmp147, pxNewQueue
 222 0042 1A60     		str	r2, [r3, #0]	@ D.5458, pxNewQueue_4->pcHead
 345:Source/queue.c **** 			if( pxNewQueue->pcHead != NULL )
 223              		.loc 1 345 0
 224 0044 BB69     		ldr	r3, [r7, #24]	@ tmp148, pxNewQueue
 225 0046 1B68     		ldr	r3, [r3, #0]	@ D.5459, pxNewQueue_4->pcHead
ARM GAS  C:\Users\Grzybek\AppData\Local\Temp\ccXBk3wH.s 			page 11


 226 0048 002B     		cmp	r3, #0	@ D.5459,
 227 004a 0DD0     		beq	.L7	@,
 346:Source/queue.c **** 			{
 347:Source/queue.c **** 				/* Initialise the queue members as described above where the
 348:Source/queue.c **** 				queue type is defined. */
 349:Source/queue.c **** 				pxNewQueue->uxLength = uxQueueLength;
 228              		.loc 1 349 0
 229 004c BB69     		ldr	r3, [r7, #24]	@ tmp149, pxNewQueue
 230 004e FA68     		ldr	r2, [r7, #12]	@ tmp150, uxQueueLength
 231 0050 DA63     		str	r2, [r3, #60]	@ tmp150, pxNewQueue_4->uxLength
 350:Source/queue.c **** 				pxNewQueue->uxItemSize = uxItemSize;
 232              		.loc 1 350 0
 233 0052 BB69     		ldr	r3, [r7, #24]	@ tmp151, pxNewQueue
 234 0054 BA68     		ldr	r2, [r7, #8]	@ tmp152, uxItemSize
 235 0056 1A64     		str	r2, [r3, #64]	@ tmp152, pxNewQueue_4->uxItemSize
 351:Source/queue.c **** 				xQueueGenericReset( pxNewQueue, pdTRUE );
 236              		.loc 1 351 0
 237 0058 B869     		ldr	r0, [r7, #24]	@, pxNewQueue
 238 005a 4FF00101 		mov	r1, #1	@,
 239 005e FFF7FEFF 		bl	xQueueGenericReset	@
 352:Source/queue.c **** 				#if ( configUSE_TRACE_FACILITY == 1 )
 353:Source/queue.c **** 				{
 354:Source/queue.c **** 					pxNewQueue->ucQueueType = ucQueueType;
 355:Source/queue.c **** 				}
 356:Source/queue.c **** 				#endif /* configUSE_TRACE_FACILITY */
 357:Source/queue.c **** 
 358:Source/queue.c **** 				traceQUEUE_CREATE( pxNewQueue );
 359:Source/queue.c **** 				xReturn = pxNewQueue;
 240              		.loc 1 359 0
 241 0062 BB69     		ldr	r3, [r7, #24]	@ tmp153, pxNewQueue
 242 0064 FB61     		str	r3, [r7, #28]	@ tmp153, xReturn
 243 0066 02E0     		b	.L6	@
 244              	.L7:
 360:Source/queue.c **** 			}
 361:Source/queue.c **** 			else
 362:Source/queue.c **** 			{
 363:Source/queue.c **** 				traceQUEUE_CREATE_FAILED( ucQueueType );
 364:Source/queue.c **** 				vPortFree( pxNewQueue );
 245              		.loc 1 364 0
 246 0068 B869     		ldr	r0, [r7, #24]	@, pxNewQueue
 247 006a FFF7FEFF 		bl	vPortFree	@
 248              	.L6:
 365:Source/queue.c **** 			}
 366:Source/queue.c **** 		}
 367:Source/queue.c **** 	}
 368:Source/queue.c **** 
 369:Source/queue.c **** 	configASSERT( xReturn );
 370:Source/queue.c **** 
 371:Source/queue.c **** 	return xReturn;
 249              		.loc 1 371 0
 250 006e FB69     		ldr	r3, [r7, #28]	@ D.5463, xReturn
 372:Source/queue.c **** }
 251              		.loc 1 372 0
 252 0070 1846     		mov	r0, r3	@, <retval>
 253 0072 07F12007 		add	r7, r7, #32	@,,
 254 0076 BD46     		mov	sp, r7
 255 0078 80BD     		pop	{r7, pc}
ARM GAS  C:\Users\Grzybek\AppData\Local\Temp\ccXBk3wH.s 			page 12


 256              		.cfi_endproc
 257              	.LFE1:
 258              		.size	xQueueGenericCreate, .-xQueueGenericCreate
 259 007a 00BF     		.section	.text.xQueueCreateMutex,"ax",%progbits
 260              		.align	2
 261              		.global	xQueueCreateMutex
 262              		.thumb
 263              		.thumb_func
 264              		.type	xQueueCreateMutex, %function
 265              	xQueueCreateMutex:
 266              	.LFB2:
 373:Source/queue.c **** /*-----------------------------------------------------------*/
 374:Source/queue.c **** 
 375:Source/queue.c **** #if ( configUSE_MUTEXES == 1 )
 376:Source/queue.c **** 
 377:Source/queue.c **** 	xQueueHandle xQueueCreateMutex( unsigned char ucQueueType )
 378:Source/queue.c **** 	{
 267              		.loc 1 378 0
 268              		.cfi_startproc
 269              		@ args = 0, pretend = 0, frame = 16
 270              		@ frame_needed = 1, uses_anonymous_args = 0
 271 0000 80B5     		push	{r7, lr}	@
 272              	.LCFI6:
 273              		.cfi_def_cfa_offset 8
 274              		.cfi_offset 7, -8
 275              		.cfi_offset 14, -4
 276 0002 84B0     		sub	sp, sp, #16	@,,
 277              	.LCFI7:
 278              		.cfi_def_cfa_offset 24
 279 0004 00AF     		add	r7, sp, #0	@,,
 280              	.LCFI8:
 281              		.cfi_def_cfa_register 7
 282 0006 0346     		mov	r3, r0	@ tmp138, ucQueueType
 283 0008 FB71     		strb	r3, [r7, #7]	@ tmp139, ucQueueType
 379:Source/queue.c **** 	xQUEUE *pxNewQueue;
 380:Source/queue.c **** 
 381:Source/queue.c **** 		/* Prevent compiler warnings about unused parameters if
 382:Source/queue.c **** 		configUSE_TRACE_FACILITY does not equal 1. */
 383:Source/queue.c **** 		( void ) ucQueueType;
 384:Source/queue.c **** 
 385:Source/queue.c **** 		/* Allocate the new queue structure. */
 386:Source/queue.c **** 		pxNewQueue = ( xQUEUE * ) pvPortMalloc( sizeof( xQUEUE ) );
 284              		.loc 1 386 0
 285 000a 4FF04C00 		mov	r0, #76	@,
 286 000e FFF7FEFF 		bl	pvPortMalloc	@
 287 0012 F860     		str	r0, [r7, #12]	@, pxNewQueue
 387:Source/queue.c **** 		if( pxNewQueue != NULL )
 288              		.loc 1 387 0
 289 0014 FB68     		ldr	r3, [r7, #12]	@ tmp140, pxNewQueue
 290 0016 002B     		cmp	r3, #0	@ tmp140,
 291 0018 38D0     		beq	.L10	@,
 388:Source/queue.c **** 		{
 389:Source/queue.c **** 			/* Information required for priority inheritance. */
 390:Source/queue.c **** 			pxNewQueue->pxMutexHolder = NULL;
 292              		.loc 1 390 0
 293 001a FB68     		ldr	r3, [r7, #12]	@ tmp141, pxNewQueue
 294 001c 4FF00002 		mov	r2, #0	@ tmp142,
ARM GAS  C:\Users\Grzybek\AppData\Local\Temp\ccXBk3wH.s 			page 13


 295 0020 5A60     		str	r2, [r3, #4]	@ tmp142, pxNewQueue_1->pcTail
 391:Source/queue.c **** 			pxNewQueue->uxQueueType = queueQUEUE_IS_MUTEX;
 296              		.loc 1 391 0
 297 0022 FB68     		ldr	r3, [r7, #12]	@ tmp143, pxNewQueue
 298 0024 4FF00002 		mov	r2, #0	@ tmp144,
 299 0028 1A60     		str	r2, [r3, #0]	@ tmp144, pxNewQueue_1->pcHead
 392:Source/queue.c **** 
 393:Source/queue.c **** 			/* Queues used as a mutex no data is actually copied into or out
 394:Source/queue.c **** 			of the queue. */
 395:Source/queue.c **** 			pxNewQueue->pcWriteTo = NULL;
 300              		.loc 1 395 0
 301 002a FB68     		ldr	r3, [r7, #12]	@ tmp145, pxNewQueue
 302 002c 4FF00002 		mov	r2, #0	@ tmp146,
 303 0030 9A60     		str	r2, [r3, #8]	@ tmp146, pxNewQueue_1->pcWriteTo
 396:Source/queue.c **** 			pxNewQueue->pcReadFrom = NULL;
 304              		.loc 1 396 0
 305 0032 FB68     		ldr	r3, [r7, #12]	@ tmp147, pxNewQueue
 306 0034 4FF00002 		mov	r2, #0	@ tmp148,
 307 0038 DA60     		str	r2, [r3, #12]	@ tmp148, pxNewQueue_1->pcReadFrom
 397:Source/queue.c **** 
 398:Source/queue.c **** 			/* Each mutex has a length of 1 (like a binary semaphore) and
 399:Source/queue.c **** 			an item size of 0 as nothing is actually copied into or out
 400:Source/queue.c **** 			of the mutex. */
 401:Source/queue.c **** 			pxNewQueue->uxMessagesWaiting = ( unsigned portBASE_TYPE ) 0U;
 308              		.loc 1 401 0
 309 003a FB68     		ldr	r3, [r7, #12]	@ tmp149, pxNewQueue
 310 003c 4FF00002 		mov	r2, #0	@ tmp150,
 311 0040 9A63     		str	r2, [r3, #56]	@ tmp150, pxNewQueue_1->uxMessagesWaiting
 402:Source/queue.c **** 			pxNewQueue->uxLength = ( unsigned portBASE_TYPE ) 1U;
 312              		.loc 1 402 0
 313 0042 FB68     		ldr	r3, [r7, #12]	@ tmp151, pxNewQueue
 314 0044 4FF00102 		mov	r2, #1	@ tmp152,
 315 0048 DA63     		str	r2, [r3, #60]	@ tmp152, pxNewQueue_1->uxLength
 403:Source/queue.c **** 			pxNewQueue->uxItemSize = ( unsigned portBASE_TYPE ) 0U;
 316              		.loc 1 403 0
 317 004a FB68     		ldr	r3, [r7, #12]	@ tmp153, pxNewQueue
 318 004c 4FF00002 		mov	r2, #0	@ tmp154,
 319 0050 1A64     		str	r2, [r3, #64]	@ tmp154, pxNewQueue_1->uxItemSize
 404:Source/queue.c **** 			pxNewQueue->xRxLock = queueUNLOCKED;
 320              		.loc 1 404 0
 321 0052 FB68     		ldr	r3, [r7, #12]	@ tmp155, pxNewQueue
 322 0054 4FF0FF32 		mov	r2, #-1	@ tmp156,
 323 0058 5A64     		str	r2, [r3, #68]	@ tmp156, pxNewQueue_1->xRxLock
 405:Source/queue.c **** 			pxNewQueue->xTxLock = queueUNLOCKED;
 324              		.loc 1 405 0
 325 005a FB68     		ldr	r3, [r7, #12]	@ tmp157, pxNewQueue
 326 005c 4FF0FF32 		mov	r2, #-1	@ tmp158,
 327 0060 9A64     		str	r2, [r3, #72]	@ tmp158, pxNewQueue_1->xTxLock
 406:Source/queue.c **** 
 407:Source/queue.c **** 			#if ( configUSE_TRACE_FACILITY == 1 )
 408:Source/queue.c **** 			{
 409:Source/queue.c **** 				pxNewQueue->ucQueueType = ucQueueType;
 410:Source/queue.c **** 			}
 411:Source/queue.c **** 			#endif
 412:Source/queue.c **** 
 413:Source/queue.c **** 			/* Ensure the event queues start with the correct state. */
 414:Source/queue.c **** 			vListInitialise( &( pxNewQueue->xTasksWaitingToSend ) );
ARM GAS  C:\Users\Grzybek\AppData\Local\Temp\ccXBk3wH.s 			page 14


 328              		.loc 1 414 0
 329 0062 FB68     		ldr	r3, [r7, #12]	@ tmp159, pxNewQueue
 330 0064 03F11003 		add	r3, r3, #16	@ D.5448, tmp159,
 331 0068 1846     		mov	r0, r3	@, D.5448
 332 006a FFF7FEFF 		bl	vListInitialise	@
 415:Source/queue.c **** 			vListInitialise( &( pxNewQueue->xTasksWaitingToReceive ) );
 333              		.loc 1 415 0
 334 006e FB68     		ldr	r3, [r7, #12]	@ tmp160, pxNewQueue
 335 0070 03F12403 		add	r3, r3, #36	@ D.5449, tmp160,
 336 0074 1846     		mov	r0, r3	@, D.5449
 337 0076 FFF7FEFF 		bl	vListInitialise	@
 416:Source/queue.c **** 
 417:Source/queue.c **** 			traceCREATE_MUTEX( pxNewQueue );
 418:Source/queue.c **** 
 419:Source/queue.c **** 			/* Start with the semaphore in the expected state. */
 420:Source/queue.c **** 			xQueueGenericSend( pxNewQueue, NULL, ( portTickType ) 0U, queueSEND_TO_BACK );
 338              		.loc 1 420 0
 339 007a F868     		ldr	r0, [r7, #12]	@, pxNewQueue
 340 007c 4FF00001 		mov	r1, #0	@,
 341 0080 4FF00002 		mov	r2, #0	@,
 342 0084 4FF00003 		mov	r3, #0	@,
 343 0088 FFF7FEFF 		bl	xQueueGenericSend	@
 344              	.L10:
 421:Source/queue.c **** 		}
 422:Source/queue.c **** 		else
 423:Source/queue.c **** 		{
 424:Source/queue.c **** 			traceCREATE_MUTEX_FAILED();
 425:Source/queue.c **** 		}
 426:Source/queue.c **** 
 427:Source/queue.c **** 		configASSERT( pxNewQueue );
 428:Source/queue.c **** 		return pxNewQueue;
 345              		.loc 1 428 0
 346 008c FB68     		ldr	r3, [r7, #12]	@ D.5451, pxNewQueue
 429:Source/queue.c **** 	}
 347              		.loc 1 429 0
 348 008e 1846     		mov	r0, r3	@, <retval>
 349 0090 07F11007 		add	r7, r7, #16	@,,
 350 0094 BD46     		mov	sp, r7
 351 0096 80BD     		pop	{r7, pc}
 352              		.cfi_endproc
 353              	.LFE2:
 354              		.size	xQueueCreateMutex, .-xQueueCreateMutex
 355              		.section	.text.xQueueGiveMutexRecursive,"ax",%progbits
 356              		.align	2
 357              		.global	xQueueGiveMutexRecursive
 358              		.thumb
 359              		.thumb_func
 360              		.type	xQueueGiveMutexRecursive, %function
 361              	xQueueGiveMutexRecursive:
 362              	.LFB3:
 430:Source/queue.c **** 
 431:Source/queue.c **** #endif /* configUSE_MUTEXES */
 432:Source/queue.c **** /*-----------------------------------------------------------*/
 433:Source/queue.c **** 
 434:Source/queue.c **** #if ( ( configUSE_MUTEXES == 1 ) && ( INCLUDE_xQueueGetMutexHolder == 1 ) )
 435:Source/queue.c **** 
 436:Source/queue.c **** 	void* xQueueGetMutexHolder( xQueueHandle xSemaphore )
ARM GAS  C:\Users\Grzybek\AppData\Local\Temp\ccXBk3wH.s 			page 15


 437:Source/queue.c **** 	{
 438:Source/queue.c **** 	void *pxReturn;
 439:Source/queue.c **** 
 440:Source/queue.c **** 		/* This function is called by xSemaphoreGetMutexHolder(), and should not
 441:Source/queue.c **** 		be called directly.  Note:  This is is a good way of determining if the
 442:Source/queue.c **** 		calling task is the mutex holder, but not a good way of determining the
 443:Source/queue.c **** 		identity of the mutex holder, as the holder may change between the
 444:Source/queue.c **** 		following critical section exiting and the function returning. */
 445:Source/queue.c **** 		taskENTER_CRITICAL();
 446:Source/queue.c **** 		{
 447:Source/queue.c **** 			if( xSemaphore->uxQueueType == queueQUEUE_IS_MUTEX )
 448:Source/queue.c **** 			{
 449:Source/queue.c **** 				pxReturn = ( void * ) xSemaphore->pxMutexHolder;
 450:Source/queue.c **** 			}
 451:Source/queue.c **** 			else
 452:Source/queue.c **** 			{
 453:Source/queue.c **** 				pxReturn = NULL;
 454:Source/queue.c **** 			}
 455:Source/queue.c **** 		}
 456:Source/queue.c **** 		taskEXIT_CRITICAL();
 457:Source/queue.c **** 
 458:Source/queue.c **** 		return pxReturn;
 459:Source/queue.c **** 	}
 460:Source/queue.c **** 
 461:Source/queue.c **** #endif
 462:Source/queue.c **** /*-----------------------------------------------------------*/
 463:Source/queue.c **** 
 464:Source/queue.c **** #if ( configUSE_RECURSIVE_MUTEXES == 1 )
 465:Source/queue.c **** 
 466:Source/queue.c **** 	portBASE_TYPE xQueueGiveMutexRecursive( xQueueHandle pxMutex )
 467:Source/queue.c **** 	{
 363              		.loc 1 467 0
 364              		.cfi_startproc
 365              		@ args = 0, pretend = 0, frame = 16
 366              		@ frame_needed = 1, uses_anonymous_args = 0
 367 0000 90B5     		push	{r4, r7, lr}	@
 368              	.LCFI9:
 369              		.cfi_def_cfa_offset 12
 370              		.cfi_offset 4, -12
 371              		.cfi_offset 7, -8
 372              		.cfi_offset 14, -4
 373 0002 85B0     		sub	sp, sp, #20	@,,
 374              	.LCFI10:
 375              		.cfi_def_cfa_offset 32
 376 0004 00AF     		add	r7, sp, #0	@,,
 377              	.LCFI11:
 378              		.cfi_def_cfa_register 7
 379 0006 7860     		str	r0, [r7, #4]	@ pxMutex, pxMutex
 468:Source/queue.c **** 	portBASE_TYPE xReturn;
 469:Source/queue.c **** 
 470:Source/queue.c **** 		configASSERT( pxMutex );
 471:Source/queue.c **** 
 472:Source/queue.c **** 		/* If this is the task that holds the mutex then pxMutexHolder will not
 473:Source/queue.c **** 		change outside of this task.  If this task does not hold the mutex then
 474:Source/queue.c **** 		pxMutexHolder can never coincidentally equal the tasks handle, and as
 475:Source/queue.c **** 		this is the only condition we are interested in it does not matter if
 476:Source/queue.c **** 		pxMutexHolder is accessed simultaneously by another task.  Therefore no
ARM GAS  C:\Users\Grzybek\AppData\Local\Temp\ccXBk3wH.s 			page 16


 477:Source/queue.c **** 		mutual exclusion is required to test the pxMutexHolder variable. */
 478:Source/queue.c **** 		if( pxMutex->pxMutexHolder == xTaskGetCurrentTaskHandle() )
 380              		.loc 1 478 0
 381 0008 7B68     		ldr	r3, [r7, #4]	@ tmp141, pxMutex
 382 000a 5C68     		ldr	r4, [r3, #4]	@ D.5434, pxMutex_2(D)->pcTail
 383 000c FFF7FEFF 		bl	xTaskGetCurrentTaskHandle	@
 384 0010 0346     		mov	r3, r0	@ D.5435,
 385 0012 9C42     		cmp	r4, r3	@ D.5434, D.5435
 386 0014 16D1     		bne	.L13	@,
 479:Source/queue.c **** 		{
 480:Source/queue.c **** 			traceGIVE_MUTEX_RECURSIVE( pxMutex );
 481:Source/queue.c **** 
 482:Source/queue.c **** 			/* uxRecursiveCallCount cannot be zero if pxMutexHolder is equal to
 483:Source/queue.c **** 			the task handle, therefore no underflow check is required.  Also,
 484:Source/queue.c **** 			uxRecursiveCallCount is only modified by the mutex holder, and as
 485:Source/queue.c **** 			there can only be one, no mutual exclusion is required to modify the
 486:Source/queue.c **** 			uxRecursiveCallCount member. */
 487:Source/queue.c **** 			( pxMutex->uxRecursiveCallCount )--;
 387              		.loc 1 487 0
 388 0016 7B68     		ldr	r3, [r7, #4]	@ tmp142, pxMutex
 389 0018 DB68     		ldr	r3, [r3, #12]	@ D.5438, pxMutex_2(D)->pcReadFrom
 390 001a 03F1FF32 		add	r2, r3, #-1	@ D.5439, D.5438,
 391 001e 7B68     		ldr	r3, [r7, #4]	@ tmp143, pxMutex
 392 0020 DA60     		str	r2, [r3, #12]	@ D.5439, pxMutex_2(D)->pcReadFrom
 488:Source/queue.c **** 
 489:Source/queue.c **** 			/* Have we unwound the call count? */
 490:Source/queue.c **** 			if( pxMutex->uxRecursiveCallCount == 0 )
 393              		.loc 1 490 0
 394 0022 7B68     		ldr	r3, [r7, #4]	@ tmp144, pxMutex
 395 0024 DB68     		ldr	r3, [r3, #12]	@ D.5440, pxMutex_2(D)->pcReadFrom
 396 0026 002B     		cmp	r3, #0	@ D.5440,
 397 0028 08D1     		bne	.L14	@,
 491:Source/queue.c **** 			{
 492:Source/queue.c **** 				/* Return the mutex.  This will automatically unblock any other
 493:Source/queue.c **** 				task that might be waiting to access the mutex. */
 494:Source/queue.c **** 				xQueueGenericSend( pxMutex, NULL, queueMUTEX_GIVE_BLOCK_TIME, queueSEND_TO_BACK );
 398              		.loc 1 494 0
 399 002a 7868     		ldr	r0, [r7, #4]	@, pxMutex
 400 002c 4FF00001 		mov	r1, #0	@,
 401 0030 4FF00002 		mov	r2, #0	@,
 402 0034 4FF00003 		mov	r3, #0	@,
 403 0038 FFF7FEFF 		bl	xQueueGenericSend	@
 404              	.L14:
 495:Source/queue.c **** 			}
 496:Source/queue.c **** 
 497:Source/queue.c **** 			xReturn = pdPASS;
 405              		.loc 1 497 0
 406 003c 4FF00103 		mov	r3, #1	@ tmp145,
 407 0040 FB60     		str	r3, [r7, #12]	@ tmp145, xReturn
 408 0042 02E0     		b	.L15	@
 409              	.L13:
 498:Source/queue.c **** 		}
 499:Source/queue.c **** 		else
 500:Source/queue.c **** 		{
 501:Source/queue.c **** 			/* We cannot give the mutex because we are not the holder. */
 502:Source/queue.c **** 			xReturn = pdFAIL;
 410              		.loc 1 502 0
ARM GAS  C:\Users\Grzybek\AppData\Local\Temp\ccXBk3wH.s 			page 17


 411 0044 4FF00003 		mov	r3, #0	@ tmp146,
 412 0048 FB60     		str	r3, [r7, #12]	@ tmp146, xReturn
 413              	.L15:
 503:Source/queue.c **** 
 504:Source/queue.c **** 			traceGIVE_MUTEX_RECURSIVE_FAILED( pxMutex );
 505:Source/queue.c **** 		}
 506:Source/queue.c **** 
 507:Source/queue.c **** 		return xReturn;
 414              		.loc 1 507 0
 415 004a FB68     		ldr	r3, [r7, #12]	@ D.5444, xReturn
 508:Source/queue.c **** 	}
 416              		.loc 1 508 0
 417 004c 1846     		mov	r0, r3	@, <retval>
 418 004e 07F11407 		add	r7, r7, #20	@,,
 419 0052 BD46     		mov	sp, r7
 420 0054 90BD     		pop	{r4, r7, pc}
 421              		.cfi_endproc
 422              	.LFE3:
 423              		.size	xQueueGiveMutexRecursive, .-xQueueGiveMutexRecursive
 424 0056 00BF     		.section	.text.xQueueTakeMutexRecursive,"ax",%progbits
 425              		.align	2
 426              		.global	xQueueTakeMutexRecursive
 427              		.thumb
 428              		.thumb_func
 429              		.type	xQueueTakeMutexRecursive, %function
 430              	xQueueTakeMutexRecursive:
 431              	.LFB4:
 509:Source/queue.c **** 
 510:Source/queue.c **** #endif /* configUSE_RECURSIVE_MUTEXES */
 511:Source/queue.c **** /*-----------------------------------------------------------*/
 512:Source/queue.c **** 
 513:Source/queue.c **** #if configUSE_RECURSIVE_MUTEXES == 1
 514:Source/queue.c **** 
 515:Source/queue.c **** 	portBASE_TYPE xQueueTakeMutexRecursive( xQueueHandle pxMutex, portTickType xBlockTime )
 516:Source/queue.c **** 	{
 432              		.loc 1 516 0
 433              		.cfi_startproc
 434              		@ args = 0, pretend = 0, frame = 16
 435              		@ frame_needed = 1, uses_anonymous_args = 0
 436 0000 90B5     		push	{r4, r7, lr}	@
 437              	.LCFI12:
 438              		.cfi_def_cfa_offset 12
 439              		.cfi_offset 4, -12
 440              		.cfi_offset 7, -8
 441              		.cfi_offset 14, -4
 442 0002 85B0     		sub	sp, sp, #20	@,,
 443              	.LCFI13:
 444              		.cfi_def_cfa_offset 32
 445 0004 00AF     		add	r7, sp, #0	@,,
 446              	.LCFI14:
 447              		.cfi_def_cfa_register 7
 448 0006 7860     		str	r0, [r7, #4]	@ pxMutex, pxMutex
 449 0008 3960     		str	r1, [r7, #0]	@ xBlockTime, xBlockTime
 517:Source/queue.c **** 	portBASE_TYPE xReturn;
 518:Source/queue.c **** 
 519:Source/queue.c **** 		configASSERT( pxMutex );
 520:Source/queue.c **** 
ARM GAS  C:\Users\Grzybek\AppData\Local\Temp\ccXBk3wH.s 			page 18


 521:Source/queue.c **** 		/* Comments regarding mutual exclusion as per those within
 522:Source/queue.c **** 		xQueueGiveMutexRecursive(). */
 523:Source/queue.c **** 
 524:Source/queue.c **** 		traceTAKE_MUTEX_RECURSIVE( pxMutex );
 525:Source/queue.c **** 
 526:Source/queue.c **** 		if( pxMutex->pxMutexHolder == xTaskGetCurrentTaskHandle() )
 450              		.loc 1 526 0
 451 000a 7B68     		ldr	r3, [r7, #4]	@ tmp142, pxMutex
 452 000c 5C68     		ldr	r4, [r3, #4]	@ D.5420, pxMutex_2(D)->pcTail
 453 000e FFF7FEFF 		bl	xTaskGetCurrentTaskHandle	@
 454 0012 0346     		mov	r3, r0	@ D.5421,
 455 0014 9C42     		cmp	r4, r3	@ D.5420, D.5421
 456 0016 09D1     		bne	.L18	@,
 527:Source/queue.c **** 		{
 528:Source/queue.c **** 			( pxMutex->uxRecursiveCallCount )++;
 457              		.loc 1 528 0
 458 0018 7B68     		ldr	r3, [r7, #4]	@ tmp143, pxMutex
 459 001a DB68     		ldr	r3, [r3, #12]	@ D.5424, pxMutex_2(D)->pcReadFrom
 460 001c 03F10102 		add	r2, r3, #1	@ D.5425, D.5424,
 461 0020 7B68     		ldr	r3, [r7, #4]	@ tmp144, pxMutex
 462 0022 DA60     		str	r2, [r3, #12]	@ D.5425, pxMutex_2(D)->pcReadFrom
 529:Source/queue.c **** 			xReturn = pdPASS;
 463              		.loc 1 529 0
 464 0024 4FF00103 		mov	r3, #1	@ tmp145,
 465 0028 FB60     		str	r3, [r7, #12]	@ tmp145, xReturn
 466 002a 11E0     		b	.L19	@
 467              	.L18:
 530:Source/queue.c **** 		}
 531:Source/queue.c **** 		else
 532:Source/queue.c **** 		{
 533:Source/queue.c **** 			xReturn = xQueueGenericReceive( pxMutex, NULL, xBlockTime, pdFALSE );
 468              		.loc 1 533 0
 469 002c 7868     		ldr	r0, [r7, #4]	@, pxMutex
 470 002e 4FF00001 		mov	r1, #0	@,
 471 0032 3A68     		ldr	r2, [r7, #0]	@, xBlockTime
 472 0034 4FF00003 		mov	r3, #0	@,
 473 0038 FFF7FEFF 		bl	xQueueGenericReceive	@
 474 003c F860     		str	r0, [r7, #12]	@, xReturn
 534:Source/queue.c **** 
 535:Source/queue.c **** 			/* pdPASS will only be returned if we successfully obtained the mutex,
 536:Source/queue.c **** 			we may have blocked to reach here. */
 537:Source/queue.c **** 			if( xReturn == pdPASS )
 475              		.loc 1 537 0
 476 003e FB68     		ldr	r3, [r7, #12]	@ tmp146, xReturn
 477 0040 012B     		cmp	r3, #1	@ tmp146,
 478 0042 05D1     		bne	.L19	@,
 538:Source/queue.c **** 			{
 539:Source/queue.c **** 				( pxMutex->uxRecursiveCallCount )++;
 479              		.loc 1 539 0
 480 0044 7B68     		ldr	r3, [r7, #4]	@ tmp147, pxMutex
 481 0046 DB68     		ldr	r3, [r3, #12]	@ D.5429, pxMutex_2(D)->pcReadFrom
 482 0048 03F10102 		add	r2, r3, #1	@ D.5430, D.5429,
 483 004c 7B68     		ldr	r3, [r7, #4]	@ tmp148, pxMutex
 484 004e DA60     		str	r2, [r3, #12]	@ D.5430, pxMutex_2(D)->pcReadFrom
 485              	.L19:
 540:Source/queue.c **** 			}
 541:Source/queue.c **** 			else
ARM GAS  C:\Users\Grzybek\AppData\Local\Temp\ccXBk3wH.s 			page 19


 542:Source/queue.c **** 			{
 543:Source/queue.c **** 				traceTAKE_MUTEX_RECURSIVE_FAILED( pxMutex );
 544:Source/queue.c **** 			}
 545:Source/queue.c **** 		}
 546:Source/queue.c **** 
 547:Source/queue.c **** 		return xReturn;
 486              		.loc 1 547 0
 487 0050 FB68     		ldr	r3, [r7, #12]	@ D.5432, xReturn
 548:Source/queue.c **** 	}
 488              		.loc 1 548 0
 489 0052 1846     		mov	r0, r3	@, <retval>
 490 0054 07F11407 		add	r7, r7, #20	@,,
 491 0058 BD46     		mov	sp, r7
 492 005a 90BD     		pop	{r4, r7, pc}
 493              		.cfi_endproc
 494              	.LFE4:
 495              		.size	xQueueTakeMutexRecursive, .-xQueueTakeMutexRecursive
 496              		.section	.text.xQueueGenericSend,"ax",%progbits
 497              		.align	2
 498              		.global	xQueueGenericSend
 499              		.thumb
 500              		.thumb_func
 501              		.type	xQueueGenericSend, %function
 502              	xQueueGenericSend:
 503              	.LFB5:
 549:Source/queue.c **** 
 550:Source/queue.c **** #endif /* configUSE_RECURSIVE_MUTEXES */
 551:Source/queue.c **** /*-----------------------------------------------------------*/
 552:Source/queue.c **** 
 553:Source/queue.c **** #if configUSE_COUNTING_SEMAPHORES == 1
 554:Source/queue.c **** 
 555:Source/queue.c **** 	xQueueHandle xQueueCreateCountingSemaphore( unsigned portBASE_TYPE uxCountValue, unsigned portBASE
 556:Source/queue.c **** 	{
 557:Source/queue.c **** 	xQueueHandle pxHandle;
 558:Source/queue.c **** 
 559:Source/queue.c **** 		pxHandle = xQueueGenericCreate( ( unsigned portBASE_TYPE ) uxCountValue, queueSEMAPHORE_QUEUE_ITE
 560:Source/queue.c **** 
 561:Source/queue.c **** 		if( pxHandle != NULL )
 562:Source/queue.c **** 		{
 563:Source/queue.c **** 			pxHandle->uxMessagesWaiting = uxInitialCount;
 564:Source/queue.c **** 
 565:Source/queue.c **** 			traceCREATE_COUNTING_SEMAPHORE();
 566:Source/queue.c **** 		}
 567:Source/queue.c **** 		else
 568:Source/queue.c **** 		{
 569:Source/queue.c **** 			traceCREATE_COUNTING_SEMAPHORE_FAILED();
 570:Source/queue.c **** 		}
 571:Source/queue.c **** 
 572:Source/queue.c **** 		configASSERT( pxHandle );
 573:Source/queue.c **** 		return pxHandle;
 574:Source/queue.c **** 	}
 575:Source/queue.c **** 
 576:Source/queue.c **** #endif /* configUSE_COUNTING_SEMAPHORES */
 577:Source/queue.c **** /*-----------------------------------------------------------*/
 578:Source/queue.c **** 
 579:Source/queue.c **** signed portBASE_TYPE xQueueGenericSend( xQueueHandle pxQueue, const void * const pvItemToQueue, por
 580:Source/queue.c **** {
ARM GAS  C:\Users\Grzybek\AppData\Local\Temp\ccXBk3wH.s 			page 20


 504              		.loc 1 580 0
 505              		.cfi_startproc
 506              		@ args = 0, pretend = 0, frame = 32
 507              		@ frame_needed = 1, uses_anonymous_args = 0
 508 0000 80B5     		push	{r7, lr}	@
 509              	.LCFI15:
 510              		.cfi_def_cfa_offset 8
 511              		.cfi_offset 7, -8
 512              		.cfi_offset 14, -4
 513 0002 88B0     		sub	sp, sp, #32	@,,
 514              	.LCFI16:
 515              		.cfi_def_cfa_offset 40
 516 0004 00AF     		add	r7, sp, #0	@,,
 517              	.LCFI17:
 518              		.cfi_def_cfa_register 7
 519 0006 F860     		str	r0, [r7, #12]	@ pxQueue, pxQueue
 520 0008 B960     		str	r1, [r7, #8]	@ pvItemToQueue, pvItemToQueue
 521 000a 7A60     		str	r2, [r7, #4]	@ xTicksToWait, xTicksToWait
 522 000c 3B60     		str	r3, [r7, #0]	@ xCopyPosition, xCopyPosition
 581:Source/queue.c **** signed portBASE_TYPE xEntryTimeSet = pdFALSE;
 523              		.loc 1 581 0
 524 000e 4FF00003 		mov	r3, #0	@ tmp149,
 525 0012 FB61     		str	r3, [r7, #28]	@ tmp149, xEntryTimeSet
 526 0014 00E0     		b	.L32	@
 527              	.L34:
 582:Source/queue.c **** xTimeOutType xTimeOut;
 583:Source/queue.c **** 
 584:Source/queue.c **** 	configASSERT( pxQueue );
 585:Source/queue.c **** 	configASSERT( !( ( pvItemToQueue == NULL ) && ( pxQueue->uxItemSize != ( unsigned portBASE_TYPE ) 
 586:Source/queue.c **** 
 587:Source/queue.c **** 	/* This function relaxes the coding standard somewhat to allow return
 588:Source/queue.c **** 	statements within the function itself.  This is done in the interest
 589:Source/queue.c **** 	of execution time efficiency. */
 590:Source/queue.c **** 	for( ;; )
 591:Source/queue.c **** 	{
 592:Source/queue.c **** 		taskENTER_CRITICAL();
 593:Source/queue.c **** 		{
 594:Source/queue.c **** 			/* Is there room on the queue now?  To be running we must be
 595:Source/queue.c **** 			the highest priority task wanting to access the queue. */
 596:Source/queue.c **** 			if( pxQueue->uxMessagesWaiting < pxQueue->uxLength )
 597:Source/queue.c **** 			{
 598:Source/queue.c **** 				traceQUEUE_SEND( pxQueue );
 599:Source/queue.c **** 				prvCopyDataToQueue( pxQueue, pvItemToQueue, xCopyPosition );
 600:Source/queue.c **** 
 601:Source/queue.c **** 				/* If there was a task waiting for data to arrive on the
 602:Source/queue.c **** 				queue then unblock it now. */
 603:Source/queue.c **** 				if( listLIST_IS_EMPTY( &( pxQueue->xTasksWaitingToReceive ) ) == pdFALSE )
 604:Source/queue.c **** 				{
 605:Source/queue.c **** 					if( xTaskRemoveFromEventList( &( pxQueue->xTasksWaitingToReceive ) ) == pdTRUE )
 606:Source/queue.c **** 					{
 607:Source/queue.c **** 						/* The unblocked task has a priority higher than
 608:Source/queue.c **** 						our own so yield immediately.  Yes it is ok to do
 609:Source/queue.c **** 						this from within the critical section - the kernel
 610:Source/queue.c **** 						takes care of that. */
 611:Source/queue.c **** 						portYIELD_WITHIN_API();
 612:Source/queue.c **** 					}
 613:Source/queue.c **** 				}
ARM GAS  C:\Users\Grzybek\AppData\Local\Temp\ccXBk3wH.s 			page 21


 614:Source/queue.c **** 
 615:Source/queue.c **** 				taskEXIT_CRITICAL();
 616:Source/queue.c **** 
 617:Source/queue.c **** 				/* Return to the original privilege level before exiting the
 618:Source/queue.c **** 				function. */
 619:Source/queue.c **** 				return pdPASS;
 620:Source/queue.c **** 			}
 621:Source/queue.c **** 			else
 622:Source/queue.c **** 			{
 623:Source/queue.c **** 				if( xTicksToWait == ( portTickType ) 0 )
 624:Source/queue.c **** 				{
 625:Source/queue.c **** 					/* The queue was full and no block time is specified (or
 626:Source/queue.c **** 					the block time has expired) so leave now. */
 627:Source/queue.c **** 					taskEXIT_CRITICAL();
 628:Source/queue.c **** 
 629:Source/queue.c **** 					/* Return to the original privilege level before exiting
 630:Source/queue.c **** 					the function. */
 631:Source/queue.c **** 					traceQUEUE_SEND_FAILED( pxQueue );
 632:Source/queue.c **** 					return errQUEUE_FULL;
 633:Source/queue.c **** 				}
 634:Source/queue.c **** 				else if( xEntryTimeSet == pdFALSE )
 635:Source/queue.c **** 				{
 636:Source/queue.c **** 					/* The queue was full and a block time was specified so
 637:Source/queue.c **** 					configure the timeout structure. */
 638:Source/queue.c **** 					vTaskSetTimeOutState( &xTimeOut );
 639:Source/queue.c **** 					xEntryTimeSet = pdTRUE;
 640:Source/queue.c **** 				}
 641:Source/queue.c **** 			}
 642:Source/queue.c **** 		}
 643:Source/queue.c **** 		taskEXIT_CRITICAL();
 644:Source/queue.c **** 
 645:Source/queue.c **** 		/* Interrupts and other tasks can send to and receive from the queue
 646:Source/queue.c **** 		now the critical section has been exited. */
 647:Source/queue.c **** 
 648:Source/queue.c **** 		vTaskSuspendAll();
 649:Source/queue.c **** 		prvLockQueue( pxQueue );
 650:Source/queue.c **** 
 651:Source/queue.c **** 		/* Update the timeout state to see if it has expired yet. */
 652:Source/queue.c **** 		if( xTaskCheckForTimeOut( &xTimeOut, &xTicksToWait ) == pdFALSE )
 653:Source/queue.c **** 		{
 654:Source/queue.c **** 			if( prvIsQueueFull( pxQueue ) != pdFALSE )
 655:Source/queue.c **** 			{
 656:Source/queue.c **** 				traceBLOCKING_ON_QUEUE_SEND( pxQueue );
 657:Source/queue.c **** 				vTaskPlaceOnEventList( &( pxQueue->xTasksWaitingToSend ), xTicksToWait );
 658:Source/queue.c **** 
 659:Source/queue.c **** 				/* Unlocking the queue means queue events can effect the
 660:Source/queue.c **** 				event list.  It is possible	that interrupts occurring now
 661:Source/queue.c **** 				remove this task from the event	list again - but as the
 662:Source/queue.c **** 				scheduler is suspended the task will go onto the pending
 663:Source/queue.c **** 				ready last instead of the actual ready list. */
 664:Source/queue.c **** 				prvUnlockQueue( pxQueue );
 665:Source/queue.c **** 
 666:Source/queue.c **** 				/* Resuming the scheduler will move tasks from the pending
 667:Source/queue.c **** 				ready list into the ready list - so it is feasible that this
 668:Source/queue.c **** 				task is already in a ready list before it yields - in which
 669:Source/queue.c **** 				case the yield will not cause a context switch unless there
 670:Source/queue.c **** 				is also a higher priority task in the pending ready list. */
ARM GAS  C:\Users\Grzybek\AppData\Local\Temp\ccXBk3wH.s 			page 22


 671:Source/queue.c **** 				if( xTaskResumeAll() == pdFALSE )
 672:Source/queue.c **** 				{
 673:Source/queue.c **** 					portYIELD_WITHIN_API();
 674:Source/queue.c **** 				}
 675:Source/queue.c **** 			}
 676:Source/queue.c **** 			else
 677:Source/queue.c **** 			{
 678:Source/queue.c **** 				/* Try again. */
 679:Source/queue.c **** 				prvUnlockQueue( pxQueue );
 680:Source/queue.c **** 				( void ) xTaskResumeAll();
 681:Source/queue.c **** 			}
 682:Source/queue.c **** 		}
 683:Source/queue.c **** 		else
 684:Source/queue.c **** 		{
 685:Source/queue.c **** 			/* The timeout has expired. */
 686:Source/queue.c **** 			prvUnlockQueue( pxQueue );
 687:Source/queue.c **** 			( void ) xTaskResumeAll();
 688:Source/queue.c **** 
 689:Source/queue.c **** 			/* Return to the original privilege level before exiting the
 690:Source/queue.c **** 			function. */
 691:Source/queue.c **** 			traceQUEUE_SEND_FAILED( pxQueue );
 692:Source/queue.c **** 			return errQUEUE_FULL;
 693:Source/queue.c **** 		}
 694:Source/queue.c **** 	}
 528              		.loc 1 694 0
 529 0016 00BF     		nop
 530              	.L32:
 592:Source/queue.c **** 		taskENTER_CRITICAL();
 531              		.loc 1 592 0
 532 0018 FFF7FEFF 		bl	vPortEnterCritical	@
 596:Source/queue.c **** 			if( pxQueue->uxMessagesWaiting < pxQueue->uxLength )
 533              		.loc 1 596 0
 534 001c FB68     		ldr	r3, [r7, #12]	@ tmp150, pxQueue
 535 001e 9A6B     		ldr	r2, [r3, #56]	@ D.5382, pxQueue_5(D)->uxMessagesWaiting
 536 0020 FB68     		ldr	r3, [r7, #12]	@ tmp151, pxQueue
 537 0022 DB6B     		ldr	r3, [r3, #60]	@ D.5383, pxQueue_5(D)->uxLength
 538 0024 9A42     		cmp	r2, r3	@ D.5382, D.5383
 539 0026 18D2     		bcs	.L22	@,
 599:Source/queue.c **** 				prvCopyDataToQueue( pxQueue, pvItemToQueue, xCopyPosition );
 540              		.loc 1 599 0
 541 0028 F868     		ldr	r0, [r7, #12]	@, pxQueue
 542 002a B968     		ldr	r1, [r7, #8]	@, pvItemToQueue
 543 002c 3A68     		ldr	r2, [r7, #0]	@, xCopyPosition
 544 002e FFF7FEFF 		bl	prvCopyDataToQueue	@
 603:Source/queue.c **** 				if( listLIST_IS_EMPTY( &( pxQueue->xTasksWaitingToReceive ) ) == pdFALSE )
 545              		.loc 1 603 0
 546 0032 FB68     		ldr	r3, [r7, #12]	@ tmp152, pxQueue
 547 0034 5B6A     		ldr	r3, [r3, #36]	@ D.5386, pxQueue_5(D)->xTasksWaitingToReceive.uxNumberOfItems
 548 0036 002B     		cmp	r3, #0	@ D.5386,
 549 0038 0AD0     		beq	.L23	@,
 605:Source/queue.c **** 					if( xTaskRemoveFromEventList( &( pxQueue->xTasksWaitingToReceive ) ) == pdTRUE )
 550              		.loc 1 605 0
 551 003a FB68     		ldr	r3, [r7, #12]	@ tmp153, pxQueue
 552 003c 03F12403 		add	r3, r3, #36	@ D.5389, tmp153,
 553 0040 1846     		mov	r0, r3	@, D.5389
 554 0042 FFF7FEFF 		bl	xTaskRemoveFromEventList	@
 555 0046 0346     		mov	r3, r0	@ D.5390,
ARM GAS  C:\Users\Grzybek\AppData\Local\Temp\ccXBk3wH.s 			page 23


 556 0048 012B     		cmp	r3, #1	@ D.5390,
 557 004a 01D1     		bne	.L23	@,
 611:Source/queue.c **** 						portYIELD_WITHIN_API();
 558              		.loc 1 611 0
 559 004c FFF7FEFF 		bl	vPortYieldFromISR	@
 560              	.L23:
 615:Source/queue.c **** 				taskEXIT_CRITICAL();
 561              		.loc 1 615 0
 562 0050 FFF7FEFF 		bl	vPortExitCritical	@
 619:Source/queue.c **** 				return pdPASS;
 563              		.loc 1 619 0
 564 0054 4FF00103 		mov	r3, #1	@ D.5393,
 565 0058 5DE0     		b	.L33	@
 566              	.L22:
 623:Source/queue.c **** 				if( xTicksToWait == ( portTickType ) 0 )
 567              		.loc 1 623 0
 568 005a 7B68     		ldr	r3, [r7, #4]	@ xTicksToWait.2, xTicksToWait
 569 005c 002B     		cmp	r3, #0	@ xTicksToWait.2,
 570 005e 04D1     		bne	.L25	@,
 627:Source/queue.c **** 					taskEXIT_CRITICAL();
 571              		.loc 1 627 0
 572 0060 FFF7FEFF 		bl	vPortExitCritical	@
 632:Source/queue.c **** 					return errQUEUE_FULL;
 573              		.loc 1 632 0
 574 0064 4FF00003 		mov	r3, #0	@ D.5393,
 575 0068 55E0     		b	.L33	@
 576              	.L25:
 634:Source/queue.c **** 				else if( xEntryTimeSet == pdFALSE )
 577              		.loc 1 634 0
 578 006a FB69     		ldr	r3, [r7, #28]	@ tmp154, xEntryTimeSet
 579 006c 002B     		cmp	r3, #0	@ tmp154,
 580 006e 07D1     		bne	.L26	@,
 638:Source/queue.c **** 					vTaskSetTimeOutState( &xTimeOut );
 581              		.loc 1 638 0
 582 0070 07F11403 		add	r3, r7, #20	@ tmp155,,
 583 0074 1846     		mov	r0, r3	@, tmp155
 584 0076 FFF7FEFF 		bl	vTaskSetTimeOutState	@
 639:Source/queue.c **** 					xEntryTimeSet = pdTRUE;
 585              		.loc 1 639 0
 586 007a 4FF00103 		mov	r3, #1	@ tmp156,
 587 007e FB61     		str	r3, [r7, #28]	@ tmp156, xEntryTimeSet
 588              	.L26:
 643:Source/queue.c **** 		taskEXIT_CRITICAL();
 589              		.loc 1 643 0
 590 0080 FFF7FEFF 		bl	vPortExitCritical	@
 648:Source/queue.c **** 		vTaskSuspendAll();
 591              		.loc 1 648 0
 592 0084 FFF7FEFF 		bl	vTaskSuspendAll	@
 649:Source/queue.c **** 		prvLockQueue( pxQueue );
 593              		.loc 1 649 0
 594 0088 FFF7FEFF 		bl	vPortEnterCritical	@
 595 008c FB68     		ldr	r3, [r7, #12]	@ tmp157, pxQueue
 596 008e 5B6C     		ldr	r3, [r3, #68]	@ D.5399, pxQueue_5(D)->xRxLock
 597 0090 B3F1FF3F 		cmp	r3, #-1	@ D.5399,
 598 0094 03D1     		bne	.L27	@,
 649:Source/queue.c **** 		prvLockQueue( pxQueue );
 599              		.loc 1 649 0 is_stmt 0 discriminator 1
ARM GAS  C:\Users\Grzybek\AppData\Local\Temp\ccXBk3wH.s 			page 24


 600 0096 FB68     		ldr	r3, [r7, #12]	@ tmp158, pxQueue
 601 0098 4FF00002 		mov	r2, #0	@ tmp159,
 602 009c 5A64     		str	r2, [r3, #68]	@ tmp159, pxQueue_5(D)->xRxLock
 603              	.L27:
 649:Source/queue.c **** 		prvLockQueue( pxQueue );
 604              		.loc 1 649 0 discriminator 2
 605 009e FB68     		ldr	r3, [r7, #12]	@ tmp160, pxQueue
 606 00a0 9B6C     		ldr	r3, [r3, #72]	@ D.5402, pxQueue_5(D)->xTxLock
 607 00a2 B3F1FF3F 		cmp	r3, #-1	@ D.5402,
 608 00a6 03D1     		bne	.L28	@,
 649:Source/queue.c **** 		prvLockQueue( pxQueue );
 609              		.loc 1 649 0 discriminator 3
 610 00a8 FB68     		ldr	r3, [r7, #12]	@ tmp161, pxQueue
 611 00aa 4FF00002 		mov	r2, #0	@ tmp162,
 612 00ae 9A64     		str	r2, [r3, #72]	@ tmp162, pxQueue_5(D)->xTxLock
 613              	.L28:
 649:Source/queue.c **** 		prvLockQueue( pxQueue );
 614              		.loc 1 649 0 discriminator 4
 615 00b0 FFF7FEFF 		bl	vPortExitCritical	@
 652:Source/queue.c **** 		if( xTaskCheckForTimeOut( &xTimeOut, &xTicksToWait ) == pdFALSE )
 616              		.loc 1 652 0 is_stmt 1 discriminator 4
 617 00b4 07F11402 		add	r2, r7, #20	@ tmp163,,
 618 00b8 07F10403 		add	r3, r7, #4	@ tmp164,,
 619 00bc 1046     		mov	r0, r2	@, tmp163
 620 00be 1946     		mov	r1, r3	@, tmp164
 621 00c0 FFF7FEFF 		bl	xTaskCheckForTimeOut	@
 622 00c4 0346     		mov	r3, r0	@ D.5405,
 623 00c6 002B     		cmp	r3, #0	@ D.5405,
 624 00c8 1ED1     		bne	.L29	@,
 654:Source/queue.c **** 			if( prvIsQueueFull( pxQueue ) != pdFALSE )
 625              		.loc 1 654 0
 626 00ca F868     		ldr	r0, [r7, #12]	@, pxQueue
 627 00cc FFF7FEFF 		bl	prvIsQueueFull	@
 628 00d0 0346     		mov	r3, r0	@ D.5408,
 629 00d2 002B     		cmp	r3, #0	@ D.5408,
 630 00d4 12D0     		beq	.L30	@,
 657:Source/queue.c **** 				vTaskPlaceOnEventList( &( pxQueue->xTasksWaitingToSend ), xTicksToWait );
 631              		.loc 1 657 0
 632 00d6 FB68     		ldr	r3, [r7, #12]	@ tmp165, pxQueue
 633 00d8 03F11002 		add	r2, r3, #16	@ D.5411, tmp165,
 634 00dc 7B68     		ldr	r3, [r7, #4]	@ xTicksToWait.3, xTicksToWait
 635 00de 1046     		mov	r0, r2	@, D.5411
 636 00e0 1946     		mov	r1, r3	@, xTicksToWait.3
 637 00e2 FFF7FEFF 		bl	vTaskPlaceOnEventList	@
 664:Source/queue.c **** 				prvUnlockQueue( pxQueue );
 638              		.loc 1 664 0
 639 00e6 F868     		ldr	r0, [r7, #12]	@, pxQueue
 640 00e8 FFF7FEFF 		bl	prvUnlockQueue	@
 671:Source/queue.c **** 				if( xTaskResumeAll() == pdFALSE )
 641              		.loc 1 671 0
 642 00ec FFF7FEFF 		bl	xTaskResumeAll	@
 643 00f0 0346     		mov	r3, r0	@ D.5413,
 644 00f2 002B     		cmp	r3, #0	@ D.5413,
 645 00f4 8FD1     		bne	.L34	@,
 673:Source/queue.c **** 					portYIELD_WITHIN_API();
 646              		.loc 1 673 0
 647 00f6 FFF7FEFF 		bl	vPortYieldFromISR	@
ARM GAS  C:\Users\Grzybek\AppData\Local\Temp\ccXBk3wH.s 			page 25


 648              		.loc 1 694 0
 649 00fa 8CE7     		b	.L34	@
 650              	.L30:
 679:Source/queue.c **** 				prvUnlockQueue( pxQueue );
 651              		.loc 1 679 0
 652 00fc F868     		ldr	r0, [r7, #12]	@, pxQueue
 653 00fe FFF7FEFF 		bl	prvUnlockQueue	@
 680:Source/queue.c **** 				( void ) xTaskResumeAll();
 654              		.loc 1 680 0
 655 0102 FFF7FEFF 		bl	xTaskResumeAll	@
 656              		.loc 1 694 0
 657 0106 86E7     		b	.L34	@
 658              	.L29:
 686:Source/queue.c **** 			prvUnlockQueue( pxQueue );
 659              		.loc 1 686 0
 660 0108 F868     		ldr	r0, [r7, #12]	@, pxQueue
 661 010a FFF7FEFF 		bl	prvUnlockQueue	@
 687:Source/queue.c **** 			( void ) xTaskResumeAll();
 662              		.loc 1 687 0
 663 010e FFF7FEFF 		bl	xTaskResumeAll	@
 692:Source/queue.c **** 			return errQUEUE_FULL;
 664              		.loc 1 692 0
 665 0112 4FF00003 		mov	r3, #0	@ D.5393,
 666              	.L33:
 695:Source/queue.c **** }
 667              		.loc 1 695 0
 668 0116 1846     		mov	r0, r3	@, <retval>
 669 0118 07F12007 		add	r7, r7, #32	@,,
 670 011c BD46     		mov	sp, r7
 671 011e 80BD     		pop	{r7, pc}
 672              		.cfi_endproc
 673              	.LFE5:
 674              		.size	xQueueGenericSend, .-xQueueGenericSend
 675              		.section	.text.xQueueGenericSendFromISR,"ax",%progbits
 676              		.align	2
 677              		.global	xQueueGenericSendFromISR
 678              		.thumb
 679              		.thumb_func
 680              		.type	xQueueGenericSendFromISR, %function
 681              	xQueueGenericSendFromISR:
 682              	.LFB6:
 696:Source/queue.c **** /*-----------------------------------------------------------*/
 697:Source/queue.c **** 
 698:Source/queue.c **** #if configUSE_ALTERNATIVE_API == 1
 699:Source/queue.c **** 
 700:Source/queue.c **** 	signed portBASE_TYPE xQueueAltGenericSend( xQueueHandle pxQueue, const void * const pvItemToQueue,
 701:Source/queue.c **** 	{
 702:Source/queue.c **** 	signed portBASE_TYPE xEntryTimeSet = pdFALSE;
 703:Source/queue.c **** 	xTimeOutType xTimeOut;
 704:Source/queue.c **** 
 705:Source/queue.c **** 		configASSERT( pxQueue );
 706:Source/queue.c **** 		configASSERT( !( ( pvItemToQueue == NULL ) && ( pxQueue->uxItemSize != ( unsigned portBASE_TYPE )
 707:Source/queue.c **** 
 708:Source/queue.c **** 		for( ;; )
 709:Source/queue.c **** 		{
 710:Source/queue.c **** 			taskENTER_CRITICAL();
 711:Source/queue.c **** 			{
ARM GAS  C:\Users\Grzybek\AppData\Local\Temp\ccXBk3wH.s 			page 26


 712:Source/queue.c **** 				/* Is there room on the queue now?  To be running we must be
 713:Source/queue.c **** 				the highest priority task wanting to access the queue. */
 714:Source/queue.c **** 				if( pxQueue->uxMessagesWaiting < pxQueue->uxLength )
 715:Source/queue.c **** 				{
 716:Source/queue.c **** 					traceQUEUE_SEND( pxQueue );
 717:Source/queue.c **** 					prvCopyDataToQueue( pxQueue, pvItemToQueue, xCopyPosition );
 718:Source/queue.c **** 
 719:Source/queue.c **** 					/* If there was a task waiting for data to arrive on the
 720:Source/queue.c **** 					queue then unblock it now. */
 721:Source/queue.c **** 					if( listLIST_IS_EMPTY( &( pxQueue->xTasksWaitingToReceive ) ) == pdFALSE )
 722:Source/queue.c **** 					{
 723:Source/queue.c **** 						if( xTaskRemoveFromEventList( &( pxQueue->xTasksWaitingToReceive ) ) == pdTRUE )
 724:Source/queue.c **** 						{
 725:Source/queue.c **** 							/* The unblocked task has a priority higher than
 726:Source/queue.c **** 							our own so yield immediately. */
 727:Source/queue.c **** 							portYIELD_WITHIN_API();
 728:Source/queue.c **** 						}
 729:Source/queue.c **** 					}
 730:Source/queue.c **** 
 731:Source/queue.c **** 					taskEXIT_CRITICAL();
 732:Source/queue.c **** 					return pdPASS;
 733:Source/queue.c **** 				}
 734:Source/queue.c **** 				else
 735:Source/queue.c **** 				{
 736:Source/queue.c **** 					if( xTicksToWait == ( portTickType ) 0 )
 737:Source/queue.c **** 					{
 738:Source/queue.c **** 						taskEXIT_CRITICAL();
 739:Source/queue.c **** 						return errQUEUE_FULL;
 740:Source/queue.c **** 					}
 741:Source/queue.c **** 					else if( xEntryTimeSet == pdFALSE )
 742:Source/queue.c **** 					{
 743:Source/queue.c **** 						vTaskSetTimeOutState( &xTimeOut );
 744:Source/queue.c **** 						xEntryTimeSet = pdTRUE;
 745:Source/queue.c **** 					}
 746:Source/queue.c **** 				}
 747:Source/queue.c **** 			}
 748:Source/queue.c **** 			taskEXIT_CRITICAL();
 749:Source/queue.c **** 
 750:Source/queue.c **** 			taskENTER_CRITICAL();
 751:Source/queue.c **** 			{
 752:Source/queue.c **** 				if( xTaskCheckForTimeOut( &xTimeOut, &xTicksToWait ) == pdFALSE )
 753:Source/queue.c **** 				{
 754:Source/queue.c **** 					if( prvIsQueueFull( pxQueue ) != pdFALSE )
 755:Source/queue.c **** 					{
 756:Source/queue.c **** 						traceBLOCKING_ON_QUEUE_SEND( pxQueue );
 757:Source/queue.c **** 						vTaskPlaceOnEventList( &( pxQueue->xTasksWaitingToSend ), xTicksToWait );
 758:Source/queue.c **** 						portYIELD_WITHIN_API();
 759:Source/queue.c **** 					}
 760:Source/queue.c **** 				}
 761:Source/queue.c **** 				else
 762:Source/queue.c **** 				{
 763:Source/queue.c **** 					taskEXIT_CRITICAL();
 764:Source/queue.c **** 					traceQUEUE_SEND_FAILED( pxQueue );
 765:Source/queue.c **** 					return errQUEUE_FULL;
 766:Source/queue.c **** 				}
 767:Source/queue.c **** 			}
 768:Source/queue.c **** 			taskEXIT_CRITICAL();
ARM GAS  C:\Users\Grzybek\AppData\Local\Temp\ccXBk3wH.s 			page 27


 769:Source/queue.c **** 		}
 770:Source/queue.c **** 	}
 771:Source/queue.c **** 
 772:Source/queue.c **** #endif /* configUSE_ALTERNATIVE_API */
 773:Source/queue.c **** /*-----------------------------------------------------------*/
 774:Source/queue.c **** 
 775:Source/queue.c **** #if configUSE_ALTERNATIVE_API == 1
 776:Source/queue.c **** 
 777:Source/queue.c **** 	signed portBASE_TYPE xQueueAltGenericReceive( xQueueHandle pxQueue, void * const pvBuffer, portTic
 778:Source/queue.c **** 	{
 779:Source/queue.c **** 	signed portBASE_TYPE xEntryTimeSet = pdFALSE;
 780:Source/queue.c **** 	xTimeOutType xTimeOut;
 781:Source/queue.c **** 	signed char *pcOriginalReadPosition;
 782:Source/queue.c **** 
 783:Source/queue.c **** 		configASSERT( pxQueue );
 784:Source/queue.c **** 		configASSERT( !( ( pvBuffer == NULL ) && ( pxQueue->uxItemSize != ( unsigned portBASE_TYPE ) 0U )
 785:Source/queue.c **** 
 786:Source/queue.c **** 		for( ;; )
 787:Source/queue.c **** 		{
 788:Source/queue.c **** 			taskENTER_CRITICAL();
 789:Source/queue.c **** 			{
 790:Source/queue.c **** 				if( pxQueue->uxMessagesWaiting > ( unsigned portBASE_TYPE ) 0 )
 791:Source/queue.c **** 				{
 792:Source/queue.c **** 					/* Remember our read position in case we are just peeking. */
 793:Source/queue.c **** 					pcOriginalReadPosition = pxQueue->pcReadFrom;
 794:Source/queue.c **** 
 795:Source/queue.c **** 					prvCopyDataFromQueue( pxQueue, pvBuffer );
 796:Source/queue.c **** 
 797:Source/queue.c **** 					if( xJustPeeking == pdFALSE )
 798:Source/queue.c **** 					{
 799:Source/queue.c **** 						traceQUEUE_RECEIVE( pxQueue );
 800:Source/queue.c **** 
 801:Source/queue.c **** 						/* We are actually removing data. */
 802:Source/queue.c **** 						--( pxQueue->uxMessagesWaiting );
 803:Source/queue.c **** 
 804:Source/queue.c **** 						#if ( configUSE_MUTEXES == 1 )
 805:Source/queue.c **** 						{
 806:Source/queue.c **** 							if( pxQueue->uxQueueType == queueQUEUE_IS_MUTEX )
 807:Source/queue.c **** 							{
 808:Source/queue.c **** 								/* Record the information required to implement
 809:Source/queue.c **** 								priority inheritance should it become necessary. */
 810:Source/queue.c **** 								pxQueue->pxMutexHolder = xTaskGetCurrentTaskHandle();
 811:Source/queue.c **** 							}
 812:Source/queue.c **** 						}
 813:Source/queue.c **** 						#endif
 814:Source/queue.c **** 
 815:Source/queue.c **** 						if( listLIST_IS_EMPTY( &( pxQueue->xTasksWaitingToSend ) ) == pdFALSE )
 816:Source/queue.c **** 						{
 817:Source/queue.c **** 							if( xTaskRemoveFromEventList( &( pxQueue->xTasksWaitingToSend ) ) == pdTRUE )
 818:Source/queue.c **** 							{
 819:Source/queue.c **** 								portYIELD_WITHIN_API();
 820:Source/queue.c **** 							}
 821:Source/queue.c **** 						}
 822:Source/queue.c **** 					}
 823:Source/queue.c **** 					else
 824:Source/queue.c **** 					{
 825:Source/queue.c **** 						traceQUEUE_PEEK( pxQueue );
ARM GAS  C:\Users\Grzybek\AppData\Local\Temp\ccXBk3wH.s 			page 28


 826:Source/queue.c **** 
 827:Source/queue.c **** 						/* We are not removing the data, so reset our read
 828:Source/queue.c **** 						pointer. */
 829:Source/queue.c **** 						pxQueue->pcReadFrom = pcOriginalReadPosition;
 830:Source/queue.c **** 
 831:Source/queue.c **** 						/* The data is being left in the queue, so see if there are
 832:Source/queue.c **** 						any other tasks waiting for the data. */
 833:Source/queue.c **** 						if( listLIST_IS_EMPTY( &( pxQueue->xTasksWaitingToReceive ) ) == pdFALSE )
 834:Source/queue.c **** 						{
 835:Source/queue.c **** 							/* Tasks that are removed from the event list will get added to
 836:Source/queue.c **** 							the pending ready list as the scheduler is still suspended. */
 837:Source/queue.c **** 							if( xTaskRemoveFromEventList( &( pxQueue->xTasksWaitingToReceive ) ) != pdFALSE )
 838:Source/queue.c **** 							{
 839:Source/queue.c **** 								/* The task waiting has a higher priority than this task. */
 840:Source/queue.c **** 								portYIELD_WITHIN_API();
 841:Source/queue.c **** 							}
 842:Source/queue.c **** 						}
 843:Source/queue.c **** 
 844:Source/queue.c **** 					}
 845:Source/queue.c **** 
 846:Source/queue.c **** 					taskEXIT_CRITICAL();
 847:Source/queue.c **** 					return pdPASS;
 848:Source/queue.c **** 				}
 849:Source/queue.c **** 				else
 850:Source/queue.c **** 				{
 851:Source/queue.c **** 					if( xTicksToWait == ( portTickType ) 0 )
 852:Source/queue.c **** 					{
 853:Source/queue.c **** 						taskEXIT_CRITICAL();
 854:Source/queue.c **** 						traceQUEUE_RECEIVE_FAILED( pxQueue );
 855:Source/queue.c **** 						return errQUEUE_EMPTY;
 856:Source/queue.c **** 					}
 857:Source/queue.c **** 					else if( xEntryTimeSet == pdFALSE )
 858:Source/queue.c **** 					{
 859:Source/queue.c **** 						vTaskSetTimeOutState( &xTimeOut );
 860:Source/queue.c **** 						xEntryTimeSet = pdTRUE;
 861:Source/queue.c **** 					}
 862:Source/queue.c **** 				}
 863:Source/queue.c **** 			}
 864:Source/queue.c **** 			taskEXIT_CRITICAL();
 865:Source/queue.c **** 
 866:Source/queue.c **** 			taskENTER_CRITICAL();
 867:Source/queue.c **** 			{
 868:Source/queue.c **** 				if( xTaskCheckForTimeOut( &xTimeOut, &xTicksToWait ) == pdFALSE )
 869:Source/queue.c **** 				{
 870:Source/queue.c **** 					if( prvIsQueueEmpty( pxQueue ) != pdFALSE )
 871:Source/queue.c **** 					{
 872:Source/queue.c **** 						traceBLOCKING_ON_QUEUE_RECEIVE( pxQueue );
 873:Source/queue.c **** 
 874:Source/queue.c **** 						#if ( configUSE_MUTEXES == 1 )
 875:Source/queue.c **** 						{
 876:Source/queue.c **** 							if( pxQueue->uxQueueType == queueQUEUE_IS_MUTEX )
 877:Source/queue.c **** 							{
 878:Source/queue.c **** 								portENTER_CRITICAL();
 879:Source/queue.c **** 								{
 880:Source/queue.c **** 									vTaskPriorityInherit( ( void * ) pxQueue->pxMutexHolder );
 881:Source/queue.c **** 								}
 882:Source/queue.c **** 								portEXIT_CRITICAL();
ARM GAS  C:\Users\Grzybek\AppData\Local\Temp\ccXBk3wH.s 			page 29


 883:Source/queue.c **** 							}
 884:Source/queue.c **** 						}
 885:Source/queue.c **** 						#endif
 886:Source/queue.c **** 
 887:Source/queue.c **** 						vTaskPlaceOnEventList( &( pxQueue->xTasksWaitingToReceive ), xTicksToWait );
 888:Source/queue.c **** 						portYIELD_WITHIN_API();
 889:Source/queue.c **** 					}
 890:Source/queue.c **** 				}
 891:Source/queue.c **** 				else
 892:Source/queue.c **** 				{
 893:Source/queue.c **** 					taskEXIT_CRITICAL();
 894:Source/queue.c **** 					traceQUEUE_RECEIVE_FAILED( pxQueue );
 895:Source/queue.c **** 					return errQUEUE_EMPTY;
 896:Source/queue.c **** 				}
 897:Source/queue.c **** 			}
 898:Source/queue.c **** 			taskEXIT_CRITICAL();
 899:Source/queue.c **** 		}
 900:Source/queue.c **** 	}
 901:Source/queue.c **** 
 902:Source/queue.c **** 
 903:Source/queue.c **** #endif /* configUSE_ALTERNATIVE_API */
 904:Source/queue.c **** /*-----------------------------------------------------------*/
 905:Source/queue.c **** 
 906:Source/queue.c **** signed portBASE_TYPE xQueueGenericSendFromISR( xQueueHandle pxQueue, const void * const pvItemToQue
 907:Source/queue.c **** {
 683              		.loc 1 907 0
 684              		.cfi_startproc
 685              		@ args = 0, pretend = 0, frame = 24
 686              		@ frame_needed = 1, uses_anonymous_args = 0
 687 0000 80B5     		push	{r7, lr}	@
 688              	.LCFI18:
 689              		.cfi_def_cfa_offset 8
 690              		.cfi_offset 7, -8
 691              		.cfi_offset 14, -4
 692 0002 86B0     		sub	sp, sp, #24	@,,
 693              	.LCFI19:
 694              		.cfi_def_cfa_offset 32
 695 0004 00AF     		add	r7, sp, #0	@,,
 696              	.LCFI20:
 697              		.cfi_def_cfa_register 7
 698 0006 F860     		str	r0, [r7, #12]	@ pxQueue, pxQueue
 699 0008 B960     		str	r1, [r7, #8]	@ pvItemToQueue, pvItemToQueue
 700 000a 7A60     		str	r2, [r7, #4]	@ pxHigherPriorityTaskWoken, pxHigherPriorityTaskWoken
 701 000c 3B60     		str	r3, [r7, #0]	@ xCopyPosition, xCopyPosition
 908:Source/queue.c **** signed portBASE_TYPE xReturn;
 909:Source/queue.c **** unsigned portBASE_TYPE uxSavedInterruptStatus;
 910:Source/queue.c **** 
 911:Source/queue.c **** 	configASSERT( pxQueue );
 912:Source/queue.c **** 	configASSERT( !( ( pvItemToQueue == NULL ) && ( pxQueue->uxItemSize != ( unsigned portBASE_TYPE ) 
 913:Source/queue.c **** 
 914:Source/queue.c **** 	/* Similar to xQueueGenericSend, except we don't block if there is no room
 915:Source/queue.c **** 	in the queue.  Also we don't directly wake a task that was blocked on a
 916:Source/queue.c **** 	queue read, instead we return a flag to say whether a context switch is
 917:Source/queue.c **** 	required or not (i.e. has a task with a higher priority than us been woken
 918:Source/queue.c **** 	by this	post). */
 919:Source/queue.c **** 	uxSavedInterruptStatus = portSET_INTERRUPT_MASK_FROM_ISR();
 702              		.loc 1 919 0
ARM GAS  C:\Users\Grzybek\AppData\Local\Temp\ccXBk3wH.s 			page 30


 703 000e FFF7FEFF 		bl	ulPortSetInterruptMask	@
 704 0012 3861     		str	r0, [r7, #16]	@, uxSavedInterruptStatus
 920:Source/queue.c **** 	{
 921:Source/queue.c **** 		if( pxQueue->uxMessagesWaiting < pxQueue->uxLength )
 705              		.loc 1 921 0
 706 0014 FB68     		ldr	r3, [r7, #12]	@ tmp144, pxQueue
 707 0016 9A6B     		ldr	r2, [r3, #56]	@ D.5360, pxQueue_3(D)->uxMessagesWaiting
 708 0018 FB68     		ldr	r3, [r7, #12]	@ tmp145, pxQueue
 709 001a DB6B     		ldr	r3, [r3, #60]	@ D.5361, pxQueue_3(D)->uxLength
 710 001c 9A42     		cmp	r2, r3	@ D.5360, D.5361
 711 001e 28D2     		bcs	.L36	@,
 922:Source/queue.c **** 		{
 923:Source/queue.c **** 			traceQUEUE_SEND_FROM_ISR( pxQueue );
 924:Source/queue.c **** 
 925:Source/queue.c **** 			prvCopyDataToQueue( pxQueue, pvItemToQueue, xCopyPosition );
 712              		.loc 1 925 0
 713 0020 F868     		ldr	r0, [r7, #12]	@, pxQueue
 714 0022 B968     		ldr	r1, [r7, #8]	@, pvItemToQueue
 715 0024 3A68     		ldr	r2, [r7, #0]	@, xCopyPosition
 716 0026 FFF7FEFF 		bl	prvCopyDataToQueue	@
 926:Source/queue.c **** 
 927:Source/queue.c **** 			/* If the queue is locked we do not alter the event list.  This will
 928:Source/queue.c **** 			be done when the queue is unlocked later. */
 929:Source/queue.c **** 			if( pxQueue->xTxLock == queueUNLOCKED )
 717              		.loc 1 929 0
 718 002a FB68     		ldr	r3, [r7, #12]	@ tmp146, pxQueue
 719 002c 9B6C     		ldr	r3, [r3, #72]	@ D.5364, pxQueue_3(D)->xTxLock
 720 002e B3F1FF3F 		cmp	r3, #-1	@ D.5364,
 721 0032 14D1     		bne	.L37	@,
 930:Source/queue.c **** 			{
 931:Source/queue.c **** 				if( listLIST_IS_EMPTY( &( pxQueue->xTasksWaitingToReceive ) ) == pdFALSE )
 722              		.loc 1 931 0
 723 0034 FB68     		ldr	r3, [r7, #12]	@ tmp147, pxQueue
 724 0036 5B6A     		ldr	r3, [r3, #36]	@ D.5367, pxQueue_3(D)->xTasksWaitingToReceive.uxNumberOfItems
 725 0038 002B     		cmp	r3, #0	@ D.5367,
 726 003a 16D0     		beq	.L38	@,
 932:Source/queue.c **** 				{
 933:Source/queue.c **** 					if( xTaskRemoveFromEventList( &( pxQueue->xTasksWaitingToReceive ) ) != pdFALSE )
 727              		.loc 1 933 0
 728 003c FB68     		ldr	r3, [r7, #12]	@ tmp148, pxQueue
 729 003e 03F12403 		add	r3, r3, #36	@ D.5370, tmp148,
 730 0042 1846     		mov	r0, r3	@, D.5370
 731 0044 FFF7FEFF 		bl	xTaskRemoveFromEventList	@
 732 0048 0346     		mov	r3, r0	@ D.5371,
 733 004a 002B     		cmp	r3, #0	@ D.5371,
 734 004c 0DD0     		beq	.L38	@,
 934:Source/queue.c **** 					{
 935:Source/queue.c **** 						/* The task waiting has a higher priority so record that a
 936:Source/queue.c **** 						context	switch is required. */
 937:Source/queue.c **** 						if( pxHigherPriorityTaskWoken != NULL )
 735              		.loc 1 937 0
 736 004e 7B68     		ldr	r3, [r7, #4]	@ tmp149, pxHigherPriorityTaskWoken
 737 0050 002B     		cmp	r3, #0	@ tmp149,
 738 0052 0AD0     		beq	.L38	@,
 938:Source/queue.c **** 						{
 939:Source/queue.c **** 							*pxHigherPriorityTaskWoken = pdTRUE;
 739              		.loc 1 939 0
ARM GAS  C:\Users\Grzybek\AppData\Local\Temp\ccXBk3wH.s 			page 31


 740 0054 7B68     		ldr	r3, [r7, #4]	@ tmp150, pxHigherPriorityTaskWoken
 741 0056 4FF00102 		mov	r2, #1	@ tmp151,
 742 005a 1A60     		str	r2, [r3, #0]	@ tmp151, *pxHigherPriorityTaskWoken_12(D)
 743 005c 05E0     		b	.L38	@
 744              	.L37:
 940:Source/queue.c **** 						}
 941:Source/queue.c **** 					}
 942:Source/queue.c **** 				}
 943:Source/queue.c **** 			}
 944:Source/queue.c **** 			else
 945:Source/queue.c **** 			{
 946:Source/queue.c **** 				/* Increment the lock count so the task that unlocks the queue
 947:Source/queue.c **** 				knows that data was posted while it was locked. */
 948:Source/queue.c **** 				++( pxQueue->xTxLock );
 745              		.loc 1 948 0
 746 005e FB68     		ldr	r3, [r7, #12]	@ tmp152, pxQueue
 747 0060 9B6C     		ldr	r3, [r3, #72]	@ D.5377, pxQueue_3(D)->xTxLock
 748 0062 03F10102 		add	r2, r3, #1	@ D.5378, D.5377,
 749 0066 FB68     		ldr	r3, [r7, #12]	@ tmp153, pxQueue
 750 0068 9A64     		str	r2, [r3, #72]	@ D.5378, pxQueue_3(D)->xTxLock
 751              	.L38:
 949:Source/queue.c **** 			}
 950:Source/queue.c **** 
 951:Source/queue.c **** 			xReturn = pdPASS;
 752              		.loc 1 951 0
 753 006a 4FF00103 		mov	r3, #1	@ tmp154,
 754 006e 7B61     		str	r3, [r7, #20]	@ tmp154, xReturn
 755 0070 02E0     		b	.L39	@
 756              	.L36:
 952:Source/queue.c **** 		}
 953:Source/queue.c **** 		else
 954:Source/queue.c **** 		{
 955:Source/queue.c **** 			traceQUEUE_SEND_FROM_ISR_FAILED( pxQueue );
 956:Source/queue.c **** 			xReturn = errQUEUE_FULL;
 757              		.loc 1 956 0
 758 0072 4FF00003 		mov	r3, #0	@ tmp155,
 759 0076 7B61     		str	r3, [r7, #20]	@ tmp155, xReturn
 760              	.L39:
 957:Source/queue.c **** 		}
 958:Source/queue.c **** 	}
 959:Source/queue.c **** 	portCLEAR_INTERRUPT_MASK_FROM_ISR( uxSavedInterruptStatus );
 761              		.loc 1 959 0
 762 0078 3869     		ldr	r0, [r7, #16]	@, uxSavedInterruptStatus
 763 007a FFF7FEFF 		bl	vPortClearInterruptMask	@
 960:Source/queue.c **** 
 961:Source/queue.c **** 	return xReturn;
 764              		.loc 1 961 0
 765 007e 7B69     		ldr	r3, [r7, #20]	@ D.5380, xReturn
 962:Source/queue.c **** }
 766              		.loc 1 962 0
 767 0080 1846     		mov	r0, r3	@, <retval>
 768 0082 07F11807 		add	r7, r7, #24	@,,
 769 0086 BD46     		mov	sp, r7
 770 0088 80BD     		pop	{r7, pc}
 771              		.cfi_endproc
 772              	.LFE6:
 773              		.size	xQueueGenericSendFromISR, .-xQueueGenericSendFromISR
ARM GAS  C:\Users\Grzybek\AppData\Local\Temp\ccXBk3wH.s 			page 32


 774 008a 00BF     		.section	.text.xQueueGenericReceive,"ax",%progbits
 775              		.align	2
 776              		.global	xQueueGenericReceive
 777              		.thumb
 778              		.thumb_func
 779              		.type	xQueueGenericReceive, %function
 780              	xQueueGenericReceive:
 781              	.LFB7:
 963:Source/queue.c **** /*-----------------------------------------------------------*/
 964:Source/queue.c **** 
 965:Source/queue.c **** signed portBASE_TYPE xQueueGenericReceive( xQueueHandle pxQueue, void * const pvBuffer, portTickTyp
 966:Source/queue.c **** {
 782              		.loc 1 966 0
 783              		.cfi_startproc
 784              		@ args = 0, pretend = 0, frame = 32
 785              		@ frame_needed = 1, uses_anonymous_args = 0
 786 0000 80B5     		push	{r7, lr}	@
 787              	.LCFI21:
 788              		.cfi_def_cfa_offset 8
 789              		.cfi_offset 7, -8
 790              		.cfi_offset 14, -4
 791 0002 88B0     		sub	sp, sp, #32	@,,
 792              	.LCFI22:
 793              		.cfi_def_cfa_offset 40
 794 0004 00AF     		add	r7, sp, #0	@,,
 795              	.LCFI23:
 796              		.cfi_def_cfa_register 7
 797 0006 F860     		str	r0, [r7, #12]	@ pxQueue, pxQueue
 798 0008 B960     		str	r1, [r7, #8]	@ pvBuffer, pvBuffer
 799 000a 7A60     		str	r2, [r7, #4]	@ xTicksToWait, xTicksToWait
 800 000c 3B60     		str	r3, [r7, #0]	@ xJustPeeking, xJustPeeking
 967:Source/queue.c **** signed portBASE_TYPE xEntryTimeSet = pdFALSE;
 801              		.loc 1 967 0
 802 000e 4FF00003 		mov	r3, #0	@ tmp157,
 803 0012 FB61     		str	r3, [r7, #28]	@ tmp157, xEntryTimeSet
 804 0014 00E0     		b	.L55	@
 805              	.L57:
 968:Source/queue.c **** xTimeOutType xTimeOut;
 969:Source/queue.c **** signed char *pcOriginalReadPosition;
 970:Source/queue.c **** 
 971:Source/queue.c **** 	configASSERT( pxQueue );
 972:Source/queue.c **** 	configASSERT( !( ( pvBuffer == NULL ) && ( pxQueue->uxItemSize != ( unsigned portBASE_TYPE ) 0U ) 
 973:Source/queue.c **** 
 974:Source/queue.c **** 	/* This function relaxes the coding standard somewhat to allow return
 975:Source/queue.c **** 	statements within the function itself.  This is done in the interest
 976:Source/queue.c **** 	of execution time efficiency. */
 977:Source/queue.c **** 
 978:Source/queue.c **** 	for( ;; )
 979:Source/queue.c **** 	{
 980:Source/queue.c **** 		taskENTER_CRITICAL();
 981:Source/queue.c **** 		{
 982:Source/queue.c **** 			/* Is there data in the queue now?  To be running we must be
 983:Source/queue.c **** 			the highest priority task wanting to access the queue. */
 984:Source/queue.c **** 			if( pxQueue->uxMessagesWaiting > ( unsigned portBASE_TYPE ) 0 )
 985:Source/queue.c **** 			{
 986:Source/queue.c **** 				/* Remember our read position in case we are just peeking. */
 987:Source/queue.c **** 				pcOriginalReadPosition = pxQueue->pcReadFrom;
ARM GAS  C:\Users\Grzybek\AppData\Local\Temp\ccXBk3wH.s 			page 33


 988:Source/queue.c **** 
 989:Source/queue.c **** 				prvCopyDataFromQueue( pxQueue, pvBuffer );
 990:Source/queue.c **** 
 991:Source/queue.c **** 				if( xJustPeeking == pdFALSE )
 992:Source/queue.c **** 				{
 993:Source/queue.c **** 					traceQUEUE_RECEIVE( pxQueue );
 994:Source/queue.c **** 
 995:Source/queue.c **** 					/* We are actually removing data. */
 996:Source/queue.c **** 					--( pxQueue->uxMessagesWaiting );
 997:Source/queue.c **** 
 998:Source/queue.c **** 					#if ( configUSE_MUTEXES == 1 )
 999:Source/queue.c **** 					{
1000:Source/queue.c **** 						if( pxQueue->uxQueueType == queueQUEUE_IS_MUTEX )
1001:Source/queue.c **** 						{
1002:Source/queue.c **** 							/* Record the information required to implement
1003:Source/queue.c **** 							priority inheritance should it become necessary. */
1004:Source/queue.c **** 							pxQueue->pxMutexHolder = xTaskGetCurrentTaskHandle();
1005:Source/queue.c **** 						}
1006:Source/queue.c **** 					}
1007:Source/queue.c **** 					#endif
1008:Source/queue.c **** 
1009:Source/queue.c **** 					if( listLIST_IS_EMPTY( &( pxQueue->xTasksWaitingToSend ) ) == pdFALSE )
1010:Source/queue.c **** 					{
1011:Source/queue.c **** 						if( xTaskRemoveFromEventList( &( pxQueue->xTasksWaitingToSend ) ) == pdTRUE )
1012:Source/queue.c **** 						{
1013:Source/queue.c **** 							portYIELD_WITHIN_API();
1014:Source/queue.c **** 						}
1015:Source/queue.c **** 					}
1016:Source/queue.c **** 				}
1017:Source/queue.c **** 				else
1018:Source/queue.c **** 				{
1019:Source/queue.c **** 					traceQUEUE_PEEK( pxQueue );
1020:Source/queue.c **** 
1021:Source/queue.c **** 					/* We are not removing the data, so reset our read
1022:Source/queue.c **** 					pointer. */
1023:Source/queue.c **** 					pxQueue->pcReadFrom = pcOriginalReadPosition;
1024:Source/queue.c **** 
1025:Source/queue.c **** 					/* The data is being left in the queue, so see if there are
1026:Source/queue.c **** 					any other tasks waiting for the data. */
1027:Source/queue.c **** 					if( listLIST_IS_EMPTY( &( pxQueue->xTasksWaitingToReceive ) ) == pdFALSE )
1028:Source/queue.c **** 					{
1029:Source/queue.c **** 						/* Tasks that are removed from the event list will get added to
1030:Source/queue.c **** 						the pending ready list as the scheduler is still suspended. */
1031:Source/queue.c **** 						if( xTaskRemoveFromEventList( &( pxQueue->xTasksWaitingToReceive ) ) != pdFALSE )
1032:Source/queue.c **** 						{
1033:Source/queue.c **** 							/* The task waiting has a higher priority than this task. */
1034:Source/queue.c **** 							portYIELD_WITHIN_API();
1035:Source/queue.c **** 						}
1036:Source/queue.c **** 					}
1037:Source/queue.c **** 				}
1038:Source/queue.c **** 
1039:Source/queue.c **** 				taskEXIT_CRITICAL();
1040:Source/queue.c **** 				return pdPASS;
1041:Source/queue.c **** 			}
1042:Source/queue.c **** 			else
1043:Source/queue.c **** 			{
1044:Source/queue.c **** 				if( xTicksToWait == ( portTickType ) 0 )
ARM GAS  C:\Users\Grzybek\AppData\Local\Temp\ccXBk3wH.s 			page 34


1045:Source/queue.c **** 				{
1046:Source/queue.c **** 					/* The queue was empty and no block time is specified (or
1047:Source/queue.c **** 					the block time has expired) so leave now. */
1048:Source/queue.c **** 					taskEXIT_CRITICAL();
1049:Source/queue.c **** 					traceQUEUE_RECEIVE_FAILED( pxQueue );
1050:Source/queue.c **** 					return errQUEUE_EMPTY;
1051:Source/queue.c **** 				}
1052:Source/queue.c **** 				else if( xEntryTimeSet == pdFALSE )
1053:Source/queue.c **** 				{
1054:Source/queue.c **** 					/* The queue was empty and a block time was specified so
1055:Source/queue.c **** 					configure the timeout structure. */
1056:Source/queue.c **** 					vTaskSetTimeOutState( &xTimeOut );
1057:Source/queue.c **** 					xEntryTimeSet = pdTRUE;
1058:Source/queue.c **** 				}
1059:Source/queue.c **** 			}
1060:Source/queue.c **** 		}
1061:Source/queue.c **** 		taskEXIT_CRITICAL();
1062:Source/queue.c **** 
1063:Source/queue.c **** 		/* Interrupts and other tasks can send to and receive from the queue
1064:Source/queue.c **** 		now the critical section has been exited. */
1065:Source/queue.c **** 
1066:Source/queue.c **** 		vTaskSuspendAll();
1067:Source/queue.c **** 		prvLockQueue( pxQueue );
1068:Source/queue.c **** 
1069:Source/queue.c **** 		/* Update the timeout state to see if it has expired yet. */
1070:Source/queue.c **** 		if( xTaskCheckForTimeOut( &xTimeOut, &xTicksToWait ) == pdFALSE )
1071:Source/queue.c **** 		{
1072:Source/queue.c **** 			if( prvIsQueueEmpty( pxQueue ) != pdFALSE )
1073:Source/queue.c **** 			{
1074:Source/queue.c **** 				traceBLOCKING_ON_QUEUE_RECEIVE( pxQueue );
1075:Source/queue.c **** 
1076:Source/queue.c **** 				#if ( configUSE_MUTEXES == 1 )
1077:Source/queue.c **** 				{
1078:Source/queue.c **** 					if( pxQueue->uxQueueType == queueQUEUE_IS_MUTEX )
1079:Source/queue.c **** 					{
1080:Source/queue.c **** 						portENTER_CRITICAL();
1081:Source/queue.c **** 						{
1082:Source/queue.c **** 							vTaskPriorityInherit( ( void * ) pxQueue->pxMutexHolder );
1083:Source/queue.c **** 						}
1084:Source/queue.c **** 						portEXIT_CRITICAL();
1085:Source/queue.c **** 					}
1086:Source/queue.c **** 				}
1087:Source/queue.c **** 				#endif
1088:Source/queue.c **** 
1089:Source/queue.c **** 				vTaskPlaceOnEventList( &( pxQueue->xTasksWaitingToReceive ), xTicksToWait );
1090:Source/queue.c **** 				prvUnlockQueue( pxQueue );
1091:Source/queue.c **** 				if( xTaskResumeAll() == pdFALSE )
1092:Source/queue.c **** 				{
1093:Source/queue.c **** 					portYIELD_WITHIN_API();
1094:Source/queue.c **** 				}
1095:Source/queue.c **** 			}
1096:Source/queue.c **** 			else
1097:Source/queue.c **** 			{
1098:Source/queue.c **** 				/* Try again. */
1099:Source/queue.c **** 				prvUnlockQueue( pxQueue );
1100:Source/queue.c **** 				( void ) xTaskResumeAll();
1101:Source/queue.c **** 			}
ARM GAS  C:\Users\Grzybek\AppData\Local\Temp\ccXBk3wH.s 			page 35


1102:Source/queue.c **** 		}
1103:Source/queue.c **** 		else
1104:Source/queue.c **** 		{
1105:Source/queue.c **** 			prvUnlockQueue( pxQueue );
1106:Source/queue.c **** 			( void ) xTaskResumeAll();
1107:Source/queue.c **** 			traceQUEUE_RECEIVE_FAILED( pxQueue );
1108:Source/queue.c **** 			return errQUEUE_EMPTY;
1109:Source/queue.c **** 		}
1110:Source/queue.c **** 	}
 806              		.loc 1 1110 0
 807 0016 00BF     		nop
 808              	.L55:
 980:Source/queue.c **** 		taskENTER_CRITICAL();
 809              		.loc 1 980 0
 810 0018 FFF7FEFF 		bl	vPortEnterCritical	@
 984:Source/queue.c **** 			if( pxQueue->uxMessagesWaiting > ( unsigned portBASE_TYPE ) 0 )
 811              		.loc 1 984 0
 812 001c FB68     		ldr	r3, [r7, #12]	@ tmp158, pxQueue
 813 001e 9B6B     		ldr	r3, [r3, #56]	@ D.5303, pxQueue_5(D)->uxMessagesWaiting
 814 0020 002B     		cmp	r3, #0	@ D.5303,
 815 0022 3FD0     		beq	.L42	@,
 987:Source/queue.c **** 				pcOriginalReadPosition = pxQueue->pcReadFrom;
 816              		.loc 1 987 0
 817 0024 FB68     		ldr	r3, [r7, #12]	@ tmp159, pxQueue
 818 0026 DB68     		ldr	r3, [r3, #12]	@ tmp160, pxQueue_5(D)->pcReadFrom
 819 0028 BB61     		str	r3, [r7, #24]	@ tmp160, pcOriginalReadPosition
 989:Source/queue.c **** 				prvCopyDataFromQueue( pxQueue, pvBuffer );
 820              		.loc 1 989 0
 821 002a F868     		ldr	r0, [r7, #12]	@, pxQueue
 822 002c B968     		ldr	r1, [r7, #8]	@, pvBuffer
 823 002e FFF7FEFF 		bl	prvCopyDataFromQueue	@
 991:Source/queue.c **** 				if( xJustPeeking == pdFALSE )
 824              		.loc 1 991 0
 825 0032 3B68     		ldr	r3, [r7, #0]	@ tmp161, xJustPeeking
 826 0034 002B     		cmp	r3, #0	@ tmp161,
 827 0036 1ED1     		bne	.L43	@,
 996:Source/queue.c **** 					--( pxQueue->uxMessagesWaiting );
 828              		.loc 1 996 0
 829 0038 FB68     		ldr	r3, [r7, #12]	@ tmp162, pxQueue
 830 003a 9B6B     		ldr	r3, [r3, #56]	@ D.5308, pxQueue_5(D)->uxMessagesWaiting
 831 003c 03F1FF32 		add	r2, r3, #-1	@ D.5309, D.5308,
 832 0040 FB68     		ldr	r3, [r7, #12]	@ tmp163, pxQueue
 833 0042 9A63     		str	r2, [r3, #56]	@ D.5309, pxQueue_5(D)->uxMessagesWaiting
1000:Source/queue.c **** 						if( pxQueue->uxQueueType == queueQUEUE_IS_MUTEX )
 834              		.loc 1 1000 0
 835 0044 FB68     		ldr	r3, [r7, #12]	@ tmp164, pxQueue
 836 0046 1B68     		ldr	r3, [r3, #0]	@ D.5310, pxQueue_5(D)->pcHead
 837 0048 002B     		cmp	r3, #0	@ D.5310,
 838 004a 04D1     		bne	.L44	@,
1004:Source/queue.c **** 							pxQueue->pxMutexHolder = xTaskGetCurrentTaskHandle();
 839              		.loc 1 1004 0
 840 004c FFF7FEFF 		bl	xTaskGetCurrentTaskHandle	@
 841 0050 0246     		mov	r2, r0	@ D.5313,
 842 0052 FB68     		ldr	r3, [r7, #12]	@ tmp165, pxQueue
 843 0054 5A60     		str	r2, [r3, #4]	@ D.5313, pxQueue_5(D)->pcTail
 844              	.L44:
1009:Source/queue.c **** 					if( listLIST_IS_EMPTY( &( pxQueue->xTasksWaitingToSend ) ) == pdFALSE )
ARM GAS  C:\Users\Grzybek\AppData\Local\Temp\ccXBk3wH.s 			page 36


 845              		.loc 1 1009 0
 846 0056 FB68     		ldr	r3, [r7, #12]	@ tmp166, pxQueue
 847 0058 1B69     		ldr	r3, [r3, #16]	@ D.5314, pxQueue_5(D)->xTasksWaitingToSend.uxNumberOfItems
 848 005a 002B     		cmp	r3, #0	@ D.5314,
 849 005c 1DD0     		beq	.L45	@,
1011:Source/queue.c **** 						if( xTaskRemoveFromEventList( &( pxQueue->xTasksWaitingToSend ) ) == pdTRUE )
 850              		.loc 1 1011 0
 851 005e FB68     		ldr	r3, [r7, #12]	@ tmp167, pxQueue
 852 0060 03F11003 		add	r3, r3, #16	@ D.5317, tmp167,
 853 0064 1846     		mov	r0, r3	@, D.5317
 854 0066 FFF7FEFF 		bl	xTaskRemoveFromEventList	@
 855 006a 0346     		mov	r3, r0	@ D.5318,
 856 006c 012B     		cmp	r3, #1	@ D.5318,
 857 006e 14D1     		bne	.L45	@,
1013:Source/queue.c **** 							portYIELD_WITHIN_API();
 858              		.loc 1 1013 0
 859 0070 FFF7FEFF 		bl	vPortYieldFromISR	@
 860 0074 11E0     		b	.L45	@
 861              	.L43:
1023:Source/queue.c **** 					pxQueue->pcReadFrom = pcOriginalReadPosition;
 862              		.loc 1 1023 0
 863 0076 FB68     		ldr	r3, [r7, #12]	@ tmp168, pxQueue
 864 0078 BA69     		ldr	r2, [r7, #24]	@ tmp169, pcOriginalReadPosition
 865 007a DA60     		str	r2, [r3, #12]	@ tmp169, pxQueue_5(D)->pcReadFrom
1027:Source/queue.c **** 					if( listLIST_IS_EMPTY( &( pxQueue->xTasksWaitingToReceive ) ) == pdFALSE )
 866              		.loc 1 1027 0
 867 007c FB68     		ldr	r3, [r7, #12]	@ tmp170, pxQueue
 868 007e 5B6A     		ldr	r3, [r3, #36]	@ D.5322, pxQueue_5(D)->xTasksWaitingToReceive.uxNumberOfItems
 869 0080 002B     		cmp	r3, #0	@ D.5322,
 870 0082 0AD0     		beq	.L45	@,
1031:Source/queue.c **** 						if( xTaskRemoveFromEventList( &( pxQueue->xTasksWaitingToReceive ) ) != pdFALSE )
 871              		.loc 1 1031 0
 872 0084 FB68     		ldr	r3, [r7, #12]	@ tmp171, pxQueue
 873 0086 03F12403 		add	r3, r3, #36	@ D.5325, tmp171,
 874 008a 1846     		mov	r0, r3	@, D.5325
 875 008c FFF7FEFF 		bl	xTaskRemoveFromEventList	@
 876 0090 0346     		mov	r3, r0	@ D.5326,
 877 0092 002B     		cmp	r3, #0	@ D.5326,
 878 0094 01D0     		beq	.L45	@,
1034:Source/queue.c **** 							portYIELD_WITHIN_API();
 879              		.loc 1 1034 0
 880 0096 FFF7FEFF 		bl	vPortYieldFromISR	@
 881              	.L45:
1039:Source/queue.c **** 				taskEXIT_CRITICAL();
 882              		.loc 1 1039 0
 883 009a FFF7FEFF 		bl	vPortExitCritical	@
1040:Source/queue.c **** 				return pdPASS;
 884              		.loc 1 1040 0
 885 009e 4FF00103 		mov	r3, #1	@ D.5329,
 886 00a2 6BE0     		b	.L56	@
 887              	.L42:
1044:Source/queue.c **** 				if( xTicksToWait == ( portTickType ) 0 )
 888              		.loc 1 1044 0
 889 00a4 7B68     		ldr	r3, [r7, #4]	@ xTicksToWait.0, xTicksToWait
 890 00a6 002B     		cmp	r3, #0	@ xTicksToWait.0,
 891 00a8 04D1     		bne	.L47	@,
1048:Source/queue.c **** 					taskEXIT_CRITICAL();
ARM GAS  C:\Users\Grzybek\AppData\Local\Temp\ccXBk3wH.s 			page 37


 892              		.loc 1 1048 0
 893 00aa FFF7FEFF 		bl	vPortExitCritical	@
1050:Source/queue.c **** 					return errQUEUE_EMPTY;
 894              		.loc 1 1050 0
 895 00ae 4FF00003 		mov	r3, #0	@ D.5329,
 896 00b2 63E0     		b	.L56	@
 897              	.L47:
1052:Source/queue.c **** 				else if( xEntryTimeSet == pdFALSE )
 898              		.loc 1 1052 0
 899 00b4 FB69     		ldr	r3, [r7, #28]	@ tmp172, xEntryTimeSet
 900 00b6 002B     		cmp	r3, #0	@ tmp172,
 901 00b8 07D1     		bne	.L48	@,
1056:Source/queue.c **** 					vTaskSetTimeOutState( &xTimeOut );
 902              		.loc 1 1056 0
 903 00ba 07F11003 		add	r3, r7, #16	@ tmp173,,
 904 00be 1846     		mov	r0, r3	@, tmp173
 905 00c0 FFF7FEFF 		bl	vTaskSetTimeOutState	@
1057:Source/queue.c **** 					xEntryTimeSet = pdTRUE;
 906              		.loc 1 1057 0
 907 00c4 4FF00103 		mov	r3, #1	@ tmp174,
 908 00c8 FB61     		str	r3, [r7, #28]	@ tmp174, xEntryTimeSet
 909              	.L48:
1061:Source/queue.c **** 		taskEXIT_CRITICAL();
 910              		.loc 1 1061 0
 911 00ca FFF7FEFF 		bl	vPortExitCritical	@
1066:Source/queue.c **** 		vTaskSuspendAll();
 912              		.loc 1 1066 0
 913 00ce FFF7FEFF 		bl	vTaskSuspendAll	@
1067:Source/queue.c **** 		prvLockQueue( pxQueue );
 914              		.loc 1 1067 0
 915 00d2 FFF7FEFF 		bl	vPortEnterCritical	@
 916 00d6 FB68     		ldr	r3, [r7, #12]	@ tmp175, pxQueue
 917 00d8 5B6C     		ldr	r3, [r3, #68]	@ D.5335, pxQueue_5(D)->xRxLock
 918 00da B3F1FF3F 		cmp	r3, #-1	@ D.5335,
 919 00de 03D1     		bne	.L49	@,
1067:Source/queue.c **** 		prvLockQueue( pxQueue );
 920              		.loc 1 1067 0 is_stmt 0 discriminator 1
 921 00e0 FB68     		ldr	r3, [r7, #12]	@ tmp176, pxQueue
 922 00e2 4FF00002 		mov	r2, #0	@ tmp177,
 923 00e6 5A64     		str	r2, [r3, #68]	@ tmp177, pxQueue_5(D)->xRxLock
 924              	.L49:
1067:Source/queue.c **** 		prvLockQueue( pxQueue );
 925              		.loc 1 1067 0 discriminator 2
 926 00e8 FB68     		ldr	r3, [r7, #12]	@ tmp178, pxQueue
 927 00ea 9B6C     		ldr	r3, [r3, #72]	@ D.5338, pxQueue_5(D)->xTxLock
 928 00ec B3F1FF3F 		cmp	r3, #-1	@ D.5338,
 929 00f0 03D1     		bne	.L50	@,
1067:Source/queue.c **** 		prvLockQueue( pxQueue );
 930              		.loc 1 1067 0 discriminator 3
 931 00f2 FB68     		ldr	r3, [r7, #12]	@ tmp179, pxQueue
 932 00f4 4FF00002 		mov	r2, #0	@ tmp180,
 933 00f8 9A64     		str	r2, [r3, #72]	@ tmp180, pxQueue_5(D)->xTxLock
 934              	.L50:
1067:Source/queue.c **** 		prvLockQueue( pxQueue );
 935              		.loc 1 1067 0 discriminator 4
 936 00fa FFF7FEFF 		bl	vPortExitCritical	@
1070:Source/queue.c **** 		if( xTaskCheckForTimeOut( &xTimeOut, &xTicksToWait ) == pdFALSE )
ARM GAS  C:\Users\Grzybek\AppData\Local\Temp\ccXBk3wH.s 			page 38


 937              		.loc 1 1070 0 is_stmt 1 discriminator 4
 938 00fe 07F11002 		add	r2, r7, #16	@ tmp181,,
 939 0102 07F10403 		add	r3, r7, #4	@ tmp182,,
 940 0106 1046     		mov	r0, r2	@, tmp181
 941 0108 1946     		mov	r1, r3	@, tmp182
 942 010a FFF7FEFF 		bl	xTaskCheckForTimeOut	@
 943 010e 0346     		mov	r3, r0	@ D.5341,
 944 0110 002B     		cmp	r3, #0	@ D.5341,
 945 0112 2CD1     		bne	.L51	@,
1072:Source/queue.c **** 			if( prvIsQueueEmpty( pxQueue ) != pdFALSE )
 946              		.loc 1 1072 0
 947 0114 F868     		ldr	r0, [r7, #12]	@, pxQueue
 948 0116 FFF7FEFF 		bl	prvIsQueueEmpty	@
 949 011a 0346     		mov	r3, r0	@ D.5344,
 950 011c 002B     		cmp	r3, #0	@ D.5344,
 951 011e 20D0     		beq	.L52	@,
1078:Source/queue.c **** 					if( pxQueue->uxQueueType == queueQUEUE_IS_MUTEX )
 952              		.loc 1 1078 0
 953 0120 FB68     		ldr	r3, [r7, #12]	@ tmp183, pxQueue
 954 0122 1B68     		ldr	r3, [r3, #0]	@ D.5347, pxQueue_5(D)->pcHead
 955 0124 002B     		cmp	r3, #0	@ D.5347,
 956 0126 08D1     		bne	.L53	@,
1080:Source/queue.c **** 						portENTER_CRITICAL();
 957              		.loc 1 1080 0
 958 0128 FFF7FEFF 		bl	vPortEnterCritical	@
1082:Source/queue.c **** 							vTaskPriorityInherit( ( void * ) pxQueue->pxMutexHolder );
 959              		.loc 1 1082 0
 960 012c FB68     		ldr	r3, [r7, #12]	@ tmp184, pxQueue
 961 012e 5B68     		ldr	r3, [r3, #4]	@ D.5350, pxQueue_5(D)->pcTail
 962 0130 1846     		mov	r0, r3	@, D.5350
 963 0132 FFF7FEFF 		bl	vTaskPriorityInherit	@
1084:Source/queue.c **** 						portEXIT_CRITICAL();
 964              		.loc 1 1084 0
 965 0136 FFF7FEFF 		bl	vPortExitCritical	@
 966              	.L53:
1089:Source/queue.c **** 				vTaskPlaceOnEventList( &( pxQueue->xTasksWaitingToReceive ), xTicksToWait );
 967              		.loc 1 1089 0
 968 013a FB68     		ldr	r3, [r7, #12]	@ tmp185, pxQueue
 969 013c 03F12402 		add	r2, r3, #36	@ D.5351, tmp185,
 970 0140 7B68     		ldr	r3, [r7, #4]	@ xTicksToWait.1, xTicksToWait
 971 0142 1046     		mov	r0, r2	@, D.5351
 972 0144 1946     		mov	r1, r3	@, xTicksToWait.1
 973 0146 FFF7FEFF 		bl	vTaskPlaceOnEventList	@
1090:Source/queue.c **** 				prvUnlockQueue( pxQueue );
 974              		.loc 1 1090 0
 975 014a F868     		ldr	r0, [r7, #12]	@, pxQueue
 976 014c FFF7FEFF 		bl	prvUnlockQueue	@
1091:Source/queue.c **** 				if( xTaskResumeAll() == pdFALSE )
 977              		.loc 1 1091 0
 978 0150 FFF7FEFF 		bl	xTaskResumeAll	@
 979 0154 0346     		mov	r3, r0	@ D.5353,
 980 0156 002B     		cmp	r3, #0	@ D.5353,
 981 0158 7FF45DAF 		bne	.L57	@,
1093:Source/queue.c **** 					portYIELD_WITHIN_API();
 982              		.loc 1 1093 0
 983 015c FFF7FEFF 		bl	vPortYieldFromISR	@
 984              		.loc 1 1110 0
ARM GAS  C:\Users\Grzybek\AppData\Local\Temp\ccXBk3wH.s 			page 39


 985 0160 59E7     		b	.L57	@
 986              	.L52:
1099:Source/queue.c **** 				prvUnlockQueue( pxQueue );
 987              		.loc 1 1099 0
 988 0162 F868     		ldr	r0, [r7, #12]	@, pxQueue
 989 0164 FFF7FEFF 		bl	prvUnlockQueue	@
1100:Source/queue.c **** 				( void ) xTaskResumeAll();
 990              		.loc 1 1100 0
 991 0168 FFF7FEFF 		bl	xTaskResumeAll	@
 992              		.loc 1 1110 0
 993 016c 53E7     		b	.L57	@
 994              	.L51:
1105:Source/queue.c **** 			prvUnlockQueue( pxQueue );
 995              		.loc 1 1105 0
 996 016e F868     		ldr	r0, [r7, #12]	@, pxQueue
 997 0170 FFF7FEFF 		bl	prvUnlockQueue	@
1106:Source/queue.c **** 			( void ) xTaskResumeAll();
 998              		.loc 1 1106 0
 999 0174 FFF7FEFF 		bl	xTaskResumeAll	@
1108:Source/queue.c **** 			return errQUEUE_EMPTY;
 1000              		.loc 1 1108 0
 1001 0178 4FF00003 		mov	r3, #0	@ D.5329,
 1002              	.L56:
1111:Source/queue.c **** }
 1003              		.loc 1 1111 0
 1004 017c 1846     		mov	r0, r3	@, <retval>
 1005 017e 07F12007 		add	r7, r7, #32	@,,
 1006 0182 BD46     		mov	sp, r7
 1007 0184 80BD     		pop	{r7, pc}
 1008              		.cfi_endproc
 1009              	.LFE7:
 1010              		.size	xQueueGenericReceive, .-xQueueGenericReceive
 1011 0186 00BF     		.section	.text.xQueueReceiveFromISR,"ax",%progbits
 1012              		.align	2
 1013              		.global	xQueueReceiveFromISR
 1014              		.thumb
 1015              		.thumb_func
 1016              		.type	xQueueReceiveFromISR, %function
 1017              	xQueueReceiveFromISR:
 1018              	.LFB8:
1112:Source/queue.c **** /*-----------------------------------------------------------*/
1113:Source/queue.c **** 
1114:Source/queue.c **** signed portBASE_TYPE xQueueReceiveFromISR( xQueueHandle pxQueue, void * const pvBuffer, signed port
1115:Source/queue.c **** {
 1019              		.loc 1 1115 0
 1020              		.cfi_startproc
 1021              		@ args = 0, pretend = 0, frame = 24
 1022              		@ frame_needed = 1, uses_anonymous_args = 0
 1023 0000 80B5     		push	{r7, lr}	@
 1024              	.LCFI24:
 1025              		.cfi_def_cfa_offset 8
 1026              		.cfi_offset 7, -8
 1027              		.cfi_offset 14, -4
 1028 0002 86B0     		sub	sp, sp, #24	@,,
 1029              	.LCFI25:
 1030              		.cfi_def_cfa_offset 32
 1031 0004 00AF     		add	r7, sp, #0	@,,
ARM GAS  C:\Users\Grzybek\AppData\Local\Temp\ccXBk3wH.s 			page 40


 1032              	.LCFI26:
 1033              		.cfi_def_cfa_register 7
 1034 0006 F860     		str	r0, [r7, #12]	@ pxQueue, pxQueue
 1035 0008 B960     		str	r1, [r7, #8]	@ pvBuffer, pvBuffer
 1036 000a 7A60     		str	r2, [r7, #4]	@ pxHigherPriorityTaskWoken, pxHigherPriorityTaskWoken
1116:Source/queue.c **** signed portBASE_TYPE xReturn;
1117:Source/queue.c **** unsigned portBASE_TYPE uxSavedInterruptStatus;
1118:Source/queue.c **** 
1119:Source/queue.c **** 	configASSERT( pxQueue );
1120:Source/queue.c **** 	configASSERT( !( ( pvBuffer == NULL ) && ( pxQueue->uxItemSize != ( unsigned portBASE_TYPE ) 0U ) 
1121:Source/queue.c **** 
1122:Source/queue.c **** 	uxSavedInterruptStatus = portSET_INTERRUPT_MASK_FROM_ISR();
 1037              		.loc 1 1122 0
 1038 000c FFF7FEFF 		bl	ulPortSetInterruptMask	@
 1039 0010 3861     		str	r0, [r7, #16]	@, uxSavedInterruptStatus
1123:Source/queue.c **** 	{
1124:Source/queue.c **** 		/* We cannot block from an ISR, so check there is data available. */
1125:Source/queue.c **** 		if( pxQueue->uxMessagesWaiting > ( unsigned portBASE_TYPE ) 0 )
 1040              		.loc 1 1125 0
 1041 0012 FB68     		ldr	r3, [r7, #12]	@ tmp145, pxQueue
 1042 0014 9B6B     		ldr	r3, [r3, #56]	@ D.5280, pxQueue_3(D)->uxMessagesWaiting
 1043 0016 002B     		cmp	r3, #0	@ D.5280,
 1044 0018 2DD0     		beq	.L59	@,
1126:Source/queue.c **** 		{
1127:Source/queue.c **** 			traceQUEUE_RECEIVE_FROM_ISR( pxQueue );
1128:Source/queue.c **** 
1129:Source/queue.c **** 			prvCopyDataFromQueue( pxQueue, pvBuffer );
 1045              		.loc 1 1129 0
 1046 001a F868     		ldr	r0, [r7, #12]	@, pxQueue
 1047 001c B968     		ldr	r1, [r7, #8]	@, pvBuffer
 1048 001e FFF7FEFF 		bl	prvCopyDataFromQueue	@
1130:Source/queue.c **** 			--( pxQueue->uxMessagesWaiting );
 1049              		.loc 1 1130 0
 1050 0022 FB68     		ldr	r3, [r7, #12]	@ tmp146, pxQueue
 1051 0024 9B6B     		ldr	r3, [r3, #56]	@ D.5283, pxQueue_3(D)->uxMessagesWaiting
 1052 0026 03F1FF32 		add	r2, r3, #-1	@ D.5284, D.5283,
 1053 002a FB68     		ldr	r3, [r7, #12]	@ tmp147, pxQueue
 1054 002c 9A63     		str	r2, [r3, #56]	@ D.5284, pxQueue_3(D)->uxMessagesWaiting
1131:Source/queue.c **** 
1132:Source/queue.c **** 			/* If the queue is locked we will not modify the event list.  Instead
1133:Source/queue.c **** 			we update the lock count so the task that unlocks the queue will know
1134:Source/queue.c **** 			that an ISR has removed data while the queue was locked. */
1135:Source/queue.c **** 			if( pxQueue->xRxLock == queueUNLOCKED )
 1055              		.loc 1 1135 0
 1056 002e FB68     		ldr	r3, [r7, #12]	@ tmp148, pxQueue
 1057 0030 5B6C     		ldr	r3, [r3, #68]	@ D.5285, pxQueue_3(D)->xRxLock
 1058 0032 B3F1FF3F 		cmp	r3, #-1	@ D.5285,
 1059 0036 14D1     		bne	.L60	@,
1136:Source/queue.c **** 			{
1137:Source/queue.c **** 				if( listLIST_IS_EMPTY( &( pxQueue->xTasksWaitingToSend ) ) == pdFALSE )
 1060              		.loc 1 1137 0
 1061 0038 FB68     		ldr	r3, [r7, #12]	@ tmp149, pxQueue
 1062 003a 1B69     		ldr	r3, [r3, #16]	@ D.5288, pxQueue_3(D)->xTasksWaitingToSend.uxNumberOfItems
 1063 003c 002B     		cmp	r3, #0	@ D.5288,
 1064 003e 16D0     		beq	.L61	@,
1138:Source/queue.c **** 				{
1139:Source/queue.c **** 					if( xTaskRemoveFromEventList( &( pxQueue->xTasksWaitingToSend ) ) != pdFALSE )
ARM GAS  C:\Users\Grzybek\AppData\Local\Temp\ccXBk3wH.s 			page 41


 1065              		.loc 1 1139 0
 1066 0040 FB68     		ldr	r3, [r7, #12]	@ tmp150, pxQueue
 1067 0042 03F11003 		add	r3, r3, #16	@ D.5291, tmp150,
 1068 0046 1846     		mov	r0, r3	@, D.5291
 1069 0048 FFF7FEFF 		bl	xTaskRemoveFromEventList	@
 1070 004c 0346     		mov	r3, r0	@ D.5292,
 1071 004e 002B     		cmp	r3, #0	@ D.5292,
 1072 0050 0DD0     		beq	.L61	@,
1140:Source/queue.c **** 					{
1141:Source/queue.c **** 						/* The task waiting has a higher priority than us so
1142:Source/queue.c **** 						force a context switch. */
1143:Source/queue.c **** 						if( pxHigherPriorityTaskWoken != NULL )
 1073              		.loc 1 1143 0
 1074 0052 7B68     		ldr	r3, [r7, #4]	@ tmp151, pxHigherPriorityTaskWoken
 1075 0054 002B     		cmp	r3, #0	@ tmp151,
 1076 0056 0AD0     		beq	.L61	@,
1144:Source/queue.c **** 						{
1145:Source/queue.c **** 							*pxHigherPriorityTaskWoken = pdTRUE;
 1077              		.loc 1 1145 0
 1078 0058 7B68     		ldr	r3, [r7, #4]	@ tmp152, pxHigherPriorityTaskWoken
 1079 005a 4FF00102 		mov	r2, #1	@ tmp153,
 1080 005e 1A60     		str	r2, [r3, #0]	@ tmp153, *pxHigherPriorityTaskWoken_12(D)
 1081 0060 05E0     		b	.L61	@
 1082              	.L60:
1146:Source/queue.c **** 						}
1147:Source/queue.c **** 					}
1148:Source/queue.c **** 				}
1149:Source/queue.c **** 			}
1150:Source/queue.c **** 			else
1151:Source/queue.c **** 			{
1152:Source/queue.c **** 				/* Increment the lock count so the task that unlocks the queue
1153:Source/queue.c **** 				knows that data was removed while it was locked. */
1154:Source/queue.c **** 				++( pxQueue->xRxLock );
 1083              		.loc 1 1154 0
 1084 0062 FB68     		ldr	r3, [r7, #12]	@ tmp154, pxQueue
 1085 0064 5B6C     		ldr	r3, [r3, #68]	@ D.5298, pxQueue_3(D)->xRxLock
 1086 0066 03F10102 		add	r2, r3, #1	@ D.5299, D.5298,
 1087 006a FB68     		ldr	r3, [r7, #12]	@ tmp155, pxQueue
 1088 006c 5A64     		str	r2, [r3, #68]	@ D.5299, pxQueue_3(D)->xRxLock
 1089              	.L61:
1155:Source/queue.c **** 			}
1156:Source/queue.c **** 
1157:Source/queue.c **** 			xReturn = pdPASS;
 1090              		.loc 1 1157 0
 1091 006e 4FF00103 		mov	r3, #1	@ tmp156,
 1092 0072 7B61     		str	r3, [r7, #20]	@ tmp156, xReturn
 1093 0074 02E0     		b	.L62	@
 1094              	.L59:
1158:Source/queue.c **** 		}
1159:Source/queue.c **** 		else
1160:Source/queue.c **** 		{
1161:Source/queue.c **** 			xReturn = pdFAIL;
 1095              		.loc 1 1161 0
 1096 0076 4FF00003 		mov	r3, #0	@ tmp157,
 1097 007a 7B61     		str	r3, [r7, #20]	@ tmp157, xReturn
 1098              	.L62:
1162:Source/queue.c **** 			traceQUEUE_RECEIVE_FROM_ISR_FAILED( pxQueue );
ARM GAS  C:\Users\Grzybek\AppData\Local\Temp\ccXBk3wH.s 			page 42


1163:Source/queue.c **** 		}
1164:Source/queue.c **** 	}
1165:Source/queue.c **** 	portCLEAR_INTERRUPT_MASK_FROM_ISR( uxSavedInterruptStatus );
 1099              		.loc 1 1165 0
 1100 007c 3869     		ldr	r0, [r7, #16]	@, uxSavedInterruptStatus
 1101 007e FFF7FEFF 		bl	vPortClearInterruptMask	@
1166:Source/queue.c **** 
1167:Source/queue.c **** 	return xReturn;
 1102              		.loc 1 1167 0
 1103 0082 7B69     		ldr	r3, [r7, #20]	@ D.5301, xReturn
1168:Source/queue.c **** }
 1104              		.loc 1 1168 0
 1105 0084 1846     		mov	r0, r3	@, <retval>
 1106 0086 07F11807 		add	r7, r7, #24	@,,
 1107 008a BD46     		mov	sp, r7
 1108 008c 80BD     		pop	{r7, pc}
 1109              		.cfi_endproc
 1110              	.LFE8:
 1111              		.size	xQueueReceiveFromISR, .-xQueueReceiveFromISR
 1112 008e 00BF     		.section	.text.uxQueueMessagesWaiting,"ax",%progbits
 1113              		.align	2
 1114              		.global	uxQueueMessagesWaiting
 1115              		.thumb
 1116              		.thumb_func
 1117              		.type	uxQueueMessagesWaiting, %function
 1118              	uxQueueMessagesWaiting:
 1119              	.LFB9:
1169:Source/queue.c **** /*-----------------------------------------------------------*/
1170:Source/queue.c **** 
1171:Source/queue.c **** unsigned portBASE_TYPE uxQueueMessagesWaiting( const xQueueHandle pxQueue )
1172:Source/queue.c **** {
 1120              		.loc 1 1172 0
 1121              		.cfi_startproc
 1122              		@ args = 0, pretend = 0, frame = 16
 1123              		@ frame_needed = 1, uses_anonymous_args = 0
 1124 0000 80B5     		push	{r7, lr}	@
 1125              	.LCFI27:
 1126              		.cfi_def_cfa_offset 8
 1127              		.cfi_offset 7, -8
 1128              		.cfi_offset 14, -4
 1129 0002 84B0     		sub	sp, sp, #16	@,,
 1130              	.LCFI28:
 1131              		.cfi_def_cfa_offset 24
 1132 0004 00AF     		add	r7, sp, #0	@,,
 1133              	.LCFI29:
 1134              		.cfi_def_cfa_register 7
 1135 0006 7860     		str	r0, [r7, #4]	@ pxQueue, pxQueue
1173:Source/queue.c **** unsigned portBASE_TYPE uxReturn;
1174:Source/queue.c **** 
1175:Source/queue.c **** 	configASSERT( pxQueue );
1176:Source/queue.c **** 
1177:Source/queue.c **** 	taskENTER_CRITICAL();
 1136              		.loc 1 1177 0
 1137 0008 FFF7FEFF 		bl	vPortEnterCritical	@
1178:Source/queue.c **** 		uxReturn = pxQueue->uxMessagesWaiting;
 1138              		.loc 1 1178 0
 1139 000c 7B68     		ldr	r3, [r7, #4]	@ tmp136, pxQueue
ARM GAS  C:\Users\Grzybek\AppData\Local\Temp\ccXBk3wH.s 			page 43


 1140 000e 9B6B     		ldr	r3, [r3, #56]	@ tmp137, pxQueue_1(D)->uxMessagesWaiting
 1141 0010 FB60     		str	r3, [r7, #12]	@ tmp137, uxReturn
1179:Source/queue.c **** 	taskEXIT_CRITICAL();
 1142              		.loc 1 1179 0
 1143 0012 FFF7FEFF 		bl	vPortExitCritical	@
1180:Source/queue.c **** 
1181:Source/queue.c **** 	return uxReturn;
 1144              		.loc 1 1181 0
 1145 0016 FB68     		ldr	r3, [r7, #12]	@ D.5278, uxReturn
1182:Source/queue.c **** }
 1146              		.loc 1 1182 0
 1147 0018 1846     		mov	r0, r3	@, <retval>
 1148 001a 07F11007 		add	r7, r7, #16	@,,
 1149 001e BD46     		mov	sp, r7
 1150 0020 80BD     		pop	{r7, pc}
 1151              		.cfi_endproc
 1152              	.LFE9:
 1153              		.size	uxQueueMessagesWaiting, .-uxQueueMessagesWaiting
 1154 0022 00BF     		.section	.text.uxQueueMessagesWaitingFromISR,"ax",%progbits
 1155              		.align	2
 1156              		.global	uxQueueMessagesWaitingFromISR
 1157              		.thumb
 1158              		.thumb_func
 1159              		.type	uxQueueMessagesWaitingFromISR, %function
 1160              	uxQueueMessagesWaitingFromISR:
 1161              	.LFB10:
1183:Source/queue.c **** /*-----------------------------------------------------------*/
1184:Source/queue.c **** 
1185:Source/queue.c **** unsigned portBASE_TYPE uxQueueMessagesWaitingFromISR( const xQueueHandle pxQueue )
1186:Source/queue.c **** {
 1162              		.loc 1 1186 0
 1163              		.cfi_startproc
 1164              		@ args = 0, pretend = 0, frame = 16
 1165              		@ frame_needed = 1, uses_anonymous_args = 0
 1166              		@ link register save eliminated.
 1167 0000 80B4     		push	{r7}	@
 1168              	.LCFI30:
 1169              		.cfi_def_cfa_offset 4
 1170              		.cfi_offset 7, -4
 1171 0002 85B0     		sub	sp, sp, #20	@,,
 1172              	.LCFI31:
 1173              		.cfi_def_cfa_offset 24
 1174 0004 00AF     		add	r7, sp, #0	@,,
 1175              	.LCFI32:
 1176              		.cfi_def_cfa_register 7
 1177 0006 7860     		str	r0, [r7, #4]	@ pxQueue, pxQueue
1187:Source/queue.c **** unsigned portBASE_TYPE uxReturn;
1188:Source/queue.c **** 
1189:Source/queue.c **** 	configASSERT( pxQueue );
1190:Source/queue.c **** 
1191:Source/queue.c **** 	uxReturn = pxQueue->uxMessagesWaiting;
 1178              		.loc 1 1191 0
 1179 0008 7B68     		ldr	r3, [r7, #4]	@ tmp136, pxQueue
 1180 000a 9B6B     		ldr	r3, [r3, #56]	@ tmp137, pxQueue_1(D)->uxMessagesWaiting
 1181 000c FB60     		str	r3, [r7, #12]	@ tmp137, uxReturn
1192:Source/queue.c **** 
1193:Source/queue.c **** 	return uxReturn;
ARM GAS  C:\Users\Grzybek\AppData\Local\Temp\ccXBk3wH.s 			page 44


 1182              		.loc 1 1193 0
 1183 000e FB68     		ldr	r3, [r7, #12]	@ D.5276, uxReturn
1194:Source/queue.c **** }
 1184              		.loc 1 1194 0
 1185 0010 1846     		mov	r0, r3	@, <retval>
 1186 0012 07F11407 		add	r7, r7, #20	@,,
 1187 0016 BD46     		mov	sp, r7
 1188 0018 80BC     		pop	{r7}
 1189 001a 7047     		bx	lr
 1190              		.cfi_endproc
 1191              	.LFE10:
 1192              		.size	uxQueueMessagesWaitingFromISR, .-uxQueueMessagesWaitingFromISR
 1193              		.section	.text.vQueueDelete,"ax",%progbits
 1194              		.align	2
 1195              		.global	vQueueDelete
 1196              		.thumb
 1197              		.thumb_func
 1198              		.type	vQueueDelete, %function
 1199              	vQueueDelete:
 1200              	.LFB11:
1195:Source/queue.c **** /*-----------------------------------------------------------*/
1196:Source/queue.c **** 
1197:Source/queue.c **** void vQueueDelete( xQueueHandle pxQueue )
1198:Source/queue.c **** {
 1201              		.loc 1 1198 0
 1202              		.cfi_startproc
 1203              		@ args = 0, pretend = 0, frame = 8
 1204              		@ frame_needed = 1, uses_anonymous_args = 0
 1205 0000 80B5     		push	{r7, lr}	@
 1206              	.LCFI33:
 1207              		.cfi_def_cfa_offset 8
 1208              		.cfi_offset 7, -8
 1209              		.cfi_offset 14, -4
 1210 0002 82B0     		sub	sp, sp, #8	@,,
 1211              	.LCFI34:
 1212              		.cfi_def_cfa_offset 16
 1213 0004 00AF     		add	r7, sp, #0	@,,
 1214              	.LCFI35:
 1215              		.cfi_def_cfa_register 7
 1216 0006 7860     		str	r0, [r7, #4]	@ pxQueue, pxQueue
1199:Source/queue.c **** 	configASSERT( pxQueue );
1200:Source/queue.c **** 
1201:Source/queue.c **** 	traceQUEUE_DELETE( pxQueue );
1202:Source/queue.c **** 	vQueueUnregisterQueue( pxQueue );
1203:Source/queue.c **** 	vPortFree( pxQueue->pcHead );
 1217              		.loc 1 1203 0
 1218 0008 7B68     		ldr	r3, [r7, #4]	@ tmp135, pxQueue
 1219 000a 1B68     		ldr	r3, [r3, #0]	@ D.5275, pxQueue_1(D)->pcHead
 1220 000c 1846     		mov	r0, r3	@, D.5275
 1221 000e FFF7FEFF 		bl	vPortFree	@
1204:Source/queue.c **** 	vPortFree( pxQueue );
 1222              		.loc 1 1204 0
 1223 0012 7868     		ldr	r0, [r7, #4]	@, pxQueue
 1224 0014 FFF7FEFF 		bl	vPortFree	@
1205:Source/queue.c **** }
 1225              		.loc 1 1205 0
 1226 0018 07F10807 		add	r7, r7, #8	@,,
ARM GAS  C:\Users\Grzybek\AppData\Local\Temp\ccXBk3wH.s 			page 45


 1227 001c BD46     		mov	sp, r7
 1228 001e 80BD     		pop	{r7, pc}
 1229              		.cfi_endproc
 1230              	.LFE11:
 1231              		.size	vQueueDelete, .-vQueueDelete
 1232              		.section	.text.prvCopyDataToQueue,"ax",%progbits
 1233              		.align	2
 1234              		.thumb
 1235              		.thumb_func
 1236              		.type	prvCopyDataToQueue, %function
 1237              	prvCopyDataToQueue:
 1238              	.LFB12:
1206:Source/queue.c **** /*-----------------------------------------------------------*/
1207:Source/queue.c **** 
1208:Source/queue.c **** #if ( configUSE_TRACE_FACILITY == 1 )
1209:Source/queue.c **** 
1210:Source/queue.c **** 	unsigned char ucQueueGetQueueNumber( xQueueHandle pxQueue )
1211:Source/queue.c **** 	{
1212:Source/queue.c **** 		return pxQueue->ucQueueNumber;
1213:Source/queue.c **** 	}
1214:Source/queue.c **** 
1215:Source/queue.c **** #endif
1216:Source/queue.c **** /*-----------------------------------------------------------*/
1217:Source/queue.c **** 
1218:Source/queue.c **** #if ( configUSE_TRACE_FACILITY == 1 )
1219:Source/queue.c **** 
1220:Source/queue.c **** 	void vQueueSetQueueNumber( xQueueHandle pxQueue, unsigned char ucQueueNumber )
1221:Source/queue.c **** 	{
1222:Source/queue.c **** 		pxQueue->ucQueueNumber = ucQueueNumber;
1223:Source/queue.c **** 	}
1224:Source/queue.c **** 
1225:Source/queue.c **** #endif
1226:Source/queue.c **** /*-----------------------------------------------------------*/
1227:Source/queue.c **** 
1228:Source/queue.c **** #if ( configUSE_TRACE_FACILITY == 1 )
1229:Source/queue.c **** 
1230:Source/queue.c **** 	unsigned char ucQueueGetQueueType( xQueueHandle pxQueue )
1231:Source/queue.c **** 	{
1232:Source/queue.c **** 		return pxQueue->ucQueueType;
1233:Source/queue.c **** 	}
1234:Source/queue.c **** 
1235:Source/queue.c **** #endif
1236:Source/queue.c **** /*-----------------------------------------------------------*/
1237:Source/queue.c **** 
1238:Source/queue.c **** static void prvCopyDataToQueue( xQUEUE *pxQueue, const void *pvItemToQueue, portBASE_TYPE xPosition
1239:Source/queue.c **** {
 1239              		.loc 1 1239 0
 1240              		.cfi_startproc
 1241              		@ args = 0, pretend = 0, frame = 16
 1242              		@ frame_needed = 1, uses_anonymous_args = 0
 1243 0000 80B5     		push	{r7, lr}	@
 1244              	.LCFI36:
 1245              		.cfi_def_cfa_offset 8
 1246              		.cfi_offset 7, -8
 1247              		.cfi_offset 14, -4
 1248 0002 84B0     		sub	sp, sp, #16	@,,
 1249              	.LCFI37:
ARM GAS  C:\Users\Grzybek\AppData\Local\Temp\ccXBk3wH.s 			page 46


 1250              		.cfi_def_cfa_offset 24
 1251 0004 00AF     		add	r7, sp, #0	@,,
 1252              	.LCFI38:
 1253              		.cfi_def_cfa_register 7
 1254 0006 F860     		str	r0, [r7, #12]	@ pxQueue, pxQueue
 1255 0008 B960     		str	r1, [r7, #8]	@ pvItemToQueue, pvItemToQueue
 1256 000a 7A60     		str	r2, [r7, #4]	@ xPosition, xPosition
1240:Source/queue.c **** 	if( pxQueue->uxItemSize == ( unsigned portBASE_TYPE ) 0 )
 1257              		.loc 1 1240 0
 1258 000c FB68     		ldr	r3, [r7, #12]	@ tmp159, pxQueue
 1259 000e 1B6C     		ldr	r3, [r3, #64]	@ D.5238, pxQueue_1(D)->uxItemSize
 1260 0010 002B     		cmp	r3, #0	@ D.5238,
 1261 0012 0DD1     		bne	.L70	@,
1241:Source/queue.c **** 	{
1242:Source/queue.c **** 		#if ( configUSE_MUTEXES == 1 )
1243:Source/queue.c **** 		{
1244:Source/queue.c **** 			if( pxQueue->uxQueueType == queueQUEUE_IS_MUTEX )
 1262              		.loc 1 1244 0
 1263 0014 FB68     		ldr	r3, [r7, #12]	@ tmp160, pxQueue
 1264 0016 1B68     		ldr	r3, [r3, #0]	@ D.5241, pxQueue_1(D)->pcHead
 1265 0018 002B     		cmp	r3, #0	@ D.5241,
 1266 001a 48D1     		bne	.L71	@,
1245:Source/queue.c **** 			{
1246:Source/queue.c **** 				/* The mutex is no longer being held. */
1247:Source/queue.c **** 				vTaskPriorityDisinherit( ( void * ) pxQueue->pxMutexHolder );
 1267              		.loc 1 1247 0
 1268 001c FB68     		ldr	r3, [r7, #12]	@ tmp161, pxQueue
 1269 001e 5B68     		ldr	r3, [r3, #4]	@ D.5244, pxQueue_1(D)->pcTail
 1270 0020 1846     		mov	r0, r3	@, D.5244
 1271 0022 FFF7FEFF 		bl	vTaskPriorityDisinherit	@
1248:Source/queue.c **** 				pxQueue->pxMutexHolder = NULL;
 1272              		.loc 1 1248 0
 1273 0026 FB68     		ldr	r3, [r7, #12]	@ tmp162, pxQueue
 1274 0028 4FF00002 		mov	r2, #0	@ tmp163,
 1275 002c 5A60     		str	r2, [r3, #4]	@ tmp163, pxQueue_1(D)->pcTail
 1276 002e 3EE0     		b	.L71	@
 1277              	.L70:
1249:Source/queue.c **** 			}
1250:Source/queue.c **** 		}
1251:Source/queue.c **** 		#endif
1252:Source/queue.c **** 	}
1253:Source/queue.c **** 	else if( xPosition == queueSEND_TO_BACK )
 1278              		.loc 1 1253 0
 1279 0030 7B68     		ldr	r3, [r7, #4]	@ tmp164, xPosition
 1280 0032 002B     		cmp	r3, #0	@ tmp164,
 1281 0034 1AD1     		bne	.L72	@,
1254:Source/queue.c **** 	{
1255:Source/queue.c **** 		memcpy( ( void * ) pxQueue->pcWriteTo, pvItemToQueue, ( unsigned ) pxQueue->uxItemSize );
 1282              		.loc 1 1255 0
 1283 0036 FB68     		ldr	r3, [r7, #12]	@ tmp165, pxQueue
 1284 0038 9A68     		ldr	r2, [r3, #8]	@ D.5248, pxQueue_1(D)->pcWriteTo
 1285 003a FB68     		ldr	r3, [r7, #12]	@ tmp166, pxQueue
 1286 003c 1B6C     		ldr	r3, [r3, #64]	@ D.5249, pxQueue_1(D)->uxItemSize
 1287 003e 1046     		mov	r0, r2	@, D.5248
 1288 0040 B968     		ldr	r1, [r7, #8]	@, pvItemToQueue
 1289 0042 1A46     		mov	r2, r3	@, D.5249
 1290 0044 FFF7FEFF 		bl	memcpy	@
ARM GAS  C:\Users\Grzybek\AppData\Local\Temp\ccXBk3wH.s 			page 47


1256:Source/queue.c **** 		pxQueue->pcWriteTo += pxQueue->uxItemSize;
 1291              		.loc 1 1256 0
 1292 0048 FB68     		ldr	r3, [r7, #12]	@ tmp167, pxQueue
 1293 004a 9A68     		ldr	r2, [r3, #8]	@ D.5250, pxQueue_1(D)->pcWriteTo
 1294 004c FB68     		ldr	r3, [r7, #12]	@ tmp168, pxQueue
 1295 004e 1B6C     		ldr	r3, [r3, #64]	@ D.5251, pxQueue_1(D)->uxItemSize
 1296 0050 D218     		adds	r2, r2, r3	@ D.5252, D.5250, D.5251
 1297 0052 FB68     		ldr	r3, [r7, #12]	@ tmp169, pxQueue
 1298 0054 9A60     		str	r2, [r3, #8]	@ D.5252, pxQueue_1(D)->pcWriteTo
1257:Source/queue.c **** 		if( pxQueue->pcWriteTo >= pxQueue->pcTail )
 1299              		.loc 1 1257 0
 1300 0056 FB68     		ldr	r3, [r7, #12]	@ tmp170, pxQueue
 1301 0058 9A68     		ldr	r2, [r3, #8]	@ D.5253, pxQueue_1(D)->pcWriteTo
 1302 005a FB68     		ldr	r3, [r7, #12]	@ tmp171, pxQueue
 1303 005c 5B68     		ldr	r3, [r3, #4]	@ D.5254, pxQueue_1(D)->pcTail
 1304 005e 9A42     		cmp	r2, r3	@ D.5253, D.5254
 1305 0060 25D3     		bcc	.L71	@,
1258:Source/queue.c **** 		{
1259:Source/queue.c **** 			pxQueue->pcWriteTo = pxQueue->pcHead;
 1306              		.loc 1 1259 0
 1307 0062 FB68     		ldr	r3, [r7, #12]	@ tmp172, pxQueue
 1308 0064 1A68     		ldr	r2, [r3, #0]	@ D.5257, pxQueue_1(D)->pcHead
 1309 0066 FB68     		ldr	r3, [r7, #12]	@ tmp173, pxQueue
 1310 0068 9A60     		str	r2, [r3, #8]	@ D.5257, pxQueue_1(D)->pcWriteTo
 1311 006a 20E0     		b	.L71	@
 1312              	.L72:
1260:Source/queue.c **** 		}
1261:Source/queue.c **** 	}
1262:Source/queue.c **** 	else
1263:Source/queue.c **** 	{
1264:Source/queue.c **** 		memcpy( ( void * ) pxQueue->pcReadFrom, pvItemToQueue, ( unsigned ) pxQueue->uxItemSize );
 1313              		.loc 1 1264 0
 1314 006c FB68     		ldr	r3, [r7, #12]	@ tmp174, pxQueue
 1315 006e DA68     		ldr	r2, [r3, #12]	@ D.5259, pxQueue_1(D)->pcReadFrom
 1316 0070 FB68     		ldr	r3, [r7, #12]	@ tmp175, pxQueue
 1317 0072 1B6C     		ldr	r3, [r3, #64]	@ D.5260, pxQueue_1(D)->uxItemSize
 1318 0074 1046     		mov	r0, r2	@, D.5259
 1319 0076 B968     		ldr	r1, [r7, #8]	@, pvItemToQueue
 1320 0078 1A46     		mov	r2, r3	@, D.5260
 1321 007a FFF7FEFF 		bl	memcpy	@
1265:Source/queue.c **** 		pxQueue->pcReadFrom -= pxQueue->uxItemSize;
 1322              		.loc 1 1265 0
 1323 007e FB68     		ldr	r3, [r7, #12]	@ tmp176, pxQueue
 1324 0080 DA68     		ldr	r2, [r3, #12]	@ D.5261, pxQueue_1(D)->pcReadFrom
 1325 0082 FB68     		ldr	r3, [r7, #12]	@ tmp177, pxQueue
 1326 0084 1B6C     		ldr	r3, [r3, #64]	@ D.5262, pxQueue_1(D)->uxItemSize
 1327 0086 C3F10003 		rsb	r3, r3, #0	@ D.5263, D.5262
 1328 008a D218     		adds	r2, r2, r3	@ D.5264, D.5261, D.5263
 1329 008c FB68     		ldr	r3, [r7, #12]	@ tmp178, pxQueue
 1330 008e DA60     		str	r2, [r3, #12]	@ D.5264, pxQueue_1(D)->pcReadFrom
1266:Source/queue.c **** 		if( pxQueue->pcReadFrom < pxQueue->pcHead )
 1331              		.loc 1 1266 0
 1332 0090 FB68     		ldr	r3, [r7, #12]	@ tmp179, pxQueue
 1333 0092 DA68     		ldr	r2, [r3, #12]	@ D.5265, pxQueue_1(D)->pcReadFrom
 1334 0094 FB68     		ldr	r3, [r7, #12]	@ tmp180, pxQueue
 1335 0096 1B68     		ldr	r3, [r3, #0]	@ D.5266, pxQueue_1(D)->pcHead
 1336 0098 9A42     		cmp	r2, r3	@ D.5265, D.5266
ARM GAS  C:\Users\Grzybek\AppData\Local\Temp\ccXBk3wH.s 			page 48


 1337 009a 08D2     		bcs	.L71	@,
1267:Source/queue.c **** 		{
1268:Source/queue.c **** 			pxQueue->pcReadFrom = ( pxQueue->pcTail - pxQueue->uxItemSize );
 1338              		.loc 1 1268 0
 1339 009c FB68     		ldr	r3, [r7, #12]	@ tmp181, pxQueue
 1340 009e 5A68     		ldr	r2, [r3, #4]	@ D.5269, pxQueue_1(D)->pcTail
 1341 00a0 FB68     		ldr	r3, [r7, #12]	@ tmp182, pxQueue
 1342 00a2 1B6C     		ldr	r3, [r3, #64]	@ D.5270, pxQueue_1(D)->uxItemSize
 1343 00a4 C3F10003 		rsb	r3, r3, #0	@ D.5271, D.5270
 1344 00a8 D218     		adds	r2, r2, r3	@ D.5272, D.5269, D.5271
 1345 00aa FB68     		ldr	r3, [r7, #12]	@ tmp183, pxQueue
 1346 00ac DA60     		str	r2, [r3, #12]	@ D.5272, pxQueue_1(D)->pcReadFrom
 1347              	.L71:
1269:Source/queue.c **** 		}
1270:Source/queue.c **** 	}
1271:Source/queue.c **** 
1272:Source/queue.c **** 	++( pxQueue->uxMessagesWaiting );
 1348              		.loc 1 1272 0
 1349 00ae FB68     		ldr	r3, [r7, #12]	@ tmp184, pxQueue
 1350 00b0 9B6B     		ldr	r3, [r3, #56]	@ D.5273, pxQueue_1(D)->uxMessagesWaiting
 1351 00b2 03F10102 		add	r2, r3, #1	@ D.5274, D.5273,
 1352 00b6 FB68     		ldr	r3, [r7, #12]	@ tmp185, pxQueue
 1353 00b8 9A63     		str	r2, [r3, #56]	@ D.5274, pxQueue_1(D)->uxMessagesWaiting
1273:Source/queue.c **** }
 1354              		.loc 1 1273 0
 1355 00ba 07F11007 		add	r7, r7, #16	@,,
 1356 00be BD46     		mov	sp, r7
 1357 00c0 80BD     		pop	{r7, pc}
 1358              		.cfi_endproc
 1359              	.LFE12:
 1360              		.size	prvCopyDataToQueue, .-prvCopyDataToQueue
 1361 00c2 00BF     		.section	.text.prvCopyDataFromQueue,"ax",%progbits
 1362              		.align	2
 1363              		.thumb
 1364              		.thumb_func
 1365              		.type	prvCopyDataFromQueue, %function
 1366              	prvCopyDataFromQueue:
 1367              	.LFB13:
1274:Source/queue.c **** /*-----------------------------------------------------------*/
1275:Source/queue.c **** 
1276:Source/queue.c **** static void prvCopyDataFromQueue( xQUEUE * const pxQueue, const void *pvBuffer )
1277:Source/queue.c **** {
 1368              		.loc 1 1277 0
 1369              		.cfi_startproc
 1370              		@ args = 0, pretend = 0, frame = 8
 1371              		@ frame_needed = 1, uses_anonymous_args = 0
 1372 0000 80B5     		push	{r7, lr}	@
 1373              	.LCFI39:
 1374              		.cfi_def_cfa_offset 8
 1375              		.cfi_offset 7, -8
 1376              		.cfi_offset 14, -4
 1377 0002 82B0     		sub	sp, sp, #8	@,,
 1378              	.LCFI40:
 1379              		.cfi_def_cfa_offset 16
 1380 0004 00AF     		add	r7, sp, #0	@,,
 1381              	.LCFI41:
 1382              		.cfi_def_cfa_register 7
ARM GAS  C:\Users\Grzybek\AppData\Local\Temp\ccXBk3wH.s 			page 49


 1383 0006 7860     		str	r0, [r7, #4]	@ pxQueue, pxQueue
 1384 0008 3960     		str	r1, [r7, #0]	@ pvBuffer, pvBuffer
1278:Source/queue.c **** 	if( pxQueue->uxQueueType != queueQUEUE_IS_MUTEX )
 1385              		.loc 1 1278 0
 1386 000a 7B68     		ldr	r3, [r7, #4]	@ tmp143, pxQueue
 1387 000c 1B68     		ldr	r3, [r3, #0]	@ D.5225, pxQueue_1(D)->pcHead
 1388 000e 002B     		cmp	r3, #0	@ D.5225,
 1389 0010 19D0     		beq	.L73	@,
1279:Source/queue.c **** 	{
1280:Source/queue.c **** 		pxQueue->pcReadFrom += pxQueue->uxItemSize;
 1390              		.loc 1 1280 0
 1391 0012 7B68     		ldr	r3, [r7, #4]	@ tmp144, pxQueue
 1392 0014 DA68     		ldr	r2, [r3, #12]	@ D.5228, pxQueue_1(D)->pcReadFrom
 1393 0016 7B68     		ldr	r3, [r7, #4]	@ tmp145, pxQueue
 1394 0018 1B6C     		ldr	r3, [r3, #64]	@ D.5229, pxQueue_1(D)->uxItemSize
 1395 001a D218     		adds	r2, r2, r3	@ D.5230, D.5228, D.5229
 1396 001c 7B68     		ldr	r3, [r7, #4]	@ tmp146, pxQueue
 1397 001e DA60     		str	r2, [r3, #12]	@ D.5230, pxQueue_1(D)->pcReadFrom
1281:Source/queue.c **** 		if( pxQueue->pcReadFrom >= pxQueue->pcTail )
 1398              		.loc 1 1281 0
 1399 0020 7B68     		ldr	r3, [r7, #4]	@ tmp147, pxQueue
 1400 0022 DA68     		ldr	r2, [r3, #12]	@ D.5231, pxQueue_1(D)->pcReadFrom
 1401 0024 7B68     		ldr	r3, [r7, #4]	@ tmp148, pxQueue
 1402 0026 5B68     		ldr	r3, [r3, #4]	@ D.5232, pxQueue_1(D)->pcTail
 1403 0028 9A42     		cmp	r2, r3	@ D.5231, D.5232
 1404 002a 03D3     		bcc	.L75	@,
1282:Source/queue.c **** 		{
1283:Source/queue.c **** 			pxQueue->pcReadFrom = pxQueue->pcHead;
 1405              		.loc 1 1283 0
 1406 002c 7B68     		ldr	r3, [r7, #4]	@ tmp149, pxQueue
 1407 002e 1A68     		ldr	r2, [r3, #0]	@ D.5235, pxQueue_1(D)->pcHead
 1408 0030 7B68     		ldr	r3, [r7, #4]	@ tmp150, pxQueue
 1409 0032 DA60     		str	r2, [r3, #12]	@ D.5235, pxQueue_1(D)->pcReadFrom
 1410              	.L75:
1284:Source/queue.c **** 		}
1285:Source/queue.c **** 		memcpy( ( void * ) pvBuffer, ( void * ) pxQueue->pcReadFrom, ( unsigned ) pxQueue->uxItemSize );
 1411              		.loc 1 1285 0
 1412 0034 7B68     		ldr	r3, [r7, #4]	@ tmp151, pxQueue
 1413 0036 DA68     		ldr	r2, [r3, #12]	@ D.5236, pxQueue_1(D)->pcReadFrom
 1414 0038 7B68     		ldr	r3, [r7, #4]	@ tmp152, pxQueue
 1415 003a 1B6C     		ldr	r3, [r3, #64]	@ D.5237, pxQueue_1(D)->uxItemSize
 1416 003c 3868     		ldr	r0, [r7, #0]	@, pvBuffer
 1417 003e 1146     		mov	r1, r2	@, D.5236
 1418 0040 1A46     		mov	r2, r3	@, D.5237
 1419 0042 FFF7FEFF 		bl	memcpy	@
 1420              	.L73:
1286:Source/queue.c **** 	}
1287:Source/queue.c **** }
 1421              		.loc 1 1287 0
 1422 0046 07F10807 		add	r7, r7, #8	@,,
 1423 004a BD46     		mov	sp, r7
 1424 004c 80BD     		pop	{r7, pc}
 1425              		.cfi_endproc
 1426              	.LFE13:
 1427              		.size	prvCopyDataFromQueue, .-prvCopyDataFromQueue
 1428 004e 00BF     		.section	.text.prvUnlockQueue,"ax",%progbits
 1429              		.align	2
ARM GAS  C:\Users\Grzybek\AppData\Local\Temp\ccXBk3wH.s 			page 50


 1430              		.thumb
 1431              		.thumb_func
 1432              		.type	prvUnlockQueue, %function
 1433              	prvUnlockQueue:
 1434              	.LFB14:
1288:Source/queue.c **** /*-----------------------------------------------------------*/
1289:Source/queue.c **** 
1290:Source/queue.c **** static void prvUnlockQueue( xQueueHandle pxQueue )
1291:Source/queue.c **** {
 1435              		.loc 1 1291 0
 1436              		.cfi_startproc
 1437              		@ args = 0, pretend = 0, frame = 8
 1438              		@ frame_needed = 1, uses_anonymous_args = 0
 1439 0000 80B5     		push	{r7, lr}	@
 1440              	.LCFI42:
 1441              		.cfi_def_cfa_offset 8
 1442              		.cfi_offset 7, -8
 1443              		.cfi_offset 14, -4
 1444 0002 82B0     		sub	sp, sp, #8	@,,
 1445              	.LCFI43:
 1446              		.cfi_def_cfa_offset 16
 1447 0004 00AF     		add	r7, sp, #0	@,,
 1448              	.LCFI44:
 1449              		.cfi_def_cfa_register 7
 1450 0006 7860     		str	r0, [r7, #4]	@ pxQueue, pxQueue
1292:Source/queue.c **** 	/* THIS FUNCTION MUST BE CALLED WITH THE SCHEDULER SUSPENDED. */
1293:Source/queue.c **** 
1294:Source/queue.c **** 	/* The lock counts contains the number of extra data items placed or
1295:Source/queue.c **** 	removed from the queue while the queue was locked.  When a queue is
1296:Source/queue.c **** 	locked items can be added or removed, but the event lists cannot be
1297:Source/queue.c **** 	updated. */
1298:Source/queue.c **** 	taskENTER_CRITICAL();
 1451              		.loc 1 1298 0
 1452 0008 FFF7FEFF 		bl	vPortEnterCritical	@
1299:Source/queue.c **** 	{
1300:Source/queue.c **** 		/* See if data was added to the queue while it was locked. */
1301:Source/queue.c **** 		while( pxQueue->xTxLock > queueLOCKED_UNMODIFIED )
 1453              		.loc 1 1301 0
 1454 000c 14E0     		b	.L77	@
 1455              	.L81:
1302:Source/queue.c **** 		{
1303:Source/queue.c **** 			/* Data was posted while the queue was locked.  Are any tasks
1304:Source/queue.c **** 			blocked waiting for data to become available? */
1305:Source/queue.c **** 			if( listLIST_IS_EMPTY( &( pxQueue->xTasksWaitingToReceive ) ) == pdFALSE )
 1456              		.loc 1 1305 0
 1457 000e 7B68     		ldr	r3, [r7, #4]	@ tmp146, pxQueue
 1458 0010 5B6A     		ldr	r3, [r3, #36]	@ D.5203, pxQueue_1(D)->xTasksWaitingToReceive.uxNumberOfItems
 1459 0012 002B     		cmp	r3, #0	@ D.5203,
 1460 0014 15D0     		beq	.L87	@,
1306:Source/queue.c **** 			{
1307:Source/queue.c **** 				/* Tasks that are removed from the event list will get added to
1308:Source/queue.c **** 				the pending ready list as the scheduler is still suspended. */
1309:Source/queue.c **** 				if( xTaskRemoveFromEventList( &( pxQueue->xTasksWaitingToReceive ) ) != pdFALSE )
 1461              		.loc 1 1309 0
 1462 0016 7B68     		ldr	r3, [r7, #4]	@ tmp147, pxQueue
 1463 0018 03F12403 		add	r3, r3, #36	@ D.5206, tmp147,
 1464 001c 1846     		mov	r0, r3	@, D.5206
ARM GAS  C:\Users\Grzybek\AppData\Local\Temp\ccXBk3wH.s 			page 51


 1465 001e FFF7FEFF 		bl	xTaskRemoveFromEventList	@
 1466 0022 0346     		mov	r3, r0	@ D.5207,
 1467 0024 002B     		cmp	r3, #0	@ D.5207,
 1468 0026 01D0     		beq	.L79	@,
1310:Source/queue.c **** 				{
1311:Source/queue.c **** 					/* The task waiting has a higher priority so record that a
1312:Source/queue.c **** 					context	switch is required. */
1313:Source/queue.c **** 					vTaskMissedYield();
 1469              		.loc 1 1313 0
 1470 0028 FFF7FEFF 		bl	vTaskMissedYield	@
 1471              	.L79:
1314:Source/queue.c **** 				}
1315:Source/queue.c **** 
1316:Source/queue.c **** 				--( pxQueue->xTxLock );
 1472              		.loc 1 1316 0
 1473 002c 7B68     		ldr	r3, [r7, #4]	@ tmp148, pxQueue
 1474 002e 9B6C     		ldr	r3, [r3, #72]	@ D.5210, pxQueue_1(D)->xTxLock
 1475 0030 03F1FF32 		add	r2, r3, #-1	@ D.5211, D.5210,
 1476 0034 7B68     		ldr	r3, [r7, #4]	@ tmp149, pxQueue
 1477 0036 9A64     		str	r2, [r3, #72]	@ D.5211, pxQueue_1(D)->xTxLock
 1478              	.L77:
1301:Source/queue.c **** 		while( pxQueue->xTxLock > queueLOCKED_UNMODIFIED )
 1479              		.loc 1 1301 0 discriminator 1
 1480 0038 7B68     		ldr	r3, [r7, #4]	@ tmp150, pxQueue
 1481 003a 9B6C     		ldr	r3, [r3, #72]	@ D.5213, pxQueue_1(D)->xTxLock
 1482 003c 002B     		cmp	r3, #0	@ D.5213,
 1483 003e E6DC     		bgt	.L81	@,
 1484 0040 00E0     		b	.L80	@
 1485              	.L87:
1317:Source/queue.c **** 			}
1318:Source/queue.c **** 			else
1319:Source/queue.c **** 			{
1320:Source/queue.c **** 				break;
 1486              		.loc 1 1320 0
 1487 0042 00BF     		nop
 1488              	.L80:
1321:Source/queue.c **** 			}
1322:Source/queue.c **** 		}
1323:Source/queue.c **** 
1324:Source/queue.c **** 		pxQueue->xTxLock = queueUNLOCKED;
 1489              		.loc 1 1324 0
 1490 0044 7B68     		ldr	r3, [r7, #4]	@ tmp151, pxQueue
 1491 0046 4FF0FF32 		mov	r2, #-1	@ tmp152,
 1492 004a 9A64     		str	r2, [r3, #72]	@ tmp152, pxQueue_1(D)->xTxLock
1325:Source/queue.c **** 	}
1326:Source/queue.c **** 	taskEXIT_CRITICAL();
 1493              		.loc 1 1326 0
 1494 004c FFF7FEFF 		bl	vPortExitCritical	@
1327:Source/queue.c **** 
1328:Source/queue.c **** 	/* Do the same for the Rx lock. */
1329:Source/queue.c **** 	taskENTER_CRITICAL();
 1495              		.loc 1 1329 0
 1496 0050 FFF7FEFF 		bl	vPortEnterCritical	@
1330:Source/queue.c **** 	{
1331:Source/queue.c **** 		while( pxQueue->xRxLock > queueLOCKED_UNMODIFIED )
 1497              		.loc 1 1331 0
 1498 0054 14E0     		b	.L82	@
ARM GAS  C:\Users\Grzybek\AppData\Local\Temp\ccXBk3wH.s 			page 52


 1499              	.L86:
1332:Source/queue.c **** 		{
1333:Source/queue.c **** 			if( listLIST_IS_EMPTY( &( pxQueue->xTasksWaitingToSend ) ) == pdFALSE )
 1500              		.loc 1 1333 0
 1501 0056 7B68     		ldr	r3, [r7, #4]	@ tmp153, pxQueue
 1502 0058 1B69     		ldr	r3, [r3, #16]	@ D.5214, pxQueue_1(D)->xTasksWaitingToSend.uxNumberOfItems
 1503 005a 002B     		cmp	r3, #0	@ D.5214,
 1504 005c 15D0     		beq	.L88	@,
1334:Source/queue.c **** 			{
1335:Source/queue.c **** 				if( xTaskRemoveFromEventList( &( pxQueue->xTasksWaitingToSend ) ) != pdFALSE )
 1505              		.loc 1 1335 0
 1506 005e 7B68     		ldr	r3, [r7, #4]	@ tmp154, pxQueue
 1507 0060 03F11003 		add	r3, r3, #16	@ D.5217, tmp154,
 1508 0064 1846     		mov	r0, r3	@, D.5217
 1509 0066 FFF7FEFF 		bl	xTaskRemoveFromEventList	@
 1510 006a 0346     		mov	r3, r0	@ D.5218,
 1511 006c 002B     		cmp	r3, #0	@ D.5218,
 1512 006e 01D0     		beq	.L84	@,
1336:Source/queue.c **** 				{
1337:Source/queue.c **** 					vTaskMissedYield();
 1513              		.loc 1 1337 0
 1514 0070 FFF7FEFF 		bl	vTaskMissedYield	@
 1515              	.L84:
1338:Source/queue.c **** 				}
1339:Source/queue.c **** 
1340:Source/queue.c **** 				--( pxQueue->xRxLock );
 1516              		.loc 1 1340 0
 1517 0074 7B68     		ldr	r3, [r7, #4]	@ tmp155, pxQueue
 1518 0076 5B6C     		ldr	r3, [r3, #68]	@ D.5221, pxQueue_1(D)->xRxLock
 1519 0078 03F1FF32 		add	r2, r3, #-1	@ D.5222, D.5221,
 1520 007c 7B68     		ldr	r3, [r7, #4]	@ tmp156, pxQueue
 1521 007e 5A64     		str	r2, [r3, #68]	@ D.5222, pxQueue_1(D)->xRxLock
 1522              	.L82:
1331:Source/queue.c **** 		while( pxQueue->xRxLock > queueLOCKED_UNMODIFIED )
 1523              		.loc 1 1331 0 discriminator 1
 1524 0080 7B68     		ldr	r3, [r7, #4]	@ tmp157, pxQueue
 1525 0082 5B6C     		ldr	r3, [r3, #68]	@ D.5224, pxQueue_1(D)->xRxLock
 1526 0084 002B     		cmp	r3, #0	@ D.5224,
 1527 0086 E6DC     		bgt	.L86	@,
 1528 0088 00E0     		b	.L85	@
 1529              	.L88:
1341:Source/queue.c **** 			}
1342:Source/queue.c **** 			else
1343:Source/queue.c **** 			{
1344:Source/queue.c **** 				break;
 1530              		.loc 1 1344 0
 1531 008a 00BF     		nop
 1532              	.L85:
1345:Source/queue.c **** 			}
1346:Source/queue.c **** 		}
1347:Source/queue.c **** 
1348:Source/queue.c **** 		pxQueue->xRxLock = queueUNLOCKED;
 1533              		.loc 1 1348 0
 1534 008c 7B68     		ldr	r3, [r7, #4]	@ tmp158, pxQueue
 1535 008e 4FF0FF32 		mov	r2, #-1	@ tmp159,
 1536 0092 5A64     		str	r2, [r3, #68]	@ tmp159, pxQueue_1(D)->xRxLock
1349:Source/queue.c **** 	}
ARM GAS  C:\Users\Grzybek\AppData\Local\Temp\ccXBk3wH.s 			page 53


1350:Source/queue.c **** 	taskEXIT_CRITICAL();
 1537              		.loc 1 1350 0
 1538 0094 FFF7FEFF 		bl	vPortExitCritical	@
1351:Source/queue.c **** }
 1539              		.loc 1 1351 0
 1540 0098 07F10807 		add	r7, r7, #8	@,,
 1541 009c BD46     		mov	sp, r7
 1542 009e 80BD     		pop	{r7, pc}
 1543              		.cfi_endproc
 1544              	.LFE14:
 1545              		.size	prvUnlockQueue, .-prvUnlockQueue
 1546              		.section	.text.prvIsQueueEmpty,"ax",%progbits
 1547              		.align	2
 1548              		.thumb
 1549              		.thumb_func
 1550              		.type	prvIsQueueEmpty, %function
 1551              	prvIsQueueEmpty:
 1552              	.LFB15:
1352:Source/queue.c **** /*-----------------------------------------------------------*/
1353:Source/queue.c **** 
1354:Source/queue.c **** static signed portBASE_TYPE prvIsQueueEmpty( const xQueueHandle pxQueue )
1355:Source/queue.c **** {
 1553              		.loc 1 1355 0
 1554              		.cfi_startproc
 1555              		@ args = 0, pretend = 0, frame = 16
 1556              		@ frame_needed = 1, uses_anonymous_args = 0
 1557 0000 80B5     		push	{r7, lr}	@
 1558              	.LCFI45:
 1559              		.cfi_def_cfa_offset 8
 1560              		.cfi_offset 7, -8
 1561              		.cfi_offset 14, -4
 1562 0002 84B0     		sub	sp, sp, #16	@,,
 1563              	.LCFI46:
 1564              		.cfi_def_cfa_offset 24
 1565 0004 00AF     		add	r7, sp, #0	@,,
 1566              	.LCFI47:
 1567              		.cfi_def_cfa_register 7
 1568 0006 7860     		str	r0, [r7, #4]	@ pxQueue, pxQueue
1356:Source/queue.c **** signed portBASE_TYPE xReturn;
1357:Source/queue.c **** 
1358:Source/queue.c **** 	taskENTER_CRITICAL();
 1569              		.loc 1 1358 0
 1570 0008 FFF7FEFF 		bl	vPortEnterCritical	@
1359:Source/queue.c **** 		xReturn = ( pxQueue->uxMessagesWaiting == ( unsigned portBASE_TYPE ) 0 );
 1571              		.loc 1 1359 0
 1572 000c 7B68     		ldr	r3, [r7, #4]	@ tmp138, pxQueue
 1573 000e 9B6B     		ldr	r3, [r3, #56]	@ D.5199, pxQueue_1(D)->uxMessagesWaiting
 1574 0010 002B     		cmp	r3, #0	@ D.5199,
 1575 0012 14BF     		ite	ne	@
 1576 0014 0023     		movne	r3, #0	@, tmp140
 1577 0016 0123     		moveq	r3, #1	@, tmp140
 1578 0018 DBB2     		uxtb	r3, r3	@ D.5200, tmp139
 1579 001a FB60     		str	r3, [r7, #12]	@ D.5200, xReturn
1360:Source/queue.c **** 	taskEXIT_CRITICAL();
 1580              		.loc 1 1360 0
 1581 001c FFF7FEFF 		bl	vPortExitCritical	@
1361:Source/queue.c **** 
ARM GAS  C:\Users\Grzybek\AppData\Local\Temp\ccXBk3wH.s 			page 54


1362:Source/queue.c **** 	return xReturn;
 1582              		.loc 1 1362 0
 1583 0020 FB68     		ldr	r3, [r7, #12]	@ D.5201, xReturn
1363:Source/queue.c **** }
 1584              		.loc 1 1363 0
 1585 0022 1846     		mov	r0, r3	@, <retval>
 1586 0024 07F11007 		add	r7, r7, #16	@,,
 1587 0028 BD46     		mov	sp, r7
 1588 002a 80BD     		pop	{r7, pc}
 1589              		.cfi_endproc
 1590              	.LFE15:
 1591              		.size	prvIsQueueEmpty, .-prvIsQueueEmpty
 1592              		.section	.text.xQueueIsQueueEmptyFromISR,"ax",%progbits
 1593              		.align	2
 1594              		.global	xQueueIsQueueEmptyFromISR
 1595              		.thumb
 1596              		.thumb_func
 1597              		.type	xQueueIsQueueEmptyFromISR, %function
 1598              	xQueueIsQueueEmptyFromISR:
 1599              	.LFB16:
1364:Source/queue.c **** /*-----------------------------------------------------------*/
1365:Source/queue.c **** 
1366:Source/queue.c **** signed portBASE_TYPE xQueueIsQueueEmptyFromISR( const xQueueHandle pxQueue )
1367:Source/queue.c **** {
 1600              		.loc 1 1367 0
 1601              		.cfi_startproc
 1602              		@ args = 0, pretend = 0, frame = 16
 1603              		@ frame_needed = 1, uses_anonymous_args = 0
 1604              		@ link register save eliminated.
 1605 0000 80B4     		push	{r7}	@
 1606              	.LCFI48:
 1607              		.cfi_def_cfa_offset 4
 1608              		.cfi_offset 7, -4
 1609 0002 85B0     		sub	sp, sp, #20	@,,
 1610              	.LCFI49:
 1611              		.cfi_def_cfa_offset 24
 1612 0004 00AF     		add	r7, sp, #0	@,,
 1613              	.LCFI50:
 1614              		.cfi_def_cfa_register 7
 1615 0006 7860     		str	r0, [r7, #4]	@ pxQueue, pxQueue
1368:Source/queue.c **** signed portBASE_TYPE xReturn;
1369:Source/queue.c **** 
1370:Source/queue.c **** 	configASSERT( pxQueue );
1371:Source/queue.c **** 	xReturn = ( pxQueue->uxMessagesWaiting == ( unsigned portBASE_TYPE ) 0 );
 1616              		.loc 1 1371 0
 1617 0008 7B68     		ldr	r3, [r7, #4]	@ tmp138, pxQueue
 1618 000a 9B6B     		ldr	r3, [r3, #56]	@ D.5195, pxQueue_1(D)->uxMessagesWaiting
 1619 000c 002B     		cmp	r3, #0	@ D.5195,
 1620 000e 14BF     		ite	ne	@
 1621 0010 0023     		movne	r3, #0	@, tmp140
 1622 0012 0123     		moveq	r3, #1	@, tmp140
 1623 0014 DBB2     		uxtb	r3, r3	@ D.5196, tmp139
 1624 0016 FB60     		str	r3, [r7, #12]	@ D.5196, xReturn
1372:Source/queue.c **** 
1373:Source/queue.c **** 	return xReturn;
 1625              		.loc 1 1373 0
 1626 0018 FB68     		ldr	r3, [r7, #12]	@ D.5197, xReturn
ARM GAS  C:\Users\Grzybek\AppData\Local\Temp\ccXBk3wH.s 			page 55


1374:Source/queue.c **** }
 1627              		.loc 1 1374 0
 1628 001a 1846     		mov	r0, r3	@, <retval>
 1629 001c 07F11407 		add	r7, r7, #20	@,,
 1630 0020 BD46     		mov	sp, r7
 1631 0022 80BC     		pop	{r7}
 1632 0024 7047     		bx	lr
 1633              		.cfi_endproc
 1634              	.LFE16:
 1635              		.size	xQueueIsQueueEmptyFromISR, .-xQueueIsQueueEmptyFromISR
 1636 0026 00BF     		.section	.text.prvIsQueueFull,"ax",%progbits
 1637              		.align	2
 1638              		.thumb
 1639              		.thumb_func
 1640              		.type	prvIsQueueFull, %function
 1641              	prvIsQueueFull:
 1642              	.LFB17:
1375:Source/queue.c **** /*-----------------------------------------------------------*/
1376:Source/queue.c **** 
1377:Source/queue.c **** static signed portBASE_TYPE prvIsQueueFull( const xQueueHandle pxQueue )
1378:Source/queue.c **** {
 1643              		.loc 1 1378 0
 1644              		.cfi_startproc
 1645              		@ args = 0, pretend = 0, frame = 16
 1646              		@ frame_needed = 1, uses_anonymous_args = 0
 1647 0000 80B5     		push	{r7, lr}	@
 1648              	.LCFI51:
 1649              		.cfi_def_cfa_offset 8
 1650              		.cfi_offset 7, -8
 1651              		.cfi_offset 14, -4
 1652 0002 84B0     		sub	sp, sp, #16	@,,
 1653              	.LCFI52:
 1654              		.cfi_def_cfa_offset 24
 1655 0004 00AF     		add	r7, sp, #0	@,,
 1656              	.LCFI53:
 1657              		.cfi_def_cfa_register 7
 1658 0006 7860     		str	r0, [r7, #4]	@ pxQueue, pxQueue
1379:Source/queue.c **** signed portBASE_TYPE xReturn;
1380:Source/queue.c **** 
1381:Source/queue.c **** 	taskENTER_CRITICAL();
 1659              		.loc 1 1381 0
 1660 0008 FFF7FEFF 		bl	vPortEnterCritical	@
1382:Source/queue.c **** 		xReturn = ( pxQueue->uxMessagesWaiting == pxQueue->uxLength );
 1661              		.loc 1 1382 0
 1662 000c 7B68     		ldr	r3, [r7, #4]	@ tmp139, pxQueue
 1663 000e 9A6B     		ldr	r2, [r3, #56]	@ D.5190, pxQueue_1(D)->uxMessagesWaiting
 1664 0010 7B68     		ldr	r3, [r7, #4]	@ tmp140, pxQueue
 1665 0012 DB6B     		ldr	r3, [r3, #60]	@ D.5191, pxQueue_1(D)->uxLength
 1666 0014 9A42     		cmp	r2, r3	@ D.5190, D.5191
 1667 0016 14BF     		ite	ne	@
 1668 0018 0023     		movne	r3, #0	@, tmp142
 1669 001a 0123     		moveq	r3, #1	@, tmp142
 1670 001c DBB2     		uxtb	r3, r3	@ D.5192, tmp141
 1671 001e FB60     		str	r3, [r7, #12]	@ D.5192, xReturn
1383:Source/queue.c **** 	taskEXIT_CRITICAL();
 1672              		.loc 1 1383 0
 1673 0020 FFF7FEFF 		bl	vPortExitCritical	@
ARM GAS  C:\Users\Grzybek\AppData\Local\Temp\ccXBk3wH.s 			page 56


1384:Source/queue.c **** 
1385:Source/queue.c **** 	return xReturn;
 1674              		.loc 1 1385 0
 1675 0024 FB68     		ldr	r3, [r7, #12]	@ D.5193, xReturn
1386:Source/queue.c **** }
 1676              		.loc 1 1386 0
 1677 0026 1846     		mov	r0, r3	@, <retval>
 1678 0028 07F11007 		add	r7, r7, #16	@,,
 1679 002c BD46     		mov	sp, r7
 1680 002e 80BD     		pop	{r7, pc}
 1681              		.cfi_endproc
 1682              	.LFE17:
 1683              		.size	prvIsQueueFull, .-prvIsQueueFull
 1684              		.section	.text.xQueueIsQueueFullFromISR,"ax",%progbits
 1685              		.align	2
 1686              		.global	xQueueIsQueueFullFromISR
 1687              		.thumb
 1688              		.thumb_func
 1689              		.type	xQueueIsQueueFullFromISR, %function
 1690              	xQueueIsQueueFullFromISR:
 1691              	.LFB18:
1387:Source/queue.c **** /*-----------------------------------------------------------*/
1388:Source/queue.c **** 
1389:Source/queue.c **** signed portBASE_TYPE xQueueIsQueueFullFromISR( const xQueueHandle pxQueue )
1390:Source/queue.c **** {
 1692              		.loc 1 1390 0
 1693              		.cfi_startproc
 1694              		@ args = 0, pretend = 0, frame = 16
 1695              		@ frame_needed = 1, uses_anonymous_args = 0
 1696              		@ link register save eliminated.
 1697 0000 80B4     		push	{r7}	@
 1698              	.LCFI54:
 1699              		.cfi_def_cfa_offset 4
 1700              		.cfi_offset 7, -4
 1701 0002 85B0     		sub	sp, sp, #20	@,,
 1702              	.LCFI55:
 1703              		.cfi_def_cfa_offset 24
 1704 0004 00AF     		add	r7, sp, #0	@,,
 1705              	.LCFI56:
 1706              		.cfi_def_cfa_register 7
 1707 0006 7860     		str	r0, [r7, #4]	@ pxQueue, pxQueue
1391:Source/queue.c **** signed portBASE_TYPE xReturn;
1392:Source/queue.c **** 
1393:Source/queue.c **** 	configASSERT( pxQueue );
1394:Source/queue.c **** 	xReturn = ( pxQueue->uxMessagesWaiting == pxQueue->uxLength );
 1708              		.loc 1 1394 0
 1709 0008 7B68     		ldr	r3, [r7, #4]	@ tmp139, pxQueue
 1710 000a 9A6B     		ldr	r2, [r3, #56]	@ D.5185, pxQueue_1(D)->uxMessagesWaiting
 1711 000c 7B68     		ldr	r3, [r7, #4]	@ tmp140, pxQueue
 1712 000e DB6B     		ldr	r3, [r3, #60]	@ D.5186, pxQueue_1(D)->uxLength
 1713 0010 9A42     		cmp	r2, r3	@ D.5185, D.5186
 1714 0012 14BF     		ite	ne	@
 1715 0014 0023     		movne	r3, #0	@, tmp142
 1716 0016 0123     		moveq	r3, #1	@, tmp142
 1717 0018 DBB2     		uxtb	r3, r3	@ D.5187, tmp141
 1718 001a FB60     		str	r3, [r7, #12]	@ D.5187, xReturn
1395:Source/queue.c **** 
ARM GAS  C:\Users\Grzybek\AppData\Local\Temp\ccXBk3wH.s 			page 57


1396:Source/queue.c **** 	return xReturn;
 1719              		.loc 1 1396 0
 1720 001c FB68     		ldr	r3, [r7, #12]	@ D.5188, xReturn
1397:Source/queue.c **** }
 1721              		.loc 1 1397 0
 1722 001e 1846     		mov	r0, r3	@, <retval>
 1723 0020 07F11407 		add	r7, r7, #20	@,,
 1724 0024 BD46     		mov	sp, r7
 1725 0026 80BC     		pop	{r7}
 1726 0028 7047     		bx	lr
 1727              		.cfi_endproc
 1728              	.LFE18:
 1729              		.size	xQueueIsQueueFullFromISR, .-xQueueIsQueueFullFromISR
 1730 002a 00BF     		.text
 1731              	.Letext0:
 1732              		.file 2 "c:\\codesourcery\\sourcery_codebench_lite_for_arm_eabi\\bin\\../lib/gcc/arm-none-eabi/4.7
 1733              		.file 3 "./Source/include/../../Source/portable/GCC/ARM_CM3/portmacro.h"
 1734              		.file 4 "./Source/include/list.h"
 1735              		.file 5 "./Source/include/task.h"