ARM GAS  C:\Users\Grzybek\AppData\Local\Temp\cccVQrHj.s 			page 1


   1              		.syntax unified
   2              		.cpu cortex-m3
   3              		.fpu softvfp
   4              		.eabi_attribute 20, 1	@ Tag_ABI_FP_denormal
   5              		.eabi_attribute 21, 1	@ Tag_ABI_FP_exceptions
   6              		.eabi_attribute 23, 3	@ Tag_ABI_FP_number_model
   7              		.eabi_attribute 24, 1	@ Tag_ABI_align8_needed
   8              		.eabi_attribute 25, 1	@ Tag_ABI_align8_preserved
   9              		.eabi_attribute 26, 1	@ Tag_ABI_enum_size
  10              		.eabi_attribute 30, 6	@ Tag_ABI_optimization_goals
  11              		.eabi_attribute 34, 1	@ Tag_CPU_unaligned_access
  12              		.eabi_attribute 18, 4	@ Tag_ABI_PCS_wchar_t
  13              		.file	"tasks.c"
  14              	@ GNU C (Sourcery CodeBench Lite 2012.09-63) version 4.7.2 (arm-none-eabi)
  15              	@	compiled by GNU C version 4.3.2, GMP version 5.0.5, MPFR version 3.1.1-p2, MPC version 1.0.1
  16              	@ GGC heuristics: --param ggc-min-expand=100 --param ggc-min-heapsize=131072
  17              	@ options passed:  -I . -I ./STCode -I ./Source/include
  18              	@ -I ./Source/portable/GCC/ARM_CM3 -I ./Common/include
  19              	@ -I ./Common/drivers/ST/STM32F10xFWLib/v3_2_0/Libraries/STM32F10x_StdPeriph_Driver/inc
  20              	@ -I ./Common/drivers/ST/STM32F10xFWLib/v3_2_0/Libraries/CMSIS/CM3/CoreSupport
  21              	@ -I ./Common/drivers/ST/STM32F10xFWLib/v3_2_0/Libraries/CMSIS/CM3/DeviceSupport/ST/STM32F10x
  22              	@ -imultilib thumb2
  23              	@ -iprefix c:\codesourcery\sourcery_codebench_lite_for_arm_eabi\bin\../lib/gcc/arm-none-eabi/4.7.2/
  24              	@ -isysroot c:\codesourcery\sourcery_codebench_lite_for_arm_eabi\bin\../arm-none-eabi
  25              	@ -D__USES_INITFINI__ -D STM32F10X_HD -D USE_STDPERIPH_DRIVER
  26              	@ -D VECT_TAB_FLASH -D GCC_ARMCM3 -D inline=
  27              	@ -D PACK_STRUCT_END=__attribute((packed))
  28              	@ -D ALIGN_STRUCT_END=__attribute((aligned(4)))
  29              	@ -D __CS_SOURCERYGXX_MAJ__=2012 -D __CS_SOURCERYGXX_MIN__=9
  30              	@ -D __CS_SOURCERYGXX_REV__=63 Source/tasks.c -mthumb -mcpu=cortex-m3
  31              	@ -auxbase-strip Debug/tasks.o -g3 -gdwarf-2 -O0 -std=gnu99
  32              	@ -ffunction-sections -fdata-sections -fmessage-length=0 -fverbose-asm
  33              	@ options enabled:  -fauto-inc-dec -fbranch-count-reg -fcommon
  34              	@ -fdata-sections -fdebug-types-section -fdelete-null-pointer-checks
  35              	@ -fdwarf2-cfi-asm -fearly-inlining -feliminate-unused-debug-types
  36              	@ -ffunction-cse -ffunction-sections -fgcse-lm -fgnu-runtime -fident
  37              	@ -finline-atomics -fira-share-save-slots -fira-share-spill-slots -fivopts
  38              	@ -fkeep-static-consts -fleading-underscore -fmath-errno
  39              	@ -fmerge-debug-strings -fmove-loop-invariants -fpeephole
  40              	@ -fprefetch-loop-arrays -freg-struct-return
  41              	@ -fsched-critical-path-heuristic -fsched-dep-count-heuristic
  42              	@ -fsched-group-heuristic -fsched-interblock -fsched-last-insn-heuristic
  43              	@ -fsched-rank-heuristic -fsched-spec -fsched-spec-insn-heuristic
  44              	@ -fsched-stalled-insns-dep -fshow-column -fsigned-zeros
  45              	@ -fsplit-ivs-in-unroller -fstrict-volatile-bitfields -ftrapping-math
  46              	@ -ftree-cselim -ftree-forwprop -ftree-loop-if-convert -ftree-loop-im
  47              	@ -ftree-loop-ivcanon -ftree-loop-optimize -ftree-parallelize-loops=
  48              	@ -ftree-phiprop -ftree-pta -ftree-reassoc -ftree-scev-cprop
  49              	@ -ftree-slp-vectorize -ftree-vect-loop-version -funit-at-a-time
  50              	@ -fverbose-asm -fzero-initialized-in-bss -mfix-cortex-m3-ldrd
  51              	@ -mlittle-endian -msched-prolog -mthumb -munaligned-access
  52              	@ -mvectorize-with-neon-quad
  53              	
  54              		.text
  55              	.Ltext0:
  56              		.cfi_sections	.debug_frame
  57              		.global	pxCurrentTCB
ARM GAS  C:\Users\Grzybek\AppData\Local\Temp\cccVQrHj.s 			page 2


  58              		.section	.bss.pxCurrentTCB,"aw",%nobits
  59              		.align	2
  60              		.type	pxCurrentTCB, %object
  61              		.size	pxCurrentTCB, 4
  62              	pxCurrentTCB:
  63 0000 00000000 		.space	4
  64              		.section	.bss.pxReadyTasksLists,"aw",%nobits
  65              		.align	2
  66              		.type	pxReadyTasksLists, %object
  67              		.size	pxReadyTasksLists, 100
  68              	pxReadyTasksLists:
  69 0000 00000000 		.space	100
  69      00000000 
  69      00000000 
  69      00000000 
  69      00000000 
  70              		.section	.bss.xDelayedTaskList1,"aw",%nobits
  71              		.align	2
  72              		.type	xDelayedTaskList1, %object
  73              		.size	xDelayedTaskList1, 20
  74              	xDelayedTaskList1:
  75 0000 00000000 		.space	20
  75      00000000 
  75      00000000 
  75      00000000 
  75      00000000 
  76              		.section	.bss.xDelayedTaskList2,"aw",%nobits
  77              		.align	2
  78              		.type	xDelayedTaskList2, %object
  79              		.size	xDelayedTaskList2, 20
  80              	xDelayedTaskList2:
  81 0000 00000000 		.space	20
  81      00000000 
  81      00000000 
  81      00000000 
  81      00000000 
  82              		.section	.bss.pxDelayedTaskList,"aw",%nobits
  83              		.align	2
  84              		.type	pxDelayedTaskList, %object
  85              		.size	pxDelayedTaskList, 4
  86              	pxDelayedTaskList:
  87 0000 00000000 		.space	4
  88              		.section	.bss.pxOverflowDelayedTaskList,"aw",%nobits
  89              		.align	2
  90              		.type	pxOverflowDelayedTaskList, %object
  91              		.size	pxOverflowDelayedTaskList, 4
  92              	pxOverflowDelayedTaskList:
  93 0000 00000000 		.space	4
  94              		.section	.bss.xPendingReadyList,"aw",%nobits
  95              		.align	2
  96              		.type	xPendingReadyList, %object
  97              		.size	xPendingReadyList, 20
  98              	xPendingReadyList:
  99 0000 00000000 		.space	20
  99      00000000 
  99      00000000 
  99      00000000 
ARM GAS  C:\Users\Grzybek\AppData\Local\Temp\cccVQrHj.s 			page 3


  99      00000000 
 100              		.section	.bss.xTasksWaitingTermination,"aw",%nobits
 101              		.align	2
 102              		.type	xTasksWaitingTermination, %object
 103              		.size	xTasksWaitingTermination, 20
 104              	xTasksWaitingTermination:
 105 0000 00000000 		.space	20
 105      00000000 
 105      00000000 
 105      00000000 
 105      00000000 
 106              		.section	.bss.uxTasksDeleted,"aw",%nobits
 107              		.align	2
 108              		.type	uxTasksDeleted, %object
 109              		.size	uxTasksDeleted, 4
 110              	uxTasksDeleted:
 111 0000 00000000 		.space	4
 112              		.section	.bss.xSuspendedTaskList,"aw",%nobits
 113              		.align	2
 114              		.type	xSuspendedTaskList, %object
 115              		.size	xSuspendedTaskList, 20
 116              	xSuspendedTaskList:
 117 0000 00000000 		.space	20
 117      00000000 
 117      00000000 
 117      00000000 
 117      00000000 
 118              		.section	.bss.uxCurrentNumberOfTasks,"aw",%nobits
 119              		.align	2
 120              		.type	uxCurrentNumberOfTasks, %object
 121              		.size	uxCurrentNumberOfTasks, 4
 122              	uxCurrentNumberOfTasks:
 123 0000 00000000 		.space	4
 124              		.section	.bss.xTickCount,"aw",%nobits
 125              		.align	2
 126              		.type	xTickCount, %object
 127              		.size	xTickCount, 4
 128              	xTickCount:
 129 0000 00000000 		.space	4
 130              		.section	.bss.uxTopUsedPriority,"aw",%nobits
 131              		.align	2
 132              		.type	uxTopUsedPriority, %object
 133              		.size	uxTopUsedPriority, 4
 134              	uxTopUsedPriority:
 135 0000 00000000 		.space	4
 136              		.section	.bss.uxTopReadyPriority,"aw",%nobits
 137              		.align	2
 138              		.type	uxTopReadyPriority, %object
 139              		.size	uxTopReadyPriority, 4
 140              	uxTopReadyPriority:
 141 0000 00000000 		.space	4
 142              		.section	.bss.xSchedulerRunning,"aw",%nobits
 143              		.align	2
 144              		.type	xSchedulerRunning, %object
 145              		.size	xSchedulerRunning, 4
 146              	xSchedulerRunning:
 147 0000 00000000 		.space	4
ARM GAS  C:\Users\Grzybek\AppData\Local\Temp\cccVQrHj.s 			page 4


 148              		.section	.bss.uxSchedulerSuspended,"aw",%nobits
 149              		.align	2
 150              		.type	uxSchedulerSuspended, %object
 151              		.size	uxSchedulerSuspended, 4
 152              	uxSchedulerSuspended:
 153 0000 00000000 		.space	4
 154              		.section	.bss.uxMissedTicks,"aw",%nobits
 155              		.align	2
 156              		.type	uxMissedTicks, %object
 157              		.size	uxMissedTicks, 4
 158              	uxMissedTicks:
 159 0000 00000000 		.space	4
 160              		.section	.bss.xMissedYield,"aw",%nobits
 161              		.align	2
 162              		.type	xMissedYield, %object
 163              		.size	xMissedYield, 4
 164              	xMissedYield:
 165 0000 00000000 		.space	4
 166              		.section	.bss.xNumOfOverflows,"aw",%nobits
 167              		.align	2
 168              		.type	xNumOfOverflows, %object
 169              		.size	xNumOfOverflows, 4
 170              	xNumOfOverflows:
 171 0000 00000000 		.space	4
 172              		.section	.bss.uxTaskNumber,"aw",%nobits
 173              		.align	2
 174              		.type	uxTaskNumber, %object
 175              		.size	uxTaskNumber, 4
 176              	uxTaskNumber:
 177 0000 00000000 		.space	4
 178              		.section	.data.xNextTaskUnblockTime,"aw",%progbits
 179              		.align	2
 180              		.type	xNextTaskUnblockTime, %object
 181              		.size	xNextTaskUnblockTime, 4
 182              	xNextTaskUnblockTime:
 183 0000 FFFFFFFF 		.word	-1
 184              		.section	.text.xTaskGenericCreate,"ax",%progbits
 185              		.align	2
 186              		.global	xTaskGenericCreate
 187              		.thumb
 188              		.thumb_func
 189              		.type	xTaskGenericCreate, %function
 190              	xTaskGenericCreate:
 191              	.LFB0:
 192              		.file 1 "Source/tasks.c"
   1:Source/tasks.c **** /*
   2:Source/tasks.c ****     FreeRTOS V7.3.0 - Copyright (C) 2012 Real Time Engineers Ltd.
   3:Source/tasks.c **** 
   4:Source/tasks.c ****     FEATURES AND PORTS ARE ADDED TO FREERTOS ALL THE TIME.  PLEASE VISIT
   5:Source/tasks.c ****     http://www.FreeRTOS.org TO ENSURE YOU ARE USING THE LATEST VERSION.
   6:Source/tasks.c **** 
   7:Source/tasks.c ****     ***************************************************************************
   8:Source/tasks.c ****      *                                                                       *
   9:Source/tasks.c ****      *    FreeRTOS tutorial books are available in pdf and paperback.        *
  10:Source/tasks.c ****      *    Complete, revised, and edited pdf reference manuals are also       *
  11:Source/tasks.c ****      *    available.                                                         *
  12:Source/tasks.c ****      *                                                                       *
ARM GAS  C:\Users\Grzybek\AppData\Local\Temp\cccVQrHj.s 			page 5


  13:Source/tasks.c ****      *    Purchasing FreeRTOS documentation will not only help you, by       *
  14:Source/tasks.c ****      *    ensuring you get running as quickly as possible and with an        *
  15:Source/tasks.c ****      *    in-depth knowledge of how to use FreeRTOS, it will also help       *
  16:Source/tasks.c ****      *    the FreeRTOS project to continue with its mission of providing     *
  17:Source/tasks.c ****      *    professional grade, cross platform, de facto standard solutions    *
  18:Source/tasks.c ****      *    for microcontrollers - completely free of charge!                  *
  19:Source/tasks.c ****      *                                                                       *
  20:Source/tasks.c ****      *    >>> See http://www.FreeRTOS.org/Documentation for details. <<<     *
  21:Source/tasks.c ****      *                                                                       *
  22:Source/tasks.c ****      *    Thank you for using FreeRTOS, and thank you for your support!      *
  23:Source/tasks.c ****      *                                                                       *
  24:Source/tasks.c ****     ***************************************************************************
  25:Source/tasks.c **** 
  26:Source/tasks.c **** 
  27:Source/tasks.c ****     This file is part of the FreeRTOS distribution.
  28:Source/tasks.c **** 
  29:Source/tasks.c ****     FreeRTOS is free software; you can redistribute it and/or modify it under
  30:Source/tasks.c ****     the terms of the GNU General Public License (version 2) as published by the
  31:Source/tasks.c ****     Free Software Foundation AND MODIFIED BY the FreeRTOS exception.
  32:Source/tasks.c ****     >>>NOTE<<< The modification to the GPL is included to allow you to
  33:Source/tasks.c ****     distribute a combined work that includes FreeRTOS without being obliged to
  34:Source/tasks.c ****     provide the source code for proprietary components outside of the FreeRTOS
  35:Source/tasks.c ****     kernel.  FreeRTOS is distributed in the hope that it will be useful, but
  36:Source/tasks.c ****     WITHOUT ANY WARRANTY; without even the implied warranty of MERCHANTABILITY
  37:Source/tasks.c ****     or FITNESS FOR A PARTICULAR PURPOSE.  See the GNU General Public License for
  38:Source/tasks.c ****     more details. You should have received a copy of the GNU General Public
  39:Source/tasks.c ****     License and the FreeRTOS license exception along with FreeRTOS; if not it
  40:Source/tasks.c ****     can be viewed here: http://www.freertos.org/a00114.html and also obtained
  41:Source/tasks.c ****     by writing to Richard Barry, contact details for whom are available on the
  42:Source/tasks.c ****     FreeRTOS WEB site.
  43:Source/tasks.c **** 
  44:Source/tasks.c ****     1 tab == 4 spaces!
  45:Source/tasks.c **** 
  46:Source/tasks.c ****     ***************************************************************************
  47:Source/tasks.c ****      *                                                                       *
  48:Source/tasks.c ****      *    Having a problem?  Start by reading the FAQ "My application does   *
  49:Source/tasks.c ****      *    not run, what could be wrong?"                                     *
  50:Source/tasks.c ****      *                                                                       *
  51:Source/tasks.c ****      *    http://www.FreeRTOS.org/FAQHelp.html                               *
  52:Source/tasks.c ****      *                                                                       *
  53:Source/tasks.c ****     ***************************************************************************
  54:Source/tasks.c **** 
  55:Source/tasks.c **** 
  56:Source/tasks.c ****     http://www.FreeRTOS.org - Documentation, training, latest versions, license
  57:Source/tasks.c ****     and contact details.
  58:Source/tasks.c **** 
  59:Source/tasks.c ****     http://www.FreeRTOS.org/plus - A selection of FreeRTOS ecosystem products,
  60:Source/tasks.c ****     including FreeRTOS+Trace - an indispensable productivity tool.
  61:Source/tasks.c **** 
  62:Source/tasks.c ****     Real Time Engineers ltd license FreeRTOS to High Integrity Systems, who sell
  63:Source/tasks.c ****     the code with commercial support, indemnification, and middleware, under
  64:Source/tasks.c ****     the OpenRTOS brand: http://www.OpenRTOS.com.  High Integrity Systems also
  65:Source/tasks.c ****     provide a safety engineered and independently SIL3 certified version under
  66:Source/tasks.c ****     the SafeRTOS brand: http://www.SafeRTOS.com.
  67:Source/tasks.c **** */
  68:Source/tasks.c **** 
  69:Source/tasks.c **** /* Standard includes. */
ARM GAS  C:\Users\Grzybek\AppData\Local\Temp\cccVQrHj.s 			page 6


  70:Source/tasks.c **** #include <stdio.h>
  71:Source/tasks.c **** #include <stdlib.h>
  72:Source/tasks.c **** #include <string.h>
  73:Source/tasks.c **** 
  74:Source/tasks.c **** /* Defining MPU_WRAPPERS_INCLUDED_FROM_API_FILE prevents task.h from redefining
  75:Source/tasks.c **** all the API functions to use the MPU wrappers.  That should only be done when
  76:Source/tasks.c **** task.h is included from an application file. */
  77:Source/tasks.c **** #define MPU_WRAPPERS_INCLUDED_FROM_API_FILE
  78:Source/tasks.c **** 
  79:Source/tasks.c **** /* FreeRTOS includes. */
  80:Source/tasks.c **** #include "FreeRTOS.h"
  81:Source/tasks.c **** #include "task.h"
  82:Source/tasks.c **** #include "timers.h"
  83:Source/tasks.c **** #include "StackMacros.h"
  84:Source/tasks.c **** 
  85:Source/tasks.c **** #undef MPU_WRAPPERS_INCLUDED_FROM_API_FILE
  86:Source/tasks.c **** 
  87:Source/tasks.c **** /*
  88:Source/tasks.c ****  * Defines the size, in words, of the stack allocated to the idle task.
  89:Source/tasks.c ****  */
  90:Source/tasks.c **** #define tskIDLE_STACK_SIZE	configMINIMAL_STACK_SIZE
  91:Source/tasks.c **** 
  92:Source/tasks.c **** /*
  93:Source/tasks.c ****  * Task control block.  A task control block (TCB) is allocated for each task,
  94:Source/tasks.c ****  * and stores task state information, including a pointer to the task's context
  95:Source/tasks.c ****  * (the task's run time environment, including register values)
  96:Source/tasks.c ****  */
  97:Source/tasks.c **** typedef struct tskTaskControlBlock
  98:Source/tasks.c **** {
  99:Source/tasks.c **** 	volatile portSTACK_TYPE	*pxTopOfStack;		/*< Points to the location of the last item placed on the 
 100:Source/tasks.c **** 
 101:Source/tasks.c **** 	#if ( portUSING_MPU_WRAPPERS == 1 )
 102:Source/tasks.c **** 		xMPU_SETTINGS xMPUSettings;				/*< The MPU settings are defined as part of the port layer.  THIS 
 103:Source/tasks.c **** 	#endif
 104:Source/tasks.c **** 
 105:Source/tasks.c **** 	xListItem				xGenericListItem;		/*< The list that the state list item of a task is reference from 
 106:Source/tasks.c **** 	xListItem				xEventListItem;		/*< Used to reference a task from an event list. */
 107:Source/tasks.c **** 	unsigned portBASE_TYPE	uxPriority;			/*< The priority of the task.  0 is the lowest priority. */
 108:Source/tasks.c **** 	portSTACK_TYPE			*pxStack;			/*< Points to the start of the stack. */
 109:Source/tasks.c **** 	signed char				pcTaskName[ configMAX_TASK_NAME_LEN ];/*< Descriptive name given to the task when c
 110:Source/tasks.c **** 
 111:Source/tasks.c **** 	#if ( portSTACK_GROWTH > 0 )
 112:Source/tasks.c **** 		portSTACK_TYPE *pxEndOfStack;			/*< Points to the end of the stack on architectures where the sta
 113:Source/tasks.c **** 	#endif
 114:Source/tasks.c **** 
 115:Source/tasks.c **** 	#if ( portCRITICAL_NESTING_IN_TCB == 1 )
 116:Source/tasks.c **** 		unsigned portBASE_TYPE uxCriticalNesting; /*< Holds the critical section nesting depth for ports 
 117:Source/tasks.c **** 	#endif
 118:Source/tasks.c **** 
 119:Source/tasks.c **** 	#if ( configUSE_TRACE_FACILITY == 1 )
 120:Source/tasks.c **** 		unsigned portBASE_TYPE	uxTCBNumber;	/*< Stores a number that increments each time a TCB is create
 121:Source/tasks.c **** 		unsigned portBASE_TYPE  uxTaskNumber;	/*< Stores a number specifically for use by third party tra
 122:Source/tasks.c **** 	#endif
 123:Source/tasks.c **** 
 124:Source/tasks.c **** 	#if ( configUSE_MUTEXES == 1 )
 125:Source/tasks.c **** 		unsigned portBASE_TYPE uxBasePriority;	/*< The priority last assigned to the task - used by the p
 126:Source/tasks.c **** 	#endif
ARM GAS  C:\Users\Grzybek\AppData\Local\Temp\cccVQrHj.s 			page 7


 127:Source/tasks.c **** 
 128:Source/tasks.c **** 	#if ( configUSE_APPLICATION_TASK_TAG == 1 )
 129:Source/tasks.c **** 		pdTASK_HOOK_CODE pxTaskTag;
 130:Source/tasks.c **** 	#endif
 131:Source/tasks.c **** 
 132:Source/tasks.c **** 	#if ( configGENERATE_RUN_TIME_STATS == 1 )
 133:Source/tasks.c **** 		unsigned long ulRunTimeCounter;			/*< Stores the amount of time the task has spent in the Running
 134:Source/tasks.c **** 	#endif
 135:Source/tasks.c **** 
 136:Source/tasks.c **** } tskTCB;
 137:Source/tasks.c **** 
 138:Source/tasks.c **** 
 139:Source/tasks.c **** /*
 140:Source/tasks.c ****  * Some kernel aware debuggers require the data the debugger needs access to to
 141:Source/tasks.c ****  * be global, rather than file scope.
 142:Source/tasks.c ****  */
 143:Source/tasks.c **** #ifdef portREMOVE_STATIC_QUALIFIER
 144:Source/tasks.c **** 	#define static
 145:Source/tasks.c **** #endif
 146:Source/tasks.c **** 
 147:Source/tasks.c **** /*lint -e956 */
 148:Source/tasks.c **** PRIVILEGED_DATA tskTCB * volatile pxCurrentTCB = NULL;
 149:Source/tasks.c **** 
 150:Source/tasks.c **** /* Lists for ready and blocked tasks. --------------------*/
 151:Source/tasks.c **** PRIVILEGED_DATA static xList pxReadyTasksLists[ configMAX_PRIORITIES ];	/*< Prioritised ready tasks
 152:Source/tasks.c **** PRIVILEGED_DATA static xList xDelayedTaskList1;							/*< Delayed tasks. */
 153:Source/tasks.c **** PRIVILEGED_DATA static xList xDelayedTaskList2;							/*< Delayed tasks (two lists are used - one f
 154:Source/tasks.c **** PRIVILEGED_DATA static xList * volatile pxDelayedTaskList ;				/*< Points to the delayed task list 
 155:Source/tasks.c **** PRIVILEGED_DATA static xList * volatile pxOverflowDelayedTaskList;		/*< Points to the delayed task 
 156:Source/tasks.c **** PRIVILEGED_DATA static xList xPendingReadyList;							/*< Tasks that have been readied while the sc
 157:Source/tasks.c **** 
 158:Source/tasks.c **** #if ( INCLUDE_vTaskDelete == 1 )
 159:Source/tasks.c **** 
 160:Source/tasks.c **** 	PRIVILEGED_DATA static xList xTasksWaitingTermination;				/*< Tasks that have been deleted - but t
 161:Source/tasks.c **** 	PRIVILEGED_DATA static volatile unsigned portBASE_TYPE uxTasksDeleted = ( unsigned portBASE_TYPE )
 162:Source/tasks.c **** 
 163:Source/tasks.c **** #endif
 164:Source/tasks.c **** 
 165:Source/tasks.c **** #if ( INCLUDE_vTaskSuspend == 1 )
 166:Source/tasks.c **** 
 167:Source/tasks.c **** 	PRIVILEGED_DATA static xList xSuspendedTaskList;					/*< Tasks that are currently suspended. */
 168:Source/tasks.c **** 
 169:Source/tasks.c **** #endif
 170:Source/tasks.c **** 
 171:Source/tasks.c **** #if ( INCLUDE_xTaskGetIdleTaskHandle == 1 )
 172:Source/tasks.c **** 
 173:Source/tasks.c **** 	PRIVILEGED_DATA static xTaskHandle xIdleTaskHandle = NULL;			/*< Holds the handle of the idle task
 174:Source/tasks.c **** 
 175:Source/tasks.c **** #endif
 176:Source/tasks.c **** 
 177:Source/tasks.c **** /* File private variables. --------------------------------*/
 178:Source/tasks.c **** PRIVILEGED_DATA static volatile unsigned portBASE_TYPE uxCurrentNumberOfTasks 	= ( unsigned portBAS
 179:Source/tasks.c **** PRIVILEGED_DATA static volatile portTickType xTickCount 						= ( portTickType ) 0U;
 180:Source/tasks.c **** PRIVILEGED_DATA static unsigned portBASE_TYPE uxTopUsedPriority	 				= tskIDLE_PRIORITY;
 181:Source/tasks.c **** PRIVILEGED_DATA static volatile unsigned portBASE_TYPE uxTopReadyPriority 		= tskIDLE_PRIORITY;
 182:Source/tasks.c **** PRIVILEGED_DATA static volatile signed portBASE_TYPE xSchedulerRunning 			= pdFALSE;
 183:Source/tasks.c **** PRIVILEGED_DATA static volatile unsigned portBASE_TYPE uxSchedulerSuspended	 	= ( unsigned portBASE
ARM GAS  C:\Users\Grzybek\AppData\Local\Temp\cccVQrHj.s 			page 8


 184:Source/tasks.c **** PRIVILEGED_DATA static volatile unsigned portBASE_TYPE uxMissedTicks 			= ( unsigned portBASE_TYPE 
 185:Source/tasks.c **** PRIVILEGED_DATA static volatile portBASE_TYPE xMissedYield 						= ( portBASE_TYPE ) pdFALSE;
 186:Source/tasks.c **** PRIVILEGED_DATA static volatile portBASE_TYPE xNumOfOverflows 					= ( portBASE_TYPE ) 0;
 187:Source/tasks.c **** PRIVILEGED_DATA static unsigned portBASE_TYPE uxTaskNumber 						= ( unsigned portBASE_TYPE ) 0U;
 188:Source/tasks.c **** PRIVILEGED_DATA static volatile portTickType xNextTaskUnblockTime				= ( portTickType ) portMAX_DEL
 189:Source/tasks.c **** 
 190:Source/tasks.c **** #if ( configGENERATE_RUN_TIME_STATS == 1 )
 191:Source/tasks.c **** 
 192:Source/tasks.c **** 	PRIVILEGED_DATA static char pcStatsString[ 50 ] ;
 193:Source/tasks.c **** 	PRIVILEGED_DATA static unsigned long ulTaskSwitchedInTime = 0UL;	/*< Holds the value of a timer/co
 194:Source/tasks.c **** 	static void prvGenerateRunTimeStatsForTasksInList( const signed char *pcWriteBuffer, xList *pxList
 195:Source/tasks.c **** 
 196:Source/tasks.c **** #endif
 197:Source/tasks.c **** 
 198:Source/tasks.c **** /* Debugging and trace facilities private variables and macros. ------------*/
 199:Source/tasks.c **** 
 200:Source/tasks.c **** /*
 201:Source/tasks.c ****  * The value used to fill the stack of a task when the task is created.  This
 202:Source/tasks.c ****  * is used purely for checking the high water mark for tasks.
 203:Source/tasks.c ****  */
 204:Source/tasks.c **** #define tskSTACK_FILL_BYTE	( 0xa5U )
 205:Source/tasks.c **** 
 206:Source/tasks.c **** /*
 207:Source/tasks.c ****  * Macros used by vListTask to indicate which state a task is in.
 208:Source/tasks.c ****  */
 209:Source/tasks.c **** #define tskBLOCKED_CHAR		( ( signed char ) 'B' )
 210:Source/tasks.c **** #define tskREADY_CHAR		( ( signed char ) 'R' )
 211:Source/tasks.c **** #define tskDELETED_CHAR		( ( signed char ) 'D' )
 212:Source/tasks.c **** #define tskSUSPENDED_CHAR	( ( signed char ) 'S' )
 213:Source/tasks.c **** 
 214:Source/tasks.c **** /*-----------------------------------------------------------*/
 215:Source/tasks.c **** 
 216:Source/tasks.c **** #if configUSE_PORT_OPTIMISED_TASK_SELECTION == 0
 217:Source/tasks.c **** 
 218:Source/tasks.c **** 	/* If configUSE_PORT_OPTIMISED_TASK_SELECTION is 0 then task selection is
 219:Source/tasks.c **** 	performed in a generic way that is not optimised to any particular
 220:Source/tasks.c **** 	microcontroller architecture. */
 221:Source/tasks.c **** 
 222:Source/tasks.c **** 	/* uxTopReadyPriority holds the priority of the highest priority ready
 223:Source/tasks.c **** 	state task. */
 224:Source/tasks.c **** 	#define taskRECORD_READY_PRIORITY( uxPriority )																		\
 225:Source/tasks.c **** 	{																													\
 226:Source/tasks.c **** 		if( ( uxPriority ) > uxTopReadyPriority )																		\
 227:Source/tasks.c **** 		{																												\
 228:Source/tasks.c **** 			uxTopReadyPriority = ( uxPriority );																		\
 229:Source/tasks.c **** 		}																												\
 230:Source/tasks.c **** 	} /* taskRECORD_READY_PRIORITY */
 231:Source/tasks.c **** 
 232:Source/tasks.c **** 	/*-----------------------------------------------------------*/
 233:Source/tasks.c **** 
 234:Source/tasks.c **** 	#define taskSELECT_HIGHEST_PRIORITY_TASK()																			\
 235:Source/tasks.c **** 	{																													\
 236:Source/tasks.c **** 		/* Find the highest priority queue that contains ready tasks. */												\
 237:Source/tasks.c **** 		while( listLIST_IS_EMPTY( &( pxReadyTasksLists[ uxTopReadyPriority ] ) ) )										\
 238:Source/tasks.c **** 		{																												\
 239:Source/tasks.c **** 			configASSERT( uxTopReadyPriority );																			\
 240:Source/tasks.c **** 			--uxTopReadyPriority;																						\
ARM GAS  C:\Users\Grzybek\AppData\Local\Temp\cccVQrHj.s 			page 9


 241:Source/tasks.c **** 		}																												\
 242:Source/tasks.c **** 																														\
 243:Source/tasks.c **** 		/* listGET_OWNER_OF_NEXT_ENTRY indexes through the list, so the tasks of										\
 244:Source/tasks.c **** 		the	same priority get an equal share of the processor time. */													\
 245:Source/tasks.c **** 		listGET_OWNER_OF_NEXT_ENTRY( pxCurrentTCB, &( pxReadyTasksLists[ uxTopReadyPriority ] ) );						\
 246:Source/tasks.c **** 	} /* taskSELECT_HIGHEST_PRIORITY_TASK */
 247:Source/tasks.c **** 
 248:Source/tasks.c **** 	/*-----------------------------------------------------------*/
 249:Source/tasks.c **** 
 250:Source/tasks.c **** 	/* Define away taskRESET_READY_PRIORITY() and portRESET_READY_PRIORITY() as
 251:Source/tasks.c **** 	they are only required when a port optimised method of task selection is
 252:Source/tasks.c **** 	being used. */
 253:Source/tasks.c **** 	#define taskRESET_READY_PRIORITY( uxPriority )
 254:Source/tasks.c **** 	#define portRESET_READY_PRIORITY( uxPriority, uxTopReadyPriority )
 255:Source/tasks.c **** 
 256:Source/tasks.c **** #else /* configUSE_PORT_OPTIMISED_TASK_SELECTION */
 257:Source/tasks.c **** 
 258:Source/tasks.c **** 	/* If configUSE_PORT_OPTIMISED_TASK_SELECTION is 1 then task selection is
 259:Source/tasks.c **** 	performed in a way that is tailored to the particular microcontroller
 260:Source/tasks.c **** 	architecture being used. */
 261:Source/tasks.c **** 
 262:Source/tasks.c **** 	/* A port optimised version is provided.  Call the port defined macros. */
 263:Source/tasks.c **** 	#define taskRECORD_READY_PRIORITY( uxPriority )	portRECORD_READY_PRIORITY( uxPriority, uxTopReadyP
 264:Source/tasks.c **** 
 265:Source/tasks.c **** 	/*-----------------------------------------------------------*/
 266:Source/tasks.c **** 
 267:Source/tasks.c **** 	#define taskSELECT_HIGHEST_PRIORITY_TASK()														\
 268:Source/tasks.c **** 	{																								\
 269:Source/tasks.c **** 	unsigned portBASE_TYPE uxTopPriority;															\
 270:Source/tasks.c **** 																									\
 271:Source/tasks.c **** 		/* Find the highest priority queue that contains ready tasks. */							\
 272:Source/tasks.c **** 		portGET_HIGHEST_PRIORITY( uxTopPriority, uxTopReadyPriority );								\
 273:Source/tasks.c **** 		configASSERT( listCURRENT_LIST_LENGTH( &( pxReadyTasksLists[ uxTopPriority ] ) ) > 0 );		\
 274:Source/tasks.c **** 		listGET_OWNER_OF_NEXT_ENTRY( pxCurrentTCB, &( pxReadyTasksLists[ uxTopPriority ] ) );		\
 275:Source/tasks.c **** 	} /* taskSELECT_HIGHEST_PRIORITY_TASK() */
 276:Source/tasks.c **** 
 277:Source/tasks.c **** 	/*-----------------------------------------------------------*/
 278:Source/tasks.c **** 
 279:Source/tasks.c **** 	/* A port optimised version is provided, call it only if the TCB being reset
 280:Source/tasks.c **** 	is being referenced from a ready list.  If it is referenced from a delayed
 281:Source/tasks.c **** 	or suspended list then it won't be in a ready list. */
 282:Source/tasks.c **** 	#define taskRESET_READY_PRIORITY( uxPriority )													\
 283:Source/tasks.c **** 	{																								\
 284:Source/tasks.c **** 		if( listCURRENT_LIST_LENGTH( &( pxReadyTasksLists[ ( uxPriority ) ] ) ) == 0 )				\
 285:Source/tasks.c **** 		{																							\
 286:Source/tasks.c **** 			portRESET_READY_PRIORITY( ( uxPriority ), ( uxTopReadyPriority ) );						\
 287:Source/tasks.c **** 		}																							\
 288:Source/tasks.c **** 	}
 289:Source/tasks.c **** 
 290:Source/tasks.c **** #endif /* configUSE_PORT_OPTIMISED_TASK_SELECTION */
 291:Source/tasks.c **** 
 292:Source/tasks.c **** /*
 293:Source/tasks.c ****  * Place the task represented by pxTCB into the appropriate ready queue for
 294:Source/tasks.c ****  * the task.  It is inserted at the end of the list.  One quirk of this is
 295:Source/tasks.c ****  * that if the task being inserted is at the same priority as the currently
 296:Source/tasks.c ****  * executing task, then it will only be rescheduled after the currently
 297:Source/tasks.c ****  * executing task has been rescheduled.
ARM GAS  C:\Users\Grzybek\AppData\Local\Temp\cccVQrHj.s 			page 10


 298:Source/tasks.c ****  */
 299:Source/tasks.c **** #define prvAddTaskToReadyQueue( pxTCB )																				\
 300:Source/tasks.c **** 	traceMOVED_TASK_TO_READY_STATE( pxTCB )																			\
 301:Source/tasks.c **** 	taskRECORD_READY_PRIORITY( ( pxTCB )->uxPriority );																\
 302:Source/tasks.c **** 	vListInsertEnd( ( xList * ) &( pxReadyTasksLists[ ( pxTCB )->uxPriority ] ), &( ( pxTCB )->xGeneri
 303:Source/tasks.c **** /*-----------------------------------------------------------*/
 304:Source/tasks.c **** 
 305:Source/tasks.c **** /*
 306:Source/tasks.c ****  * Macro that looks at the list of tasks that are currently delayed to see if
 307:Source/tasks.c ****  * any require waking.
 308:Source/tasks.c ****  *
 309:Source/tasks.c ****  * Tasks are stored in the queue in the order of their wake time - meaning
 310:Source/tasks.c ****  * once one tasks has been found whose timer has not expired we need not look
 311:Source/tasks.c ****  * any further down the list.
 312:Source/tasks.c ****  */
 313:Source/tasks.c **** #define prvCheckDelayedTasks()															\
 314:Source/tasks.c **** {																						\
 315:Source/tasks.c **** portTickType xItemValue;																\
 316:Source/tasks.c **** 																						\
 317:Source/tasks.c **** 	/* Is the tick count greater than or equal to the wake time of the first			\
 318:Source/tasks.c **** 	task referenced from the delayed tasks list? */										\
 319:Source/tasks.c **** 	if( xTickCount >= xNextTaskUnblockTime )											\
 320:Source/tasks.c **** 	{																					\
 321:Source/tasks.c **** 		for( ;; )																		\
 322:Source/tasks.c **** 		{																				\
 323:Source/tasks.c **** 			if( listLIST_IS_EMPTY( pxDelayedTaskList ) != pdFALSE )						\
 324:Source/tasks.c **** 			{																			\
 325:Source/tasks.c **** 				/* The delayed list is empty.  Set xNextTaskUnblockTime to the			\
 326:Source/tasks.c **** 				maximum possible value so it is extremely unlikely that the				\
 327:Source/tasks.c **** 				if( xTickCount >= xNextTaskUnblockTime ) test will pass next			\
 328:Source/tasks.c **** 				time through. */														\
 329:Source/tasks.c **** 				xNextTaskUnblockTime = portMAX_DELAY;									\
 330:Source/tasks.c **** 				break;																	\
 331:Source/tasks.c **** 			}																			\
 332:Source/tasks.c **** 			else																		\
 333:Source/tasks.c **** 			{																			\
 334:Source/tasks.c **** 				/* The delayed list is not empty, get the value of the item at			\
 335:Source/tasks.c **** 				the head of the delayed list.  This is the time at which the			\
 336:Source/tasks.c **** 				task at the head of the delayed list should be removed from				\
 337:Source/tasks.c **** 				the Blocked state. */													\
 338:Source/tasks.c **** 				pxTCB = ( tskTCB * ) listGET_OWNER_OF_HEAD_ENTRY( pxDelayedTaskList );	\
 339:Source/tasks.c **** 				xItemValue = listGET_LIST_ITEM_VALUE( &( pxTCB->xGenericListItem ) );	\
 340:Source/tasks.c **** 																						\
 341:Source/tasks.c **** 				if( xTickCount < xItemValue )											\
 342:Source/tasks.c **** 				{																		\
 343:Source/tasks.c **** 					/* It is not time to unblock this item yet, but the item			\
 344:Source/tasks.c **** 					value is the time at which the task at the head of the				\
 345:Source/tasks.c **** 					blocked list should be removed from the Blocked state -				\
 346:Source/tasks.c **** 					so record the item value in xNextTaskUnblockTime. */				\
 347:Source/tasks.c **** 					xNextTaskUnblockTime = xItemValue;									\
 348:Source/tasks.c **** 					break;																\
 349:Source/tasks.c **** 				}																		\
 350:Source/tasks.c **** 																						\
 351:Source/tasks.c **** 				/* It is time to remove the item from the Blocked state. */				\
 352:Source/tasks.c **** 				uxListRemove( &( pxTCB->xGenericListItem ) );							\
 353:Source/tasks.c **** 																						\
 354:Source/tasks.c **** 				/* Is the task waiting on an event also? */								\
ARM GAS  C:\Users\Grzybek\AppData\Local\Temp\cccVQrHj.s 			page 11


 355:Source/tasks.c **** 				if( pxTCB->xEventListItem.pvContainer != NULL )							\
 356:Source/tasks.c **** 				{																		\
 357:Source/tasks.c **** 					uxListRemove( &( pxTCB->xEventListItem ) );							\
 358:Source/tasks.c **** 				}																		\
 359:Source/tasks.c **** 				prvAddTaskToReadyQueue( pxTCB );										\
 360:Source/tasks.c **** 			}																			\
 361:Source/tasks.c **** 		}																				\
 362:Source/tasks.c **** 	}																					\
 363:Source/tasks.c **** }
 364:Source/tasks.c **** /*-----------------------------------------------------------*/
 365:Source/tasks.c **** 
 366:Source/tasks.c **** /*
 367:Source/tasks.c ****  * Several functions take an xTaskHandle parameter that can optionally be NULL,
 368:Source/tasks.c ****  * where NULL is used to indicate that the handle of the currently executing
 369:Source/tasks.c ****  * task should be used in place of the parameter.  This macro simply checks to
 370:Source/tasks.c ****  * see if the parameter is NULL and returns a pointer to the appropriate TCB.
 371:Source/tasks.c ****  */
 372:Source/tasks.c **** #define prvGetTCBFromHandle( pxHandle ) ( ( ( pxHandle ) == NULL ) ? ( tskTCB * ) pxCurrentTCB : ( 
 373:Source/tasks.c **** 
 374:Source/tasks.c **** /* Callback function prototypes. --------------------------*/
 375:Source/tasks.c **** extern void vApplicationStackOverflowHook( xTaskHandle pxTask, signed char *pcTaskName );
 376:Source/tasks.c **** extern void vApplicationTickHook( void );
 377:Source/tasks.c **** 
 378:Source/tasks.c **** /* File private functions. --------------------------------*/
 379:Source/tasks.c **** 
 380:Source/tasks.c **** /*
 381:Source/tasks.c ****  * Utility to ready a TCB for a given task.  Mainly just copies the parameters
 382:Source/tasks.c ****  * into the TCB structure.
 383:Source/tasks.c ****  */
 384:Source/tasks.c **** static void prvInitialiseTCBVariables( tskTCB *pxTCB, const signed char * const pcName, unsigned po
 385:Source/tasks.c **** 
 386:Source/tasks.c **** /*
 387:Source/tasks.c ****  * Utility to ready all the lists used by the scheduler.  This is called
 388:Source/tasks.c ****  * automatically upon the creation of the first task.
 389:Source/tasks.c ****  */
 390:Source/tasks.c **** static void prvInitialiseTaskLists( void ) PRIVILEGED_FUNCTION;
 391:Source/tasks.c **** 
 392:Source/tasks.c **** /*
 393:Source/tasks.c ****  * The idle task, which as all tasks is implemented as a never ending loop.
 394:Source/tasks.c ****  * The idle task is automatically created and added to the ready lists upon
 395:Source/tasks.c ****  * creation of the first user task.
 396:Source/tasks.c ****  *
 397:Source/tasks.c ****  * The portTASK_FUNCTION_PROTO() macro is used to allow port/compiler specific
 398:Source/tasks.c ****  * language extensions.  The equivalent prototype for this function is:
 399:Source/tasks.c ****  *
 400:Source/tasks.c ****  * void prvIdleTask( void *pvParameters );
 401:Source/tasks.c ****  *
 402:Source/tasks.c ****  */
 403:Source/tasks.c **** static portTASK_FUNCTION_PROTO( prvIdleTask, pvParameters );
 404:Source/tasks.c **** 
 405:Source/tasks.c **** /*
 406:Source/tasks.c ****  * Utility to free all memory allocated by the scheduler to hold a TCB,
 407:Source/tasks.c ****  * including the stack pointed to by the TCB.
 408:Source/tasks.c ****  *
 409:Source/tasks.c ****  * This does not free memory allocated by the task itself (i.e. memory
 410:Source/tasks.c ****  * allocated by calls to pvPortMalloc from within the tasks application code).
 411:Source/tasks.c ****  */
ARM GAS  C:\Users\Grzybek\AppData\Local\Temp\cccVQrHj.s 			page 12


 412:Source/tasks.c **** #if ( INCLUDE_vTaskDelete == 1 )
 413:Source/tasks.c **** 
 414:Source/tasks.c **** 	static void prvDeleteTCB( tskTCB *pxTCB ) PRIVILEGED_FUNCTION;
 415:Source/tasks.c **** 
 416:Source/tasks.c **** #endif
 417:Source/tasks.c **** 
 418:Source/tasks.c **** /*
 419:Source/tasks.c ****  * Used only by the idle task.  This checks to see if anything has been placed
 420:Source/tasks.c ****  * in the list of tasks waiting to be deleted.  If so the task is cleaned up
 421:Source/tasks.c ****  * and its TCB deleted.
 422:Source/tasks.c ****  */
 423:Source/tasks.c **** static void prvCheckTasksWaitingTermination( void ) PRIVILEGED_FUNCTION;
 424:Source/tasks.c **** 
 425:Source/tasks.c **** /*
 426:Source/tasks.c ****  * The currently executing task is entering the Blocked state.  Add the task to
 427:Source/tasks.c ****  * either the current or the overflow delayed task list.
 428:Source/tasks.c ****  */
 429:Source/tasks.c **** static void prvAddCurrentTaskToDelayedList( portTickType xTimeToWake ) PRIVILEGED_FUNCTION;
 430:Source/tasks.c **** 
 431:Source/tasks.c **** /*
 432:Source/tasks.c ****  * Allocates memory from the heap for a TCB and associated stack.  Checks the
 433:Source/tasks.c ****  * allocation was successful.
 434:Source/tasks.c ****  */
 435:Source/tasks.c **** static tskTCB *prvAllocateTCBAndStack( unsigned short usStackDepth, portSTACK_TYPE *puxStackBuffer 
 436:Source/tasks.c **** 
 437:Source/tasks.c **** /*
 438:Source/tasks.c ****  * Called from vTaskList.  vListTasks details all the tasks currently under
 439:Source/tasks.c ****  * control of the scheduler.  The tasks may be in one of a number of lists.
 440:Source/tasks.c ****  * prvListTaskWithinSingleList accepts a list and details the tasks from
 441:Source/tasks.c ****  * within just that list.
 442:Source/tasks.c ****  *
 443:Source/tasks.c ****  * THIS FUNCTION IS INTENDED FOR DEBUGGING ONLY, AND SHOULD NOT BE CALLED FROM
 444:Source/tasks.c ****  * NORMAL APPLICATION CODE.
 445:Source/tasks.c ****  */
 446:Source/tasks.c **** #if ( configUSE_TRACE_FACILITY == 1 )
 447:Source/tasks.c **** 
 448:Source/tasks.c **** 	static void prvListTaskWithinSingleList( const signed char *pcWriteBuffer, xList *pxList, signed c
 449:Source/tasks.c **** 
 450:Source/tasks.c **** #endif
 451:Source/tasks.c **** 
 452:Source/tasks.c **** /*
 453:Source/tasks.c ****  * When a task is created, the stack of the task is filled with a known value.
 454:Source/tasks.c ****  * This function determines the 'high water mark' of the task stack by
 455:Source/tasks.c ****  * determining how much of the stack remains at the original preset value.
 456:Source/tasks.c ****  */
 457:Source/tasks.c **** #if ( ( configUSE_TRACE_FACILITY == 1 ) || ( INCLUDE_uxTaskGetStackHighWaterMark == 1 ) )
 458:Source/tasks.c **** 
 459:Source/tasks.c **** 	static unsigned short usTaskCheckFreeStackSpace( const unsigned char * pucStackByte ) PRIVILEGED_F
 460:Source/tasks.c **** 
 461:Source/tasks.c **** #endif
 462:Source/tasks.c **** 
 463:Source/tasks.c **** /*
 464:Source/tasks.c ****  * Return the amount of time, in ticks, that will pass before the kernel will
 465:Source/tasks.c ****  * next move a task from the Blocked state to the Running state.
 466:Source/tasks.c ****  *
 467:Source/tasks.c ****  * This conditional compilation should use inequality to 0, not equality to 1.
 468:Source/tasks.c ****  * This is to ensure portSUPPRESS_TICKS_AND_SLEEP() can be called when user
ARM GAS  C:\Users\Grzybek\AppData\Local\Temp\cccVQrHj.s 			page 13


 469:Source/tasks.c ****  * defined low power mode implementations require configUSE_TICKLESS_IDLE to be
 470:Source/tasks.c ****  * set to a value other than 1.
 471:Source/tasks.c ****  */
 472:Source/tasks.c **** #if ( configUSE_TICKLESS_IDLE != 0 )
 473:Source/tasks.c **** 
 474:Source/tasks.c **** 	static portTickType prvGetExpectedIdleTime( void ) PRIVILEGED_FUNCTION;
 475:Source/tasks.c **** 
 476:Source/tasks.c **** #endif
 477:Source/tasks.c **** 
 478:Source/tasks.c **** /*lint +e956 */
 479:Source/tasks.c **** 
 480:Source/tasks.c **** 
 481:Source/tasks.c **** 
 482:Source/tasks.c **** /*-----------------------------------------------------------
 483:Source/tasks.c ****  * TASK CREATION API documented in task.h
 484:Source/tasks.c ****  *----------------------------------------------------------*/
 485:Source/tasks.c **** 
 486:Source/tasks.c **** signed portBASE_TYPE xTaskGenericCreate( pdTASK_CODE pxTaskCode, const signed char * const pcName, 
 487:Source/tasks.c **** {
 193              		.loc 1 487 0
 194              		.cfi_startproc
 195              		@ args = 16, pretend = 0, frame = 32
 196              		@ frame_needed = 1, uses_anonymous_args = 0
 197 0000 80B5     		push	{r7, lr}	@
 198              	.LCFI0:
 199              		.cfi_def_cfa_offset 8
 200              		.cfi_offset 7, -8
 201              		.cfi_offset 14, -4
 202 0002 8AB0     		sub	sp, sp, #40	@,,
 203              	.LCFI1:
 204              		.cfi_def_cfa_offset 48
 205 0004 02AF     		add	r7, sp, #8	@,,
 206              	.LCFI2:
 207              		.cfi_def_cfa 7, 40
 208 0006 F860     		str	r0, [r7, #12]	@ pxTaskCode, pxTaskCode
 209 0008 B960     		str	r1, [r7, #8]	@ pcName, pcName
 210 000a 3B60     		str	r3, [r7, #0]	@ pvParameters, pvParameters
 211 000c 1346     		mov	r3, r2	@ movhi	@ tmp165, tmp164
 212 000e FB80     		strh	r3, [r7, #6]	@ movhi	@ tmp165, usStackDepth
 488:Source/tasks.c **** signed portBASE_TYPE xReturn;
 489:Source/tasks.c **** tskTCB * pxNewTCB;
 490:Source/tasks.c **** 
 491:Source/tasks.c **** 	configASSERT( pxTaskCode );
 492:Source/tasks.c **** 	configASSERT( ( ( uxPriority & ( ~portPRIVILEGE_BIT ) ) < configMAX_PRIORITIES ) );
 493:Source/tasks.c **** 
 494:Source/tasks.c **** 	/* Allocate the memory required by the TCB and stack for the new task,
 495:Source/tasks.c **** 	checking that the allocation was successful. */
 496:Source/tasks.c **** 	pxNewTCB = prvAllocateTCBAndStack( usStackDepth, puxStackBuffer );
 213              		.loc 1 496 0
 214 0010 FB88     		ldrh	r3, [r7, #6]	@ tmp166, usStackDepth
 215 0012 1846     		mov	r0, r3	@, tmp166
 216 0014 396B     		ldr	r1, [r7, #48]	@, puxStackBuffer
 217 0016 FFF7FEFF 		bl	prvAllocateTCBAndStack	@
 218 001a B861     		str	r0, [r7, #24]	@, pxNewTCB
 497:Source/tasks.c **** 
 498:Source/tasks.c **** 	if( pxNewTCB != NULL )
 219              		.loc 1 498 0
ARM GAS  C:\Users\Grzybek\AppData\Local\Temp\cccVQrHj.s 			page 14


 220 001c BB69     		ldr	r3, [r7, #24]	@ tmp167, pxNewTCB
 221 001e 002B     		cmp	r3, #0	@ tmp167,
 222 0020 76D0     		beq	.L2	@,
 223              	.LBB2:
 499:Source/tasks.c **** 	{
 500:Source/tasks.c **** 		portSTACK_TYPE *pxTopOfStack;
 501:Source/tasks.c **** 
 502:Source/tasks.c **** 		#if( portUSING_MPU_WRAPPERS == 1 )
 503:Source/tasks.c **** 			/* Should the task be created in privileged mode? */
 504:Source/tasks.c **** 			portBASE_TYPE xRunPrivileged;
 505:Source/tasks.c **** 			if( ( uxPriority & portPRIVILEGE_BIT ) != 0U )
 506:Source/tasks.c **** 			{
 507:Source/tasks.c **** 				xRunPrivileged = pdTRUE;
 508:Source/tasks.c **** 			}
 509:Source/tasks.c **** 			else
 510:Source/tasks.c **** 			{
 511:Source/tasks.c **** 				xRunPrivileged = pdFALSE;
 512:Source/tasks.c **** 			}
 513:Source/tasks.c **** 			uxPriority &= ~portPRIVILEGE_BIT;
 514:Source/tasks.c **** 		#endif /* portUSING_MPU_WRAPPERS == 1 */
 515:Source/tasks.c **** 
 516:Source/tasks.c **** 		/* Calculate the top of stack address.  This depends on whether the
 517:Source/tasks.c **** 		stack grows from high memory to low (as per the 80x86) or visa versa.
 518:Source/tasks.c **** 		portSTACK_GROWTH is used to make the result positive or negative as
 519:Source/tasks.c **** 		required by the port. */
 520:Source/tasks.c **** 		#if( portSTACK_GROWTH < 0 )
 521:Source/tasks.c **** 		{
 522:Source/tasks.c **** 			pxTopOfStack = pxNewTCB->pxStack + ( usStackDepth - ( unsigned short ) 1 );
 224              		.loc 1 522 0
 225 0022 BB69     		ldr	r3, [r7, #24]	@ tmp168, pxNewTCB
 226 0024 1A6B     		ldr	r2, [r3, #48]	@ D.6493, pxNewTCB_4->pxStack
 227 0026 FB88     		ldrh	r3, [r7, #6]	@ D.6494, usStackDepth
 228 0028 03F1FF33 		add	r3, r3, #-1	@ D.6495, D.6494,
 229 002c 4FEA8303 		lsl	r3, r3, #2	@ D.6496, D.6495,
 230 0030 D318     		adds	r3, r2, r3	@ tmp169, D.6493, D.6496
 231 0032 7B61     		str	r3, [r7, #20]	@ tmp169, pxTopOfStack
 523:Source/tasks.c **** 			pxTopOfStack = ( portSTACK_TYPE * ) ( ( ( portPOINTER_SIZE_TYPE ) pxTopOfStack ) & ( ( portPOINT
 232              		.loc 1 523 0
 233 0034 7B69     		ldr	r3, [r7, #20]	@ pxTopOfStack.112, pxTopOfStack
 234 0036 23F00703 		bic	r3, r3, #7	@ D.6498, pxTopOfStack.112,
 235 003a 7B61     		str	r3, [r7, #20]	@ D.6498, pxTopOfStack
 524:Source/tasks.c **** 
 525:Source/tasks.c **** 			/* Check the alignment of the calculated top of stack is correct. */
 526:Source/tasks.c **** 			configASSERT( ( ( ( unsigned long ) pxTopOfStack & ( unsigned long ) portBYTE_ALIGNMENT_MASK ) =
 527:Source/tasks.c **** 		}
 528:Source/tasks.c **** 		#else
 529:Source/tasks.c **** 		{
 530:Source/tasks.c **** 			pxTopOfStack = pxNewTCB->pxStack;
 531:Source/tasks.c **** 
 532:Source/tasks.c **** 			/* Check the alignment of the stack buffer is correct. */
 533:Source/tasks.c **** 			configASSERT( ( ( ( unsigned long ) pxNewTCB->pxStack & ( unsigned long ) portBYTE_ALIGNMENT_MAS
 534:Source/tasks.c **** 
 535:Source/tasks.c **** 			/* If we want to use stack checking on architectures that use
 536:Source/tasks.c **** 			a positive stack growth direction then we also need to store the
 537:Source/tasks.c **** 			other extreme of the stack space. */
 538:Source/tasks.c **** 			pxNewTCB->pxEndOfStack = pxNewTCB->pxStack + ( usStackDepth - 1 );
 539:Source/tasks.c **** 		}
ARM GAS  C:\Users\Grzybek\AppData\Local\Temp\cccVQrHj.s 			page 15


 540:Source/tasks.c **** 		#endif
 541:Source/tasks.c **** 
 542:Source/tasks.c **** 		/* Setup the newly allocated TCB with the initial state of the task. */
 543:Source/tasks.c **** 		prvInitialiseTCBVariables( pxNewTCB, pcName, uxPriority, xRegions, usStackDepth );
 236              		.loc 1 543 0
 237 003c FB88     		ldrh	r3, [r7, #6]	@ tmp170, usStackDepth
 238 003e 0093     		str	r3, [sp, #0]	@ tmp170,
 239 0040 B869     		ldr	r0, [r7, #24]	@, pxNewTCB
 240 0042 B968     		ldr	r1, [r7, #8]	@, pcName
 241 0044 BA6A     		ldr	r2, [r7, #40]	@, uxPriority
 242 0046 7B6B     		ldr	r3, [r7, #52]	@, xRegions
 243 0048 FFF7FEFF 		bl	prvInitialiseTCBVariables	@
 544:Source/tasks.c **** 
 545:Source/tasks.c **** 		/* Initialize the TCB stack to look as if the task was already running,
 546:Source/tasks.c **** 		but had been interrupted by the scheduler.  The return address is set
 547:Source/tasks.c **** 		to the start of the task function. Once the stack has been initialised
 548:Source/tasks.c **** 		the	top of stack variable is updated. */
 549:Source/tasks.c **** 		#if( portUSING_MPU_WRAPPERS == 1 )
 550:Source/tasks.c **** 		{
 551:Source/tasks.c **** 			pxNewTCB->pxTopOfStack = pxPortInitialiseStack( pxTopOfStack, pxTaskCode, pvParameters, xRunPriv
 552:Source/tasks.c **** 		}
 553:Source/tasks.c **** 		#else
 554:Source/tasks.c **** 		{
 555:Source/tasks.c **** 			pxNewTCB->pxTopOfStack = pxPortInitialiseStack( pxTopOfStack, pxTaskCode, pvParameters );
 244              		.loc 1 555 0
 245 004c 7869     		ldr	r0, [r7, #20]	@, pxTopOfStack
 246 004e F968     		ldr	r1, [r7, #12]	@, pxTaskCode
 247 0050 3A68     		ldr	r2, [r7, #0]	@, pvParameters
 248 0052 FFF7FEFF 		bl	pxPortInitialiseStack	@
 249 0056 0246     		mov	r2, r0	@ D.6499,
 250 0058 BB69     		ldr	r3, [r7, #24]	@ tmp171, pxNewTCB
 251 005a 1A60     		str	r2, [r3, #0]	@ D.6499, pxNewTCB_4->pxTopOfStack
 556:Source/tasks.c **** 		}
 557:Source/tasks.c **** 		#endif
 558:Source/tasks.c **** 
 559:Source/tasks.c **** 		/* Check the alignment of the initialised stack. */
 560:Source/tasks.c **** 		portALIGNMENT_ASSERT_pxCurrentTCB( ( ( ( unsigned long ) pxNewTCB->pxTopOfStack & ( unsigned long
 561:Source/tasks.c **** 
 562:Source/tasks.c **** 		if( ( void * ) pxCreatedTask != NULL )
 252              		.loc 1 562 0
 253 005c FB6A     		ldr	r3, [r7, #44]	@ tmp172, pxCreatedTask
 254 005e 002B     		cmp	r3, #0	@ tmp172,
 255 0060 02D0     		beq	.L3	@,
 563:Source/tasks.c **** 		{
 564:Source/tasks.c **** 			/* Pass the TCB out - in an anonymous way.  The calling function/
 565:Source/tasks.c **** 			task can use this as a handle to delete the task later if
 566:Source/tasks.c **** 			required.*/
 567:Source/tasks.c **** 			*pxCreatedTask = ( xTaskHandle ) pxNewTCB;
 256              		.loc 1 567 0
 257 0062 FB6A     		ldr	r3, [r7, #44]	@ tmp173, pxCreatedTask
 258 0064 BA69     		ldr	r2, [r7, #24]	@ tmp174, pxNewTCB
 259 0066 1A60     		str	r2, [r3, #0]	@ tmp174, *pxCreatedTask_19(D)
 260              	.L3:
 568:Source/tasks.c **** 		}
 569:Source/tasks.c **** 
 570:Source/tasks.c **** 		/* We are going to manipulate the task queues to add this task to a
 571:Source/tasks.c **** 		ready list, so must make sure no interrupts occur. */
ARM GAS  C:\Users\Grzybek\AppData\Local\Temp\cccVQrHj.s 			page 16


 572:Source/tasks.c **** 		taskENTER_CRITICAL();
 261              		.loc 1 572 0
 262 0068 FFF7FEFF 		bl	vPortEnterCritical	@
 573:Source/tasks.c **** 		{
 574:Source/tasks.c **** 			uxCurrentNumberOfTasks++;
 263              		.loc 1 574 0
 264 006c 344B     		ldr	r3, .L11	@ tmp175,
 265 006e 1B68     		ldr	r3, [r3, #0]	@ uxCurrentNumberOfTasks.113, uxCurrentNumberOfTasks
 266 0070 03F10102 		add	r2, r3, #1	@ uxCurrentNumberOfTasks.114, uxCurrentNumberOfTasks.113,
 267 0074 324B     		ldr	r3, .L11	@ tmp176,
 268 0076 1A60     		str	r2, [r3, #0]	@ uxCurrentNumberOfTasks.114, uxCurrentNumberOfTasks
 575:Source/tasks.c **** 			if( pxCurrentTCB == NULL )
 269              		.loc 1 575 0
 270 0078 324B     		ldr	r3, .L11+4	@ tmp177,
 271 007a 1B68     		ldr	r3, [r3, #0]	@ pxCurrentTCB.115, pxCurrentTCB
 272 007c 002B     		cmp	r3, #0	@ pxCurrentTCB.115,
 273 007e 09D1     		bne	.L4	@,
 576:Source/tasks.c **** 			{
 577:Source/tasks.c **** 				/* There are no other tasks, or all the other tasks are in
 578:Source/tasks.c **** 				the suspended state - make this the current task. */
 579:Source/tasks.c **** 				pxCurrentTCB =  pxNewTCB;
 274              		.loc 1 579 0
 275 0080 304B     		ldr	r3, .L11+4	@ tmp178,
 276 0082 BA69     		ldr	r2, [r7, #24]	@ tmp179, pxNewTCB
 277 0084 1A60     		str	r2, [r3, #0]	@ tmp179, pxCurrentTCB
 580:Source/tasks.c **** 
 581:Source/tasks.c **** 				if( uxCurrentNumberOfTasks == ( unsigned portBASE_TYPE ) 1 )
 278              		.loc 1 581 0
 279 0086 2E4B     		ldr	r3, .L11	@ tmp180,
 280 0088 1B68     		ldr	r3, [r3, #0]	@ uxCurrentNumberOfTasks.116, uxCurrentNumberOfTasks
 281 008a 012B     		cmp	r3, #1	@ uxCurrentNumberOfTasks.116,
 282 008c 0FD1     		bne	.L5	@,
 582:Source/tasks.c **** 				{
 583:Source/tasks.c **** 					/* This is the first task to be created so do the preliminary
 584:Source/tasks.c **** 					initialisation required.  We will not recover if this call
 585:Source/tasks.c **** 					fails, but we will report the failure. */
 586:Source/tasks.c **** 					prvInitialiseTaskLists();
 283              		.loc 1 586 0
 284 008e FFF7FEFF 		bl	prvInitialiseTaskLists	@
 285 0092 0CE0     		b	.L5	@
 286              	.L4:
 587:Source/tasks.c **** 				}
 588:Source/tasks.c **** 			}
 589:Source/tasks.c **** 			else
 590:Source/tasks.c **** 			{
 591:Source/tasks.c **** 				/* If the scheduler is not already running, make this task the
 592:Source/tasks.c **** 				current task if it is the highest priority task to be created
 593:Source/tasks.c **** 				so far. */
 594:Source/tasks.c **** 				if( xSchedulerRunning == pdFALSE )
 287              		.loc 1 594 0
 288 0094 2C4B     		ldr	r3, .L11+8	@ tmp181,
 289 0096 1B68     		ldr	r3, [r3, #0]	@ xSchedulerRunning.117, xSchedulerRunning
 290 0098 002B     		cmp	r3, #0	@ xSchedulerRunning.117,
 291 009a 08D1     		bne	.L5	@,
 595:Source/tasks.c **** 				{
 596:Source/tasks.c **** 					if( pxCurrentTCB->uxPriority <= uxPriority )
 292              		.loc 1 596 0
ARM GAS  C:\Users\Grzybek\AppData\Local\Temp\cccVQrHj.s 			page 17


 293 009c 294B     		ldr	r3, .L11+4	@ tmp182,
 294 009e 1B68     		ldr	r3, [r3, #0]	@ pxCurrentTCB.118, pxCurrentTCB
 295 00a0 DA6A     		ldr	r2, [r3, #44]	@ D.6515, pxCurrentTCB.118_25->uxPriority
 296 00a2 BB6A     		ldr	r3, [r7, #40]	@ tmp183, uxPriority
 297 00a4 9A42     		cmp	r2, r3	@ D.6515, tmp183
 298 00a6 02D8     		bhi	.L5	@,
 597:Source/tasks.c **** 					{
 598:Source/tasks.c **** 						pxCurrentTCB = pxNewTCB;
 299              		.loc 1 598 0
 300 00a8 264B     		ldr	r3, .L11+4	@ tmp184,
 301 00aa BA69     		ldr	r2, [r7, #24]	@ tmp185, pxNewTCB
 302 00ac 1A60     		str	r2, [r3, #0]	@ tmp185, pxCurrentTCB
 303              	.L5:
 599:Source/tasks.c **** 					}
 600:Source/tasks.c **** 				}
 601:Source/tasks.c **** 			}
 602:Source/tasks.c **** 
 603:Source/tasks.c **** 			/* Remember the top priority to make context switching faster.  Use
 604:Source/tasks.c **** 			the priority in pxNewTCB as this has been capped to a valid value. */
 605:Source/tasks.c **** 			if( pxNewTCB->uxPriority > uxTopUsedPriority )
 304              		.loc 1 605 0
 305 00ae BB69     		ldr	r3, [r7, #24]	@ tmp186, pxNewTCB
 306 00b0 DA6A     		ldr	r2, [r3, #44]	@ D.6518, pxNewTCB_4->uxPriority
 307 00b2 264B     		ldr	r3, .L11+12	@ tmp187,
 308 00b4 1B68     		ldr	r3, [r3, #0]	@ uxTopUsedPriority.119, uxTopUsedPriority
 309 00b6 9A42     		cmp	r2, r3	@ D.6518, uxTopUsedPriority.119
 310 00b8 03D9     		bls	.L6	@,
 606:Source/tasks.c **** 			{
 607:Source/tasks.c **** 				uxTopUsedPriority = pxNewTCB->uxPriority;
 311              		.loc 1 607 0
 312 00ba BB69     		ldr	r3, [r7, #24]	@ tmp188, pxNewTCB
 313 00bc DA6A     		ldr	r2, [r3, #44]	@ uxTopUsedPriority.120, pxNewTCB_4->uxPriority
 314 00be 234B     		ldr	r3, .L11+12	@ tmp189,
 315 00c0 1A60     		str	r2, [r3, #0]	@ uxTopUsedPriority.120, uxTopUsedPriority
 316              	.L6:
 608:Source/tasks.c **** 			}
 609:Source/tasks.c **** 
 610:Source/tasks.c **** 			#if ( configUSE_TRACE_FACILITY == 1 )
 611:Source/tasks.c **** 			{
 612:Source/tasks.c **** 				/* Add a counter into the TCB for tracing only. */
 613:Source/tasks.c **** 				pxNewTCB->uxTCBNumber = uxTaskNumber;
 614:Source/tasks.c **** 			}
 615:Source/tasks.c **** 			#endif
 616:Source/tasks.c **** 			uxTaskNumber++;
 317              		.loc 1 616 0
 318 00c2 234B     		ldr	r3, .L11+16	@ tmp190,
 319 00c4 1B68     		ldr	r3, [r3, #0]	@ uxTaskNumber.121, uxTaskNumber
 320 00c6 03F10102 		add	r2, r3, #1	@ uxTaskNumber.122, uxTaskNumber.121,
 321 00ca 214B     		ldr	r3, .L11+16	@ tmp191,
 322 00cc 1A60     		str	r2, [r3, #0]	@ uxTaskNumber.122, uxTaskNumber
 617:Source/tasks.c **** 
 618:Source/tasks.c **** 			prvAddTaskToReadyQueue( pxNewTCB );
 323              		.loc 1 618 0
 324 00ce BB69     		ldr	r3, [r7, #24]	@ tmp192, pxNewTCB
 325 00d0 DA6A     		ldr	r2, [r3, #44]	@ D.6525, pxNewTCB_4->uxPriority
 326 00d2 204B     		ldr	r3, .L11+20	@ tmp193,
 327 00d4 1B68     		ldr	r3, [r3, #0]	@ uxTopReadyPriority.123, uxTopReadyPriority
ARM GAS  C:\Users\Grzybek\AppData\Local\Temp\cccVQrHj.s 			page 18


 328 00d6 9A42     		cmp	r2, r3	@ D.6525, uxTopReadyPriority.123
 329 00d8 03D9     		bls	.L7	@,
 330              		.loc 1 618 0 is_stmt 0 discriminator 1
 331 00da BB69     		ldr	r3, [r7, #24]	@ tmp194, pxNewTCB
 332 00dc DA6A     		ldr	r2, [r3, #44]	@ uxTopReadyPriority.124, pxNewTCB_4->uxPriority
 333 00de 1D4B     		ldr	r3, .L11+20	@ tmp195,
 334 00e0 1A60     		str	r2, [r3, #0]	@ uxTopReadyPriority.124, uxTopReadyPriority
 335              	.L7:
 336              		.loc 1 618 0 discriminator 2
 337 00e2 BB69     		ldr	r3, [r7, #24]	@ tmp196, pxNewTCB
 338 00e4 DA6A     		ldr	r2, [r3, #44]	@ D.6530, pxNewTCB_4->uxPriority
 339 00e6 1346     		mov	r3, r2	@ tmp197, D.6530
 340 00e8 4FEA8303 		lsl	r3, r3, #2	@ tmp197, tmp197,
 341 00ec 9B18     		adds	r3, r3, r2	@ tmp197, tmp197, D.6530
 342 00ee 4FEA8303 		lsl	r3, r3, #2	@ tmp198, tmp197,
 343 00f2 194A     		ldr	r2, .L11+24	@ tmp199,
 344 00f4 9A18     		adds	r2, r3, r2	@ D.6531, tmp197, tmp199
 345 00f6 BB69     		ldr	r3, [r7, #24]	@ tmp200, pxNewTCB
 346 00f8 03F10403 		add	r3, r3, #4	@ D.6532, tmp200,
 347 00fc 1046     		mov	r0, r2	@, D.6531
 348 00fe 1946     		mov	r1, r3	@, D.6532
 349 0100 FFF7FEFF 		bl	vListInsertEnd	@
 619:Source/tasks.c **** 
 620:Source/tasks.c **** 			xReturn = pdPASS;
 350              		.loc 1 620 0 is_stmt 1 discriminator 2
 351 0104 4FF00103 		mov	r3, #1	@ tmp201,
 352 0108 FB61     		str	r3, [r7, #28]	@ tmp201, xReturn
 621:Source/tasks.c **** 			portSETUP_TCB( pxNewTCB );
 622:Source/tasks.c **** 			traceTASK_CREATE( pxNewTCB );
 623:Source/tasks.c **** 		}
 624:Source/tasks.c **** 		taskEXIT_CRITICAL();
 353              		.loc 1 624 0 discriminator 2
 354 010a FFF7FEFF 		bl	vPortExitCritical	@
 355 010e 02E0     		b	.L8	@
 356              	.L2:
 357              	.LBE2:
 625:Source/tasks.c **** 	}
 626:Source/tasks.c **** 	else
 627:Source/tasks.c **** 	{
 628:Source/tasks.c **** 		xReturn = errCOULD_NOT_ALLOCATE_REQUIRED_MEMORY;
 358              		.loc 1 628 0
 359 0110 4FF0FF33 		mov	r3, #-1	@ tmp202,
 360 0114 FB61     		str	r3, [r7, #28]	@ tmp202, xReturn
 361              	.L8:
 629:Source/tasks.c **** 		traceTASK_CREATE_FAILED();
 630:Source/tasks.c **** 	}
 631:Source/tasks.c **** 
 632:Source/tasks.c **** 	if( xReturn == pdPASS )
 362              		.loc 1 632 0
 363 0116 FB69     		ldr	r3, [r7, #28]	@ tmp203, xReturn
 364 0118 012B     		cmp	r3, #1	@ tmp203,
 365 011a 0BD1     		bne	.L9	@,
 633:Source/tasks.c **** 	{
 634:Source/tasks.c **** 		if( xSchedulerRunning != pdFALSE )
 366              		.loc 1 634 0
 367 011c 0A4B     		ldr	r3, .L11+8	@ tmp204,
 368 011e 1B68     		ldr	r3, [r3, #0]	@ xSchedulerRunning.125, xSchedulerRunning
ARM GAS  C:\Users\Grzybek\AppData\Local\Temp\cccVQrHj.s 			page 19


 369 0120 002B     		cmp	r3, #0	@ xSchedulerRunning.125,
 370 0122 07D0     		beq	.L9	@,
 635:Source/tasks.c **** 		{
 636:Source/tasks.c **** 			/* If the created task is of a higher priority than the current task
 637:Source/tasks.c **** 			then it should run now. */
 638:Source/tasks.c **** 			if( pxCurrentTCB->uxPriority < uxPriority )
 371              		.loc 1 638 0
 372 0124 074B     		ldr	r3, .L11+4	@ tmp205,
 373 0126 1B68     		ldr	r3, [r3, #0]	@ pxCurrentTCB.126, pxCurrentTCB
 374 0128 DA6A     		ldr	r2, [r3, #44]	@ D.6540, pxCurrentTCB.126_41->uxPriority
 375 012a BB6A     		ldr	r3, [r7, #40]	@ tmp206, uxPriority
 376 012c 9A42     		cmp	r2, r3	@ D.6540, tmp206
 377 012e 01D2     		bcs	.L9	@,
 639:Source/tasks.c **** 			{
 640:Source/tasks.c **** 				portYIELD_WITHIN_API();
 378              		.loc 1 640 0
 379 0130 FFF7FEFF 		bl	vPortYieldFromISR	@
 380              	.L9:
 641:Source/tasks.c **** 			}
 642:Source/tasks.c **** 		}
 643:Source/tasks.c **** 	}
 644:Source/tasks.c **** 
 645:Source/tasks.c **** 	return xReturn;
 381              		.loc 1 645 0
 382 0134 FB69     		ldr	r3, [r7, #28]	@ D.6543, xReturn
 646:Source/tasks.c **** }
 383              		.loc 1 646 0
 384 0136 1846     		mov	r0, r3	@, <retval>
 385 0138 07F12007 		add	r7, r7, #32	@,,
 386 013c BD46     		mov	sp, r7
 387 013e 80BD     		pop	{r7, pc}
 388              	.L12:
 389              		.align	2
 390              	.L11:
 391 0140 00000000 		.word	uxCurrentNumberOfTasks
 392 0144 00000000 		.word	pxCurrentTCB
 393 0148 00000000 		.word	xSchedulerRunning
 394 014c 00000000 		.word	uxTopUsedPriority
 395 0150 00000000 		.word	uxTaskNumber
 396 0154 00000000 		.word	uxTopReadyPriority
 397 0158 00000000 		.word	pxReadyTasksLists
 398              		.cfi_endproc
 399              	.LFE0:
 400              		.size	xTaskGenericCreate, .-xTaskGenericCreate
 401              		.section	.text.vTaskDelete,"ax",%progbits
 402              		.align	2
 403              		.global	vTaskDelete
 404              		.thumb
 405              		.thumb_func
 406              		.type	vTaskDelete, %function
 407              	vTaskDelete:
 408              	.LFB1:
 647:Source/tasks.c **** /*-----------------------------------------------------------*/
 648:Source/tasks.c **** 
 649:Source/tasks.c **** #if ( INCLUDE_vTaskDelete == 1 )
 650:Source/tasks.c **** 
 651:Source/tasks.c **** 	void vTaskDelete( xTaskHandle pxTaskToDelete )
ARM GAS  C:\Users\Grzybek\AppData\Local\Temp\cccVQrHj.s 			page 20


 652:Source/tasks.c **** 	{
 409              		.loc 1 652 0
 410              		.cfi_startproc
 411              		@ args = 0, pretend = 0, frame = 16
 412              		@ frame_needed = 1, uses_anonymous_args = 0
 413 0000 80B5     		push	{r7, lr}	@
 414              	.LCFI3:
 415              		.cfi_def_cfa_offset 8
 416              		.cfi_offset 7, -8
 417              		.cfi_offset 14, -4
 418 0002 84B0     		sub	sp, sp, #16	@,,
 419              	.LCFI4:
 420              		.cfi_def_cfa_offset 24
 421 0004 00AF     		add	r7, sp, #0	@,,
 422              	.LCFI5:
 423              		.cfi_def_cfa_register 7
 424 0006 7860     		str	r0, [r7, #4]	@ pxTaskToDelete, pxTaskToDelete
 653:Source/tasks.c **** 	tskTCB *pxTCB;
 654:Source/tasks.c **** 
 655:Source/tasks.c **** 		taskENTER_CRITICAL();
 425              		.loc 1 655 0
 426 0008 FFF7FEFF 		bl	vPortEnterCritical	@
 656:Source/tasks.c **** 		{
 657:Source/tasks.c **** 			/* Ensure a yield is performed if the current task is being
 658:Source/tasks.c **** 			deleted. */
 659:Source/tasks.c **** 			if( pxTaskToDelete == pxCurrentTCB )
 427              		.loc 1 659 0
 428 000c 204B     		ldr	r3, .L19	@ tmp146,
 429 000e 1B68     		ldr	r3, [r3, #0]	@ pxCurrentTCB.105, pxCurrentTCB
 430 0010 7A68     		ldr	r2, [r7, #4]	@ tmp147, pxTaskToDelete
 431 0012 9A42     		cmp	r2, r3	@ tmp147, pxCurrentTCB.105
 432 0014 02D1     		bne	.L14	@,
 660:Source/tasks.c **** 			{
 661:Source/tasks.c **** 				pxTaskToDelete = NULL;
 433              		.loc 1 661 0
 434 0016 4FF00003 		mov	r3, #0	@ tmp148,
 435 001a 7B60     		str	r3, [r7, #4]	@ tmp148, pxTaskToDelete
 436              	.L14:
 662:Source/tasks.c **** 			}
 663:Source/tasks.c **** 
 664:Source/tasks.c **** 			/* If null is passed in here then we are deleting ourselves. */
 665:Source/tasks.c **** 			pxTCB = prvGetTCBFromHandle( pxTaskToDelete );
 437              		.loc 1 665 0
 438 001c 7B68     		ldr	r3, [r7, #4]	@ tmp149, pxTaskToDelete
 439 001e 002B     		cmp	r3, #0	@ tmp149,
 440 0020 02D1     		bne	.L15	@,
 441              		.loc 1 665 0 is_stmt 0 discriminator 1
 442 0022 1B4B     		ldr	r3, .L19	@ tmp150,
 443 0024 1B68     		ldr	r3, [r3, #0]	@ iftmp.106, pxCurrentTCB
 444 0026 00E0     		b	.L16	@
 445              	.L15:
 446              		.loc 1 665 0 discriminator 2
 447 0028 7B68     		ldr	r3, [r7, #4]	@ iftmp.106, pxTaskToDelete
 448              	.L16:
 449              		.loc 1 665 0 discriminator 3
 450 002a FB60     		str	r3, [r7, #12]	@ iftmp.106, pxTCB
 666:Source/tasks.c **** 
ARM GAS  C:\Users\Grzybek\AppData\Local\Temp\cccVQrHj.s 			page 21


 667:Source/tasks.c **** 			/* Remove task from the ready list and place in the	termination list.
 668:Source/tasks.c **** 			This will stop the task from be scheduled.  The idle task will check
 669:Source/tasks.c **** 			the termination list and free up any memory allocated by the
 670:Source/tasks.c **** 			scheduler for the TCB and stack. */
 671:Source/tasks.c **** 			if( uxListRemove( ( xListItem * ) &( pxTCB->xGenericListItem ) ) == 0 )
 451              		.loc 1 671 0 is_stmt 1 discriminator 3
 452 002c FB68     		ldr	r3, [r7, #12]	@ tmp151, pxTCB
 453 002e 03F10403 		add	r3, r3, #4	@ D.6473, tmp151,
 454 0032 1846     		mov	r0, r3	@, D.6473
 455 0034 FFF7FEFF 		bl	uxListRemove	@
 672:Source/tasks.c **** 			{
 673:Source/tasks.c **** 				taskRESET_READY_PRIORITY( pxTCB->uxPriority );
 674:Source/tasks.c **** 			}
 675:Source/tasks.c **** 
 676:Source/tasks.c **** 			/* Is the task waiting on an event also? */
 677:Source/tasks.c **** 			if( pxTCB->xEventListItem.pvContainer != NULL )
 456              		.loc 1 677 0 discriminator 3
 457 0038 FB68     		ldr	r3, [r7, #12]	@ tmp152, pxTCB
 458 003a 9B6A     		ldr	r3, [r3, #40]	@ D.6477, pxTCB_8->xEventListItem.pvContainer
 459 003c 002B     		cmp	r3, #0	@ D.6477,
 460 003e 05D0     		beq	.L17	@,
 678:Source/tasks.c **** 			{
 679:Source/tasks.c **** 				uxListRemove( &( pxTCB->xEventListItem ) );
 461              		.loc 1 679 0
 462 0040 FB68     		ldr	r3, [r7, #12]	@ tmp153, pxTCB
 463 0042 03F11803 		add	r3, r3, #24	@ D.6480, tmp153,
 464 0046 1846     		mov	r0, r3	@, D.6480
 465 0048 FFF7FEFF 		bl	uxListRemove	@
 466              	.L17:
 680:Source/tasks.c **** 			}
 681:Source/tasks.c **** 
 682:Source/tasks.c **** 			vListInsertEnd( ( xList * ) &xTasksWaitingTermination, &( pxTCB->xGenericListItem ) );
 467              		.loc 1 682 0
 468 004c FB68     		ldr	r3, [r7, #12]	@ tmp154, pxTCB
 469 004e 03F10403 		add	r3, r3, #4	@ D.6481, tmp154,
 470 0052 1048     		ldr	r0, .L19+4	@,
 471 0054 1946     		mov	r1, r3	@, D.6481
 472 0056 FFF7FEFF 		bl	vListInsertEnd	@
 683:Source/tasks.c **** 
 684:Source/tasks.c **** 			/* Increment the ucTasksDeleted variable so the idle task knows
 685:Source/tasks.c **** 			there is a task that has been deleted and that it should therefore
 686:Source/tasks.c **** 			check the xTasksWaitingTermination list. */
 687:Source/tasks.c **** 			++uxTasksDeleted;
 473              		.loc 1 687 0
 474 005a 0F4B     		ldr	r3, .L19+8	@ tmp155,
 475 005c 1B68     		ldr	r3, [r3, #0]	@ uxTasksDeleted.107, uxTasksDeleted
 476 005e 03F10102 		add	r2, r3, #1	@ uxTasksDeleted.108, uxTasksDeleted.107,
 477 0062 0D4B     		ldr	r3, .L19+8	@ tmp156,
 478 0064 1A60     		str	r2, [r3, #0]	@ uxTasksDeleted.108, uxTasksDeleted
 688:Source/tasks.c **** 
 689:Source/tasks.c **** 			/* Increment the uxTaskNumberVariable also so kernel aware debuggers
 690:Source/tasks.c **** 			can detect that the task lists need re-generating. */
 691:Source/tasks.c **** 			uxTaskNumber++;
 479              		.loc 1 691 0
 480 0066 0D4B     		ldr	r3, .L19+12	@ tmp157,
 481 0068 1B68     		ldr	r3, [r3, #0]	@ uxTaskNumber.109, uxTaskNumber
 482 006a 03F10102 		add	r2, r3, #1	@ uxTaskNumber.110, uxTaskNumber.109,
ARM GAS  C:\Users\Grzybek\AppData\Local\Temp\cccVQrHj.s 			page 22


 483 006e 0B4B     		ldr	r3, .L19+12	@ tmp158,
 484 0070 1A60     		str	r2, [r3, #0]	@ uxTaskNumber.110, uxTaskNumber
 692:Source/tasks.c **** 
 693:Source/tasks.c **** 			traceTASK_DELETE( pxTCB );
 694:Source/tasks.c **** 		}
 695:Source/tasks.c **** 		taskEXIT_CRITICAL();
 485              		.loc 1 695 0
 486 0072 FFF7FEFF 		bl	vPortExitCritical	@
 696:Source/tasks.c **** 
 697:Source/tasks.c **** 		/* Force a reschedule if we have just deleted the current task. */
 698:Source/tasks.c **** 		if( xSchedulerRunning != pdFALSE )
 487              		.loc 1 698 0
 488 0076 0A4B     		ldr	r3, .L19+16	@ tmp159,
 489 0078 1B68     		ldr	r3, [r3, #0]	@ xSchedulerRunning.111, xSchedulerRunning
 490 007a 002B     		cmp	r3, #0	@ xSchedulerRunning.111,
 491 007c 04D0     		beq	.L13	@,
 699:Source/tasks.c **** 		{
 700:Source/tasks.c **** 			if( ( void * ) pxTaskToDelete == NULL )
 492              		.loc 1 700 0
 493 007e 7B68     		ldr	r3, [r7, #4]	@ tmp160, pxTaskToDelete
 494 0080 002B     		cmp	r3, #0	@ tmp160,
 495 0082 01D1     		bne	.L13	@,
 701:Source/tasks.c **** 			{
 702:Source/tasks.c **** 				portYIELD_WITHIN_API();
 496              		.loc 1 702 0
 497 0084 FFF7FEFF 		bl	vPortYieldFromISR	@
 498              	.L13:
 703:Source/tasks.c **** 			}
 704:Source/tasks.c **** 		}
 705:Source/tasks.c **** 	}
 499              		.loc 1 705 0
 500 0088 07F11007 		add	r7, r7, #16	@,,
 501 008c BD46     		mov	sp, r7
 502 008e 80BD     		pop	{r7, pc}
 503              	.L20:
 504              		.align	2
 505              	.L19:
 506 0090 00000000 		.word	pxCurrentTCB
 507 0094 00000000 		.word	xTasksWaitingTermination
 508 0098 00000000 		.word	uxTasksDeleted
 509 009c 00000000 		.word	uxTaskNumber
 510 00a0 00000000 		.word	xSchedulerRunning
 511              		.cfi_endproc
 512              	.LFE1:
 513              		.size	vTaskDelete, .-vTaskDelete
 514              		.section	.text.vTaskDelayUntil,"ax",%progbits
 515              		.align	2
 516              		.global	vTaskDelayUntil
 517              		.thumb
 518              		.thumb_func
 519              		.type	vTaskDelayUntil, %function
 520              	vTaskDelayUntil:
 521              	.LFB2:
 706:Source/tasks.c **** 
 707:Source/tasks.c **** #endif
 708:Source/tasks.c **** 
 709:Source/tasks.c **** 
ARM GAS  C:\Users\Grzybek\AppData\Local\Temp\cccVQrHj.s 			page 23


 710:Source/tasks.c **** 
 711:Source/tasks.c **** 
 712:Source/tasks.c **** 
 713:Source/tasks.c **** 
 714:Source/tasks.c **** /*-----------------------------------------------------------
 715:Source/tasks.c ****  * TASK CONTROL API documented in task.h
 716:Source/tasks.c ****  *----------------------------------------------------------*/
 717:Source/tasks.c **** 
 718:Source/tasks.c **** #if ( INCLUDE_vTaskDelayUntil == 1 )
 719:Source/tasks.c **** 
 720:Source/tasks.c **** 	void vTaskDelayUntil( portTickType * const pxPreviousWakeTime, portTickType xTimeIncrement )
 721:Source/tasks.c **** 	{
 522              		.loc 1 721 0
 523              		.cfi_startproc
 524              		@ args = 0, pretend = 0, frame = 24
 525              		@ frame_needed = 1, uses_anonymous_args = 0
 526 0000 80B5     		push	{r7, lr}	@
 527              	.LCFI6:
 528              		.cfi_def_cfa_offset 8
 529              		.cfi_offset 7, -8
 530              		.cfi_offset 14, -4
 531 0002 86B0     		sub	sp, sp, #24	@,,
 532              	.LCFI7:
 533              		.cfi_def_cfa_offset 32
 534 0004 00AF     		add	r7, sp, #0	@,,
 535              	.LCFI8:
 536              		.cfi_def_cfa_register 7
 537 0006 7860     		str	r0, [r7, #4]	@ pxPreviousWakeTime, pxPreviousWakeTime
 538 0008 3960     		str	r1, [r7, #0]	@ xTimeIncrement, xTimeIncrement
 722:Source/tasks.c **** 	portTickType xTimeToWake;
 723:Source/tasks.c **** 	portBASE_TYPE xAlreadyYielded, xShouldDelay = pdFALSE;
 539              		.loc 1 723 0
 540 000a 4FF00003 		mov	r3, #0	@ tmp144,
 541 000e 7B61     		str	r3, [r7, #20]	@ tmp144, xShouldDelay
 724:Source/tasks.c **** 
 725:Source/tasks.c **** 		configASSERT( pxPreviousWakeTime );
 726:Source/tasks.c **** 		configASSERT( ( xTimeIncrement > 0U ) );
 727:Source/tasks.c **** 
 728:Source/tasks.c **** 		vTaskSuspendAll();
 542              		.loc 1 728 0
 543 0010 FFF7FEFF 		bl	vTaskSuspendAll	@
 729:Source/tasks.c **** 		{
 730:Source/tasks.c **** 			/* Generate the tick time at which the task wants to wake. */
 731:Source/tasks.c **** 			xTimeToWake = *pxPreviousWakeTime + xTimeIncrement;
 544              		.loc 1 731 0
 545 0014 7B68     		ldr	r3, [r7, #4]	@ tmp145, pxPreviousWakeTime
 546 0016 1A68     		ldr	r2, [r3, #0]	@ D.6440, *pxPreviousWakeTime_3(D)
 547 0018 3B68     		ldr	r3, [r7, #0]	@ tmp147, xTimeIncrement
 548 001a D318     		adds	r3, r2, r3	@ tmp146, D.6440, tmp147
 549 001c 3B61     		str	r3, [r7, #16]	@ tmp146, xTimeToWake
 732:Source/tasks.c **** 
 733:Source/tasks.c **** 			if( xTickCount < *pxPreviousWakeTime )
 550              		.loc 1 733 0
 551 001e 7B68     		ldr	r3, [r7, #4]	@ tmp148, pxPreviousWakeTime
 552 0020 1A68     		ldr	r2, [r3, #0]	@ D.6441, *pxPreviousWakeTime_3(D)
 553 0022 1D4B     		ldr	r3, .L27	@ tmp149,
 554 0024 1B68     		ldr	r3, [r3, #0]	@ xTickCount.101, xTickCount
ARM GAS  C:\Users\Grzybek\AppData\Local\Temp\cccVQrHj.s 			page 24


 555 0026 9A42     		cmp	r2, r3	@ D.6441, xTickCount.101
 556 0028 0DD9     		bls	.L22	@,
 734:Source/tasks.c **** 			{
 735:Source/tasks.c **** 				/* The tick count has overflowed since this function was
 736:Source/tasks.c **** 				lasted called.  In this case the only time we should ever
 737:Source/tasks.c **** 				actually delay is if the wake time has also	overflowed,
 738:Source/tasks.c **** 				and the wake time is greater than the tick time.  When this
 739:Source/tasks.c **** 				is the case it is as if neither time had overflowed. */
 740:Source/tasks.c **** 				if( ( xTimeToWake < *pxPreviousWakeTime ) && ( xTimeToWake > xTickCount ) )
 557              		.loc 1 740 0
 558 002a 7B68     		ldr	r3, [r7, #4]	@ tmp150, pxPreviousWakeTime
 559 002c 1A68     		ldr	r2, [r3, #0]	@ D.6445, *pxPreviousWakeTime_3(D)
 560 002e 3B69     		ldr	r3, [r7, #16]	@ tmp151, xTimeToWake
 561 0030 9A42     		cmp	r2, r3	@ D.6445, tmp151
 562 0032 15D9     		bls	.L23	@,
 563              		.loc 1 740 0 is_stmt 0 discriminator 1
 564 0034 184B     		ldr	r3, .L27	@ tmp152,
 565 0036 1B68     		ldr	r3, [r3, #0]	@ xTickCount.102, xTickCount
 566 0038 3A69     		ldr	r2, [r7, #16]	@ tmp153, xTimeToWake
 567 003a 9A42     		cmp	r2, r3	@ tmp153, xTickCount.102
 568 003c 10D9     		bls	.L23	@,
 741:Source/tasks.c **** 				{
 742:Source/tasks.c **** 					xShouldDelay = pdTRUE;
 569              		.loc 1 742 0 is_stmt 1
 570 003e 4FF00103 		mov	r3, #1	@ tmp154,
 571 0042 7B61     		str	r3, [r7, #20]	@ tmp154, xShouldDelay
 572 0044 0CE0     		b	.L23	@
 573              	.L22:
 743:Source/tasks.c **** 				}
 744:Source/tasks.c **** 			}
 745:Source/tasks.c **** 			else
 746:Source/tasks.c **** 			{
 747:Source/tasks.c **** 				/* The tick time has not overflowed.  In this case we will
 748:Source/tasks.c **** 				delay if either the wake time has overflowed, and/or the
 749:Source/tasks.c **** 				tick time is less than the wake time. */
 750:Source/tasks.c **** 				if( ( xTimeToWake < *pxPreviousWakeTime ) || ( xTimeToWake > xTickCount ) )
 574              		.loc 1 750 0
 575 0046 7B68     		ldr	r3, [r7, #4]	@ tmp155, pxPreviousWakeTime
 576 0048 1A68     		ldr	r2, [r3, #0]	@ D.6454, *pxPreviousWakeTime_3(D)
 577 004a 3B69     		ldr	r3, [r7, #16]	@ tmp156, xTimeToWake
 578 004c 9A42     		cmp	r2, r3	@ D.6454, tmp156
 579 004e 04D8     		bhi	.L24	@,
 580              		.loc 1 750 0 is_stmt 0 discriminator 1
 581 0050 114B     		ldr	r3, .L27	@ tmp157,
 582 0052 1B68     		ldr	r3, [r3, #0]	@ xTickCount.103, xTickCount
 583 0054 3A69     		ldr	r2, [r7, #16]	@ tmp158, xTimeToWake
 584 0056 9A42     		cmp	r2, r3	@ tmp158, xTickCount.103
 585 0058 02D9     		bls	.L23	@,
 586              	.L24:
 751:Source/tasks.c **** 				{
 752:Source/tasks.c **** 					xShouldDelay = pdTRUE;
 587              		.loc 1 752 0 is_stmt 1
 588 005a 4FF00103 		mov	r3, #1	@ tmp159,
 589 005e 7B61     		str	r3, [r7, #20]	@ tmp159, xShouldDelay
 590              	.L23:
 753:Source/tasks.c **** 				}
 754:Source/tasks.c **** 			}
ARM GAS  C:\Users\Grzybek\AppData\Local\Temp\cccVQrHj.s 			page 25


 755:Source/tasks.c **** 
 756:Source/tasks.c **** 			/* Update the wake time ready for the next call. */
 757:Source/tasks.c **** 			*pxPreviousWakeTime = xTimeToWake;
 591              		.loc 1 757 0
 592 0060 7B68     		ldr	r3, [r7, #4]	@ tmp160, pxPreviousWakeTime
 593 0062 3A69     		ldr	r2, [r7, #16]	@ tmp161, xTimeToWake
 594 0064 1A60     		str	r2, [r3, #0]	@ tmp161, *pxPreviousWakeTime_3(D)
 758:Source/tasks.c **** 
 759:Source/tasks.c **** 			if( xShouldDelay != pdFALSE )
 595              		.loc 1 759 0
 596 0066 7B69     		ldr	r3, [r7, #20]	@ tmp162, xShouldDelay
 597 0068 002B     		cmp	r3, #0	@ tmp162,
 598 006a 09D0     		beq	.L25	@,
 760:Source/tasks.c **** 			{
 761:Source/tasks.c **** 				traceTASK_DELAY_UNTIL();
 762:Source/tasks.c **** 
 763:Source/tasks.c **** 				/* We must remove ourselves from the ready list before adding
 764:Source/tasks.c **** 				ourselves to the blocked list as the same list item is used for
 765:Source/tasks.c **** 				both lists. */
 766:Source/tasks.c **** 				if( uxListRemove( ( xListItem * ) &( pxCurrentTCB->xGenericListItem ) ) == 0 )
 599              		.loc 1 766 0
 600 006c 0B4B     		ldr	r3, .L27+4	@ tmp163,
 601 006e 1B68     		ldr	r3, [r3, #0]	@ pxCurrentTCB.104, pxCurrentTCB
 602 0070 03F10403 		add	r3, r3, #4	@ D.6460, pxCurrentTCB.104,
 603 0074 1846     		mov	r0, r3	@, D.6460
 604 0076 FFF7FEFF 		bl	uxListRemove	@
 767:Source/tasks.c **** 				{
 768:Source/tasks.c **** 					/* The current task must be in a ready list, so there is
 769:Source/tasks.c **** 					no need to check, and the port reset macro can be called
 770:Source/tasks.c **** 					directly. */
 771:Source/tasks.c **** 					portRESET_READY_PRIORITY( pxCurrentTCB->uxPriority, uxTopReadyPriority );
 772:Source/tasks.c **** 				}
 773:Source/tasks.c **** 
 774:Source/tasks.c **** 				prvAddCurrentTaskToDelayedList( xTimeToWake );
 605              		.loc 1 774 0
 606 007a 3869     		ldr	r0, [r7, #16]	@, xTimeToWake
 607 007c FFF7FEFF 		bl	prvAddCurrentTaskToDelayedList	@
 608              	.L25:
 775:Source/tasks.c **** 			}
 776:Source/tasks.c **** 		}
 777:Source/tasks.c **** 		xAlreadyYielded = xTaskResumeAll();
 609              		.loc 1 777 0
 610 0080 FFF7FEFF 		bl	xTaskResumeAll	@
 611 0084 F860     		str	r0, [r7, #12]	@, xAlreadyYielded
 778:Source/tasks.c **** 
 779:Source/tasks.c **** 		/* Force a reschedule if xTaskResumeAll has not already done so, we may
 780:Source/tasks.c **** 		have put ourselves to sleep. */
 781:Source/tasks.c **** 		if( xAlreadyYielded == pdFALSE )
 612              		.loc 1 781 0
 613 0086 FB68     		ldr	r3, [r7, #12]	@ tmp164, xAlreadyYielded
 614 0088 002B     		cmp	r3, #0	@ tmp164,
 615 008a 01D1     		bne	.L21	@,
 782:Source/tasks.c **** 		{
 783:Source/tasks.c **** 			portYIELD_WITHIN_API();
 616              		.loc 1 783 0
 617 008c FFF7FEFF 		bl	vPortYieldFromISR	@
 618              	.L21:
ARM GAS  C:\Users\Grzybek\AppData\Local\Temp\cccVQrHj.s 			page 26


 784:Source/tasks.c **** 		}
 785:Source/tasks.c **** 	}
 619              		.loc 1 785 0
 620 0090 07F11807 		add	r7, r7, #24	@,,
 621 0094 BD46     		mov	sp, r7
 622 0096 80BD     		pop	{r7, pc}
 623              	.L28:
 624              		.align	2
 625              	.L27:
 626 0098 00000000 		.word	xTickCount
 627 009c 00000000 		.word	pxCurrentTCB
 628              		.cfi_endproc
 629              	.LFE2:
 630              		.size	vTaskDelayUntil, .-vTaskDelayUntil
 631              		.section	.text.vTaskDelay,"ax",%progbits
 632              		.align	2
 633              		.global	vTaskDelay
 634              		.thumb
 635              		.thumb_func
 636              		.type	vTaskDelay, %function
 637              	vTaskDelay:
 638              	.LFB3:
 786:Source/tasks.c **** 
 787:Source/tasks.c **** #endif
 788:Source/tasks.c **** /*-----------------------------------------------------------*/
 789:Source/tasks.c **** 
 790:Source/tasks.c **** #if ( INCLUDE_vTaskDelay == 1 )
 791:Source/tasks.c **** 
 792:Source/tasks.c **** 	void vTaskDelay( portTickType xTicksToDelay )
 793:Source/tasks.c **** 	{
 639              		.loc 1 793 0
 640              		.cfi_startproc
 641              		@ args = 0, pretend = 0, frame = 16
 642              		@ frame_needed = 1, uses_anonymous_args = 0
 643 0000 80B5     		push	{r7, lr}	@
 644              	.LCFI9:
 645              		.cfi_def_cfa_offset 8
 646              		.cfi_offset 7, -8
 647              		.cfi_offset 14, -4
 648 0002 84B0     		sub	sp, sp, #16	@,,
 649              	.LCFI10:
 650              		.cfi_def_cfa_offset 24
 651 0004 00AF     		add	r7, sp, #0	@,,
 652              	.LCFI11:
 653              		.cfi_def_cfa_register 7
 654 0006 7860     		str	r0, [r7, #4]	@ xTicksToDelay, xTicksToDelay
 794:Source/tasks.c **** 	portTickType xTimeToWake;
 795:Source/tasks.c **** 	signed portBASE_TYPE xAlreadyYielded = pdFALSE;
 655              		.loc 1 795 0
 656 0008 4FF00003 		mov	r3, #0	@ tmp138,
 657 000c FB60     		str	r3, [r7, #12]	@ tmp138, xAlreadyYielded
 796:Source/tasks.c **** 
 797:Source/tasks.c **** 		/* A delay time of zero just forces a reschedule. */
 798:Source/tasks.c **** 		if( xTicksToDelay > ( portTickType ) 0U )
 658              		.loc 1 798 0
 659 000e 7B68     		ldr	r3, [r7, #4]	@ tmp139, xTicksToDelay
 660 0010 002B     		cmp	r3, #0	@ tmp139,
ARM GAS  C:\Users\Grzybek\AppData\Local\Temp\cccVQrHj.s 			page 27


 661 0012 13D0     		beq	.L30	@,
 799:Source/tasks.c **** 		{
 800:Source/tasks.c **** 			vTaskSuspendAll();
 662              		.loc 1 800 0
 663 0014 FFF7FEFF 		bl	vTaskSuspendAll	@
 801:Source/tasks.c **** 			{
 802:Source/tasks.c **** 				traceTASK_DELAY();
 803:Source/tasks.c **** 
 804:Source/tasks.c **** 				/* A task that is removed from the event list while the
 805:Source/tasks.c **** 				scheduler is suspended will not get placed in the ready
 806:Source/tasks.c **** 				list or removed from the blocked list until the scheduler
 807:Source/tasks.c **** 				is resumed.
 808:Source/tasks.c **** 
 809:Source/tasks.c **** 				This task cannot be in an event list as it is the currently
 810:Source/tasks.c **** 				executing task. */
 811:Source/tasks.c **** 
 812:Source/tasks.c **** 				/* Calculate the time to wake - this may overflow but this is
 813:Source/tasks.c **** 				not a problem. */
 814:Source/tasks.c **** 				xTimeToWake = xTickCount + xTicksToDelay;
 664              		.loc 1 814 0
 665 0018 0D4B     		ldr	r3, .L32	@ tmp140,
 666 001a 1A68     		ldr	r2, [r3, #0]	@ xTickCount.99, xTickCount
 667 001c 7B68     		ldr	r3, [r7, #4]	@ tmp142, xTicksToDelay
 668 001e D318     		adds	r3, r2, r3	@ tmp141, xTickCount.99, tmp142
 669 0020 BB60     		str	r3, [r7, #8]	@ tmp141, xTimeToWake
 815:Source/tasks.c **** 
 816:Source/tasks.c **** 				/* We must remove ourselves from the ready list before adding
 817:Source/tasks.c **** 				ourselves to the blocked list as the same list item is used for
 818:Source/tasks.c **** 				both lists. */
 819:Source/tasks.c **** 				if( uxListRemove( ( xListItem * ) &( pxCurrentTCB->xGenericListItem ) ) == 0 )
 670              		.loc 1 819 0
 671 0022 0C4B     		ldr	r3, .L32+4	@ tmp143,
 672 0024 1B68     		ldr	r3, [r3, #0]	@ pxCurrentTCB.100, pxCurrentTCB
 673 0026 03F10403 		add	r3, r3, #4	@ D.6434, pxCurrentTCB.100,
 674 002a 1846     		mov	r0, r3	@, D.6434
 675 002c FFF7FEFF 		bl	uxListRemove	@
 820:Source/tasks.c **** 				{
 821:Source/tasks.c **** 					/* The current task must be in a ready list, so there is
 822:Source/tasks.c **** 					no need to check, and the port reset macro can be called
 823:Source/tasks.c **** 					directly. */
 824:Source/tasks.c **** 					portRESET_READY_PRIORITY( pxCurrentTCB->uxPriority, uxTopReadyPriority );
 825:Source/tasks.c **** 				}
 826:Source/tasks.c **** 				prvAddCurrentTaskToDelayedList( xTimeToWake );
 676              		.loc 1 826 0
 677 0030 B868     		ldr	r0, [r7, #8]	@, xTimeToWake
 678 0032 FFF7FEFF 		bl	prvAddCurrentTaskToDelayedList	@
 827:Source/tasks.c **** 			}
 828:Source/tasks.c **** 			xAlreadyYielded = xTaskResumeAll();
 679              		.loc 1 828 0
 680 0036 FFF7FEFF 		bl	xTaskResumeAll	@
 681 003a F860     		str	r0, [r7, #12]	@, xAlreadyYielded
 682              	.L30:
 829:Source/tasks.c **** 		}
 830:Source/tasks.c **** 
 831:Source/tasks.c **** 		/* Force a reschedule if xTaskResumeAll has not already done so, we may
 832:Source/tasks.c **** 		have put ourselves to sleep. */
 833:Source/tasks.c **** 		if( xAlreadyYielded == pdFALSE )
ARM GAS  C:\Users\Grzybek\AppData\Local\Temp\cccVQrHj.s 			page 28


 683              		.loc 1 833 0
 684 003c FB68     		ldr	r3, [r7, #12]	@ tmp144, xAlreadyYielded
 685 003e 002B     		cmp	r3, #0	@ tmp144,
 686 0040 01D1     		bne	.L29	@,
 834:Source/tasks.c **** 		{
 835:Source/tasks.c **** 			portYIELD_WITHIN_API();
 687              		.loc 1 835 0
 688 0042 FFF7FEFF 		bl	vPortYieldFromISR	@
 689              	.L29:
 836:Source/tasks.c **** 		}
 837:Source/tasks.c **** 	}
 690              		.loc 1 837 0
 691 0046 07F11007 		add	r7, r7, #16	@,,
 692 004a BD46     		mov	sp, r7
 693 004c 80BD     		pop	{r7, pc}
 694              	.L33:
 695 004e 00BF     		.align	2
 696              	.L32:
 697 0050 00000000 		.word	xTickCount
 698 0054 00000000 		.word	pxCurrentTCB
 699              		.cfi_endproc
 700              	.LFE3:
 701              		.size	vTaskDelay, .-vTaskDelay
 702              		.section	.text.uxTaskPriorityGet,"ax",%progbits
 703              		.align	2
 704              		.global	uxTaskPriorityGet
 705              		.thumb
 706              		.thumb_func
 707              		.type	uxTaskPriorityGet, %function
 708              	uxTaskPriorityGet:
 709              	.LFB4:
 838:Source/tasks.c **** 
 839:Source/tasks.c **** #endif
 840:Source/tasks.c **** /*-----------------------------------------------------------*/
 841:Source/tasks.c **** 
 842:Source/tasks.c **** #if ( INCLUDE_eTaskStateGet == 1 )
 843:Source/tasks.c **** 
 844:Source/tasks.c **** 	eTaskState eTaskStateGet( xTaskHandle pxTask )
 845:Source/tasks.c **** 	{
 846:Source/tasks.c **** 	eTaskState eReturn;
 847:Source/tasks.c **** 	xList *pxStateList;
 848:Source/tasks.c **** 	tskTCB *pxTCB;
 849:Source/tasks.c **** 
 850:Source/tasks.c **** 		pxTCB = ( tskTCB * ) pxTask;
 851:Source/tasks.c **** 
 852:Source/tasks.c **** 		if( pxTCB == pxCurrentTCB )
 853:Source/tasks.c **** 		{
 854:Source/tasks.c **** 			/* The task calling this function is querying its own state. */
 855:Source/tasks.c **** 			eReturn = eRunning;
 856:Source/tasks.c **** 		}
 857:Source/tasks.c **** 		else
 858:Source/tasks.c **** 		{
 859:Source/tasks.c **** 			taskENTER_CRITICAL();
 860:Source/tasks.c **** 			{
 861:Source/tasks.c **** 				pxStateList = ( xList * ) listLIST_ITEM_CONTAINER( &( pxTCB->xGenericListItem ) );
 862:Source/tasks.c **** 			}
 863:Source/tasks.c **** 			taskEXIT_CRITICAL();
ARM GAS  C:\Users\Grzybek\AppData\Local\Temp\cccVQrHj.s 			page 29


 864:Source/tasks.c **** 
 865:Source/tasks.c **** 			if( ( pxStateList == pxDelayedTaskList ) || ( pxStateList == pxOverflowDelayedTaskList ) )
 866:Source/tasks.c **** 			{
 867:Source/tasks.c **** 				/* The task being queried is referenced from one of the Blocked
 868:Source/tasks.c **** 				lists. */
 869:Source/tasks.c **** 				eReturn = eBlocked;
 870:Source/tasks.c **** 			}
 871:Source/tasks.c **** 
 872:Source/tasks.c **** 			#if ( INCLUDE_vTaskSuspend == 1 )
 873:Source/tasks.c **** 				else if( pxStateList == &xSuspendedTaskList )
 874:Source/tasks.c **** 				{
 875:Source/tasks.c **** 					/* The task being queried is referenced from the suspended
 876:Source/tasks.c **** 					list. */
 877:Source/tasks.c **** 					eReturn = eSuspended;
 878:Source/tasks.c **** 				}
 879:Source/tasks.c **** 			#endif
 880:Source/tasks.c **** 
 881:Source/tasks.c **** 			#if ( INCLUDE_vTaskDelete == 1 )
 882:Source/tasks.c **** 				else if( pxStateList == &xTasksWaitingTermination )
 883:Source/tasks.c **** 				{
 884:Source/tasks.c **** 					/* The task being queried is referenced from the deleted
 885:Source/tasks.c **** 					tasks list. */
 886:Source/tasks.c **** 					eReturn = eDeleted;
 887:Source/tasks.c **** 				}
 888:Source/tasks.c **** 			#endif
 889:Source/tasks.c **** 
 890:Source/tasks.c **** 			else
 891:Source/tasks.c **** 			{
 892:Source/tasks.c **** 				/* If the task is not in any other state, it must be in the
 893:Source/tasks.c **** 				Ready (including pending ready) state. */
 894:Source/tasks.c **** 				eReturn = eReady;
 895:Source/tasks.c **** 			}
 896:Source/tasks.c **** 		}
 897:Source/tasks.c **** 
 898:Source/tasks.c **** 		return eReturn;
 899:Source/tasks.c **** 	}
 900:Source/tasks.c **** 
 901:Source/tasks.c **** #endif
 902:Source/tasks.c **** /*-----------------------------------------------------------*/
 903:Source/tasks.c **** 
 904:Source/tasks.c **** #if ( INCLUDE_uxTaskPriorityGet == 1 )
 905:Source/tasks.c **** 
 906:Source/tasks.c **** 	unsigned portBASE_TYPE uxTaskPriorityGet( xTaskHandle pxTask )
 907:Source/tasks.c **** 	{
 710              		.loc 1 907 0
 711              		.cfi_startproc
 712              		@ args = 0, pretend = 0, frame = 16
 713              		@ frame_needed = 1, uses_anonymous_args = 0
 714 0000 80B5     		push	{r7, lr}	@
 715              	.LCFI12:
 716              		.cfi_def_cfa_offset 8
 717              		.cfi_offset 7, -8
 718              		.cfi_offset 14, -4
 719 0002 84B0     		sub	sp, sp, #16	@,,
 720              	.LCFI13:
 721              		.cfi_def_cfa_offset 24
 722 0004 00AF     		add	r7, sp, #0	@,,
ARM GAS  C:\Users\Grzybek\AppData\Local\Temp\cccVQrHj.s 			page 30


 723              	.LCFI14:
 724              		.cfi_def_cfa_register 7
 725 0006 7860     		str	r0, [r7, #4]	@ pxTask, pxTask
 908:Source/tasks.c **** 	tskTCB *pxTCB;
 909:Source/tasks.c **** 	unsigned portBASE_TYPE uxReturn;
 910:Source/tasks.c **** 
 911:Source/tasks.c **** 		taskENTER_CRITICAL();
 726              		.loc 1 911 0
 727 0008 FFF7FEFF 		bl	vPortEnterCritical	@
 912:Source/tasks.c **** 		{
 913:Source/tasks.c **** 			/* If null is passed in here then we are changing the
 914:Source/tasks.c **** 			priority of the calling function. */
 915:Source/tasks.c **** 			pxTCB = prvGetTCBFromHandle( pxTask );
 728              		.loc 1 915 0
 729 000c 7B68     		ldr	r3, [r7, #4]	@ tmp137, pxTask
 730 000e 002B     		cmp	r3, #0	@ tmp137,
 731 0010 02D1     		bne	.L35	@,
 732              		.loc 1 915 0 is_stmt 0 discriminator 1
 733 0012 084B     		ldr	r3, .L38	@ tmp138,
 734 0014 1B68     		ldr	r3, [r3, #0]	@ iftmp.98, pxCurrentTCB
 735 0016 00E0     		b	.L36	@
 736              	.L35:
 737              		.loc 1 915 0 discriminator 2
 738 0018 7B68     		ldr	r3, [r7, #4]	@ iftmp.98, pxTask
 739              	.L36:
 740              		.loc 1 915 0 discriminator 3
 741 001a FB60     		str	r3, [r7, #12]	@ iftmp.98, pxTCB
 916:Source/tasks.c **** 			uxReturn = pxTCB->uxPriority;
 742              		.loc 1 916 0 is_stmt 1 discriminator 3
 743 001c FB68     		ldr	r3, [r7, #12]	@ tmp139, pxTCB
 744 001e DB6A     		ldr	r3, [r3, #44]	@ tmp140, pxTCB_5->uxPriority
 745 0020 BB60     		str	r3, [r7, #8]	@ tmp140, uxReturn
 917:Source/tasks.c **** 		}
 918:Source/tasks.c **** 		taskEXIT_CRITICAL();
 746              		.loc 1 918 0 discriminator 3
 747 0022 FFF7FEFF 		bl	vPortExitCritical	@
 919:Source/tasks.c **** 
 920:Source/tasks.c **** 		return uxReturn;
 748              		.loc 1 920 0 discriminator 3
 749 0026 BB68     		ldr	r3, [r7, #8]	@ D.6428, uxReturn
 921:Source/tasks.c **** 	}
 750              		.loc 1 921 0 discriminator 3
 751 0028 1846     		mov	r0, r3	@, <retval>
 752 002a 07F11007 		add	r7, r7, #16	@,,
 753 002e BD46     		mov	sp, r7
 754 0030 80BD     		pop	{r7, pc}
 755              	.L39:
 756 0032 00BF     		.align	2
 757              	.L38:
 758 0034 00000000 		.word	pxCurrentTCB
 759              		.cfi_endproc
 760              	.LFE4:
 761              		.size	uxTaskPriorityGet, .-uxTaskPriorityGet
 762              		.section	.text.vTaskPrioritySet,"ax",%progbits
 763              		.align	2
 764              		.global	vTaskPrioritySet
 765              		.thumb
ARM GAS  C:\Users\Grzybek\AppData\Local\Temp\cccVQrHj.s 			page 31


 766              		.thumb_func
 767              		.type	vTaskPrioritySet, %function
 768              	vTaskPrioritySet:
 769              	.LFB5:
 922:Source/tasks.c **** 
 923:Source/tasks.c **** #endif
 924:Source/tasks.c **** /*-----------------------------------------------------------*/
 925:Source/tasks.c **** 
 926:Source/tasks.c **** #if ( INCLUDE_vTaskPrioritySet == 1 )
 927:Source/tasks.c **** 
 928:Source/tasks.c **** 	void vTaskPrioritySet( xTaskHandle pxTask, unsigned portBASE_TYPE uxNewPriority )
 929:Source/tasks.c **** 	{
 770              		.loc 1 929 0
 771              		.cfi_startproc
 772              		@ args = 0, pretend = 0, frame = 24
 773              		@ frame_needed = 1, uses_anonymous_args = 0
 774 0000 80B5     		push	{r7, lr}	@
 775              	.LCFI15:
 776              		.cfi_def_cfa_offset 8
 777              		.cfi_offset 7, -8
 778              		.cfi_offset 14, -4
 779 0002 86B0     		sub	sp, sp, #24	@,,
 780              	.LCFI16:
 781              		.cfi_def_cfa_offset 32
 782 0004 00AF     		add	r7, sp, #0	@,,
 783              	.LCFI17:
 784              		.cfi_def_cfa_register 7
 785 0006 7860     		str	r0, [r7, #4]	@ pxTask, pxTask
 786 0008 3960     		str	r1, [r7, #0]	@ uxNewPriority, uxNewPriority
 930:Source/tasks.c **** 	tskTCB *pxTCB;
 931:Source/tasks.c **** 	unsigned portBASE_TYPE uxCurrentPriority, uxPriorityUsedOnEntry;
 932:Source/tasks.c **** 	portBASE_TYPE xYieldRequired = pdFALSE;
 787              		.loc 1 932 0
 788 000a 4FF00003 		mov	r3, #0	@ tmp149,
 789 000e 7B61     		str	r3, [r7, #20]	@ tmp149, xYieldRequired
 933:Source/tasks.c **** 
 934:Source/tasks.c **** 		configASSERT( ( uxNewPriority < configMAX_PRIORITIES ) );
 935:Source/tasks.c **** 
 936:Source/tasks.c **** 		/* Ensure the new priority is valid. */
 937:Source/tasks.c **** 		if( uxNewPriority >= configMAX_PRIORITIES )
 790              		.loc 1 937 0
 791 0010 3B68     		ldr	r3, [r7, #0]	@ tmp150, uxNewPriority
 792 0012 042B     		cmp	r3, #4	@ tmp150,
 793 0014 02D9     		bls	.L41	@,
 938:Source/tasks.c **** 		{
 939:Source/tasks.c **** 			uxNewPriority = configMAX_PRIORITIES - ( unsigned portBASE_TYPE ) 1U;
 794              		.loc 1 939 0
 795 0016 4FF00403 		mov	r3, #4	@ tmp151,
 796 001a 3B60     		str	r3, [r7, #0]	@ tmp151, uxNewPriority
 797              	.L41:
 940:Source/tasks.c **** 		}
 941:Source/tasks.c **** 
 942:Source/tasks.c **** 		taskENTER_CRITICAL();
 798              		.loc 1 942 0
 799 001c FFF7FEFF 		bl	vPortEnterCritical	@
 943:Source/tasks.c **** 		{
 944:Source/tasks.c **** 			if( pxTask == pxCurrentTCB )
ARM GAS  C:\Users\Grzybek\AppData\Local\Temp\cccVQrHj.s 			page 32


 800              		.loc 1 944 0
 801 0020 3A4B     		ldr	r3, .L51	@ tmp152,
 802 0022 1B68     		ldr	r3, [r3, #0]	@ pxCurrentTCB.94, pxCurrentTCB
 803 0024 7A68     		ldr	r2, [r7, #4]	@ tmp153, pxTask
 804 0026 9A42     		cmp	r2, r3	@ tmp153, pxCurrentTCB.94
 805 0028 02D1     		bne	.L42	@,
 945:Source/tasks.c **** 			{
 946:Source/tasks.c **** 				pxTask = NULL;
 806              		.loc 1 946 0
 807 002a 4FF00003 		mov	r3, #0	@ tmp154,
 808 002e 7B60     		str	r3, [r7, #4]	@ tmp154, pxTask
 809              	.L42:
 947:Source/tasks.c **** 			}
 948:Source/tasks.c **** 
 949:Source/tasks.c **** 			/* If null is passed in here then we are changing the
 950:Source/tasks.c **** 			priority of the calling function. */
 951:Source/tasks.c **** 			pxTCB = prvGetTCBFromHandle( pxTask );
 810              		.loc 1 951 0
 811 0030 7B68     		ldr	r3, [r7, #4]	@ tmp155, pxTask
 812 0032 002B     		cmp	r3, #0	@ tmp155,
 813 0034 02D1     		bne	.L43	@,
 814              		.loc 1 951 0 is_stmt 0 discriminator 1
 815 0036 354B     		ldr	r3, .L51	@ tmp156,
 816 0038 1B68     		ldr	r3, [r3, #0]	@ iftmp.95, pxCurrentTCB
 817 003a 00E0     		b	.L44	@
 818              	.L43:
 819              		.loc 1 951 0 discriminator 2
 820 003c 7B68     		ldr	r3, [r7, #4]	@ iftmp.95, pxTask
 821              	.L44:
 822              		.loc 1 951 0 discriminator 3
 823 003e 3B61     		str	r3, [r7, #16]	@ iftmp.95, pxTCB
 952:Source/tasks.c **** 
 953:Source/tasks.c **** 			traceTASK_PRIORITY_SET( pxTCB, uxNewPriority );
 954:Source/tasks.c **** 
 955:Source/tasks.c **** 			#if ( configUSE_MUTEXES == 1 )
 956:Source/tasks.c **** 			{
 957:Source/tasks.c **** 				uxCurrentPriority = pxTCB->uxBasePriority;
 824              		.loc 1 957 0 is_stmt 1 discriminator 3
 825 0040 3B69     		ldr	r3, [r7, #16]	@ tmp157, pxTCB
 826 0042 5B6C     		ldr	r3, [r3, #68]	@ tmp158, pxTCB_13->uxBasePriority
 827 0044 FB60     		str	r3, [r7, #12]	@ tmp158, uxCurrentPriority
 958:Source/tasks.c **** 			}
 959:Source/tasks.c **** 			#else
 960:Source/tasks.c **** 			{
 961:Source/tasks.c **** 				uxCurrentPriority = pxTCB->uxPriority;
 962:Source/tasks.c **** 			}
 963:Source/tasks.c **** 			#endif
 964:Source/tasks.c **** 
 965:Source/tasks.c **** 			if( uxCurrentPriority != uxNewPriority )
 828              		.loc 1 965 0 discriminator 3
 829 0046 FA68     		ldr	r2, [r7, #12]	@ tmp159, uxCurrentPriority
 830 0048 3B68     		ldr	r3, [r7, #0]	@ tmp160, uxNewPriority
 831 004a 9A42     		cmp	r2, r3	@ tmp159, tmp160
 832 004c 57D0     		beq	.L45	@,
 966:Source/tasks.c **** 			{
 967:Source/tasks.c **** 				/* The priority change may have readied a task of higher
 968:Source/tasks.c **** 				priority than the calling task. */
ARM GAS  C:\Users\Grzybek\AppData\Local\Temp\cccVQrHj.s 			page 33


 969:Source/tasks.c **** 				if( uxNewPriority > uxCurrentPriority )
 833              		.loc 1 969 0
 834 004e 3A68     		ldr	r2, [r7, #0]	@ tmp161, uxNewPriority
 835 0050 FB68     		ldr	r3, [r7, #12]	@ tmp162, uxCurrentPriority
 836 0052 9A42     		cmp	r2, r3	@ tmp161, tmp162
 837 0054 06D9     		bls	.L46	@,
 970:Source/tasks.c **** 				{
 971:Source/tasks.c **** 					if( pxTask != NULL )
 838              		.loc 1 971 0
 839 0056 7B68     		ldr	r3, [r7, #4]	@ tmp163, pxTask
 840 0058 002B     		cmp	r3, #0	@ tmp163,
 841 005a 09D0     		beq	.L47	@,
 972:Source/tasks.c **** 					{
 973:Source/tasks.c **** 						/* The priority of another task is being raised.  If we
 974:Source/tasks.c **** 						were raising the priority of the currently running task
 975:Source/tasks.c **** 						there would be no need to switch as it must have already
 976:Source/tasks.c **** 						been the highest priority task. */
 977:Source/tasks.c **** 						xYieldRequired = pdTRUE;
 842              		.loc 1 977 0
 843 005c 4FF00103 		mov	r3, #1	@ tmp164,
 844 0060 7B61     		str	r3, [r7, #20]	@ tmp164, xYieldRequired
 845 0062 05E0     		b	.L47	@
 846              	.L46:
 978:Source/tasks.c **** 					}
 979:Source/tasks.c **** 				}
 980:Source/tasks.c **** 				else if( pxTask == NULL )
 847              		.loc 1 980 0
 848 0064 7B68     		ldr	r3, [r7, #4]	@ tmp165, pxTask
 849 0066 002B     		cmp	r3, #0	@ tmp165,
 850 0068 02D1     		bne	.L47	@,
 981:Source/tasks.c **** 				{
 982:Source/tasks.c **** 					/* Setting our own priority down means there may now be another
 983:Source/tasks.c **** 					task of higher priority that is ready to execute. */
 984:Source/tasks.c **** 					xYieldRequired = pdTRUE;
 851              		.loc 1 984 0
 852 006a 4FF00103 		mov	r3, #1	@ tmp166,
 853 006e 7B61     		str	r3, [r7, #20]	@ tmp166, xYieldRequired
 854              	.L47:
 985:Source/tasks.c **** 				}
 986:Source/tasks.c **** 
 987:Source/tasks.c **** 				/* Remember the ready list the task might be referenced from
 988:Source/tasks.c **** 				before its uxPriority member is changed so the
 989:Source/tasks.c **** 				taskRESET_READY_PRIORITY() macro can function correctly. */
 990:Source/tasks.c **** 				uxPriorityUsedOnEntry = pxTCB->uxPriority;
 855              		.loc 1 990 0
 856 0070 3B69     		ldr	r3, [r7, #16]	@ tmp167, pxTCB
 857 0072 DB6A     		ldr	r3, [r3, #44]	@ tmp168, pxTCB_13->uxPriority
 858 0074 BB60     		str	r3, [r7, #8]	@ tmp168, uxPriorityUsedOnEntry
 991:Source/tasks.c **** 
 992:Source/tasks.c **** 				#if ( configUSE_MUTEXES == 1 )
 993:Source/tasks.c **** 				{
 994:Source/tasks.c **** 					/* Only change the priority being used if the task is not
 995:Source/tasks.c **** 					currently using an inherited priority. */
 996:Source/tasks.c **** 					if( pxTCB->uxBasePriority == pxTCB->uxPriority )
 859              		.loc 1 996 0
 860 0076 3B69     		ldr	r3, [r7, #16]	@ tmp169, pxTCB
 861 0078 5A6C     		ldr	r2, [r3, #68]	@ D.6401, pxTCB_13->uxBasePriority
ARM GAS  C:\Users\Grzybek\AppData\Local\Temp\cccVQrHj.s 			page 34


 862 007a 3B69     		ldr	r3, [r7, #16]	@ tmp170, pxTCB
 863 007c DB6A     		ldr	r3, [r3, #44]	@ D.6402, pxTCB_13->uxPriority
 864 007e 9A42     		cmp	r2, r3	@ D.6401, D.6402
 865 0080 02D1     		bne	.L48	@,
 997:Source/tasks.c **** 					{
 998:Source/tasks.c **** 						pxTCB->uxPriority = uxNewPriority;
 866              		.loc 1 998 0
 867 0082 3B69     		ldr	r3, [r7, #16]	@ tmp171, pxTCB
 868 0084 3A68     		ldr	r2, [r7, #0]	@ tmp172, uxNewPriority
 869 0086 DA62     		str	r2, [r3, #44]	@ tmp172, pxTCB_13->uxPriority
 870              	.L48:
 999:Source/tasks.c **** 					}
1000:Source/tasks.c **** 
1001:Source/tasks.c **** 					/* The base priority gets set whatever. */
1002:Source/tasks.c **** 					pxTCB->uxBasePriority = uxNewPriority;
 871              		.loc 1 1002 0
 872 0088 3B69     		ldr	r3, [r7, #16]	@ tmp173, pxTCB
 873 008a 3A68     		ldr	r2, [r7, #0]	@ tmp174, uxNewPriority
 874 008c 5A64     		str	r2, [r3, #68]	@ tmp174, pxTCB_13->uxBasePriority
1003:Source/tasks.c **** 				}
1004:Source/tasks.c **** 				#else
1005:Source/tasks.c **** 				{
1006:Source/tasks.c **** 					pxTCB->uxPriority = uxNewPriority;
1007:Source/tasks.c **** 				}
1008:Source/tasks.c **** 				#endif
1009:Source/tasks.c **** 
1010:Source/tasks.c **** 				listSET_LIST_ITEM_VALUE( &( pxTCB->xEventListItem ), ( configMAX_PRIORITIES - ( portTickType ) 
 875              		.loc 1 1010 0
 876 008e 3B68     		ldr	r3, [r7, #0]	@ tmp175, uxNewPriority
 877 0090 C3F10502 		rsb	r2, r3, #5	@ D.6405, tmp175,
 878 0094 3B69     		ldr	r3, [r7, #16]	@ tmp176, pxTCB
 879 0096 9A61     		str	r2, [r3, #24]	@ D.6405, pxTCB_13->xEventListItem.xItemValue
1011:Source/tasks.c **** 
1012:Source/tasks.c **** 				/* If the task is in the blocked or suspended list we need do
1013:Source/tasks.c **** 				nothing more than change it's priority variable. However, if
1014:Source/tasks.c **** 				the task is in a ready list it needs to be removed and placed
1015:Source/tasks.c **** 				in the queue appropriate to its new priority. */
1016:Source/tasks.c **** 				if( listIS_CONTAINED_WITHIN( &( pxReadyTasksLists[ uxCurrentPriority ] ), &( pxTCB->xGenericLis
 880              		.loc 1 1016 0
 881 0098 3B69     		ldr	r3, [r7, #16]	@ tmp177, pxTCB
 882 009a 5969     		ldr	r1, [r3, #20]	@ D.6406, pxTCB_13->xGenericListItem.pvContainer
 883 009c FA68     		ldr	r2, [r7, #12]	@ tmp178, uxCurrentPriority
 884 009e 1346     		mov	r3, r2	@ tmp179, tmp178
 885 00a0 4FEA8303 		lsl	r3, r3, #2	@ tmp179, tmp179,
 886 00a4 9B18     		adds	r3, r3, r2	@ tmp179, tmp179, tmp178
 887 00a6 4FEA8303 		lsl	r3, r3, #2	@ tmp180, tmp179,
 888 00aa 194A     		ldr	r2, .L51+4	@ tmp181,
 889 00ac 9B18     		adds	r3, r3, r2	@ D.6407, tmp179, tmp181
 890 00ae 9942     		cmp	r1, r3	@ D.6406, D.6407
 891 00b0 20D1     		bne	.L49	@,
1017:Source/tasks.c **** 				{
1018:Source/tasks.c **** 					/* The task is currently in its ready list - remove before adding
1019:Source/tasks.c **** 					it to it's new ready list.  As we are in a critical section we
1020:Source/tasks.c **** 					can do this even if the scheduler is suspended. */
1021:Source/tasks.c **** 					if( uxListRemove( ( xListItem * ) &( pxTCB->xGenericListItem ) ) == 0 )
 892              		.loc 1 1021 0
 893 00b2 3B69     		ldr	r3, [r7, #16]	@ tmp182, pxTCB
ARM GAS  C:\Users\Grzybek\AppData\Local\Temp\cccVQrHj.s 			page 35


 894 00b4 03F10403 		add	r3, r3, #4	@ D.6410, tmp182,
 895 00b8 1846     		mov	r0, r3	@, D.6410
 896 00ba FFF7FEFF 		bl	uxListRemove	@
1022:Source/tasks.c **** 					{
1023:Source/tasks.c **** 						taskRESET_READY_PRIORITY( uxPriorityUsedOnEntry );
1024:Source/tasks.c **** 					}
1025:Source/tasks.c **** 					prvAddTaskToReadyQueue( pxTCB );
 897              		.loc 1 1025 0
 898 00be 3B69     		ldr	r3, [r7, #16]	@ tmp183, pxTCB
 899 00c0 DA6A     		ldr	r2, [r3, #44]	@ D.6414, pxTCB_13->uxPriority
 900 00c2 144B     		ldr	r3, .L51+8	@ tmp184,
 901 00c4 1B68     		ldr	r3, [r3, #0]	@ uxTopReadyPriority.96, uxTopReadyPriority
 902 00c6 9A42     		cmp	r2, r3	@ D.6414, uxTopReadyPriority.96
 903 00c8 03D9     		bls	.L50	@,
 904              		.loc 1 1025 0 is_stmt 0 discriminator 1
 905 00ca 3B69     		ldr	r3, [r7, #16]	@ tmp185, pxTCB
 906 00cc DA6A     		ldr	r2, [r3, #44]	@ uxTopReadyPriority.97, pxTCB_13->uxPriority
 907 00ce 114B     		ldr	r3, .L51+8	@ tmp186,
 908 00d0 1A60     		str	r2, [r3, #0]	@ uxTopReadyPriority.97, uxTopReadyPriority
 909              	.L50:
 910              		.loc 1 1025 0 discriminator 2
 911 00d2 3B69     		ldr	r3, [r7, #16]	@ tmp187, pxTCB
 912 00d4 DA6A     		ldr	r2, [r3, #44]	@ D.6419, pxTCB_13->uxPriority
 913 00d6 1346     		mov	r3, r2	@ tmp188, D.6419
 914 00d8 4FEA8303 		lsl	r3, r3, #2	@ tmp188, tmp188,
 915 00dc 9B18     		adds	r3, r3, r2	@ tmp188, tmp188, D.6419
 916 00de 4FEA8303 		lsl	r3, r3, #2	@ tmp189, tmp188,
 917 00e2 0B4A     		ldr	r2, .L51+4	@ tmp190,
 918 00e4 9A18     		adds	r2, r3, r2	@ D.6420, tmp188, tmp190
 919 00e6 3B69     		ldr	r3, [r7, #16]	@ tmp191, pxTCB
 920 00e8 03F10403 		add	r3, r3, #4	@ D.6421, tmp191,
 921 00ec 1046     		mov	r0, r2	@, D.6420
 922 00ee 1946     		mov	r1, r3	@, D.6421
 923 00f0 FFF7FEFF 		bl	vListInsertEnd	@
 924              	.L49:
1026:Source/tasks.c **** 				}
1027:Source/tasks.c **** 
1028:Source/tasks.c **** 				if( xYieldRequired == pdTRUE )
 925              		.loc 1 1028 0 is_stmt 1
 926 00f4 7B69     		ldr	r3, [r7, #20]	@ tmp192, xYieldRequired
 927 00f6 012B     		cmp	r3, #1	@ tmp192,
 928 00f8 01D1     		bne	.L45	@,
1029:Source/tasks.c **** 				{
1030:Source/tasks.c **** 					portYIELD_WITHIN_API();
 929              		.loc 1 1030 0
 930 00fa FFF7FEFF 		bl	vPortYieldFromISR	@
 931              	.L45:
1031:Source/tasks.c **** 				}
1032:Source/tasks.c **** 			}
1033:Source/tasks.c **** 		}
1034:Source/tasks.c **** 		taskEXIT_CRITICAL();
 932              		.loc 1 1034 0
 933 00fe FFF7FEFF 		bl	vPortExitCritical	@
1035:Source/tasks.c **** 
1036:Source/tasks.c **** 		/* Remove compiler warning about unused parameter when the port
1037:Source/tasks.c **** 		optimised task selection is not being used. */
1038:Source/tasks.c **** 		( void ) uxPriorityUsedOnEntry;
ARM GAS  C:\Users\Grzybek\AppData\Local\Temp\cccVQrHj.s 			page 36


1039:Source/tasks.c **** 	}
 934              		.loc 1 1039 0
 935 0102 07F11807 		add	r7, r7, #24	@,,
 936 0106 BD46     		mov	sp, r7
 937 0108 80BD     		pop	{r7, pc}
 938              	.L52:
 939 010a 00BF     		.align	2
 940              	.L51:
 941 010c 00000000 		.word	pxCurrentTCB
 942 0110 00000000 		.word	pxReadyTasksLists
 943 0114 00000000 		.word	uxTopReadyPriority
 944              		.cfi_endproc
 945              	.LFE5:
 946              		.size	vTaskPrioritySet, .-vTaskPrioritySet
 947              		.section	.text.vTaskSuspend,"ax",%progbits
 948              		.align	2
 949              		.global	vTaskSuspend
 950              		.thumb
 951              		.thumb_func
 952              		.type	vTaskSuspend, %function
 953              	vTaskSuspend:
 954              	.LFB6:
1040:Source/tasks.c **** 
1041:Source/tasks.c **** #endif
1042:Source/tasks.c **** /*-----------------------------------------------------------*/
1043:Source/tasks.c **** 
1044:Source/tasks.c **** #if ( INCLUDE_vTaskSuspend == 1 )
1045:Source/tasks.c **** 
1046:Source/tasks.c **** 	void vTaskSuspend( xTaskHandle pxTaskToSuspend )
1047:Source/tasks.c **** 	{
 955              		.loc 1 1047 0
 956              		.cfi_startproc
 957              		@ args = 0, pretend = 0, frame = 16
 958              		@ frame_needed = 1, uses_anonymous_args = 0
 959 0000 80B5     		push	{r7, lr}	@
 960              	.LCFI18:
 961              		.cfi_def_cfa_offset 8
 962              		.cfi_offset 7, -8
 963              		.cfi_offset 14, -4
 964 0002 84B0     		sub	sp, sp, #16	@,,
 965              	.LCFI19:
 966              		.cfi_def_cfa_offset 24
 967 0004 00AF     		add	r7, sp, #0	@,,
 968              	.LCFI20:
 969              		.cfi_def_cfa_register 7
 970 0006 7860     		str	r0, [r7, #4]	@ pxTaskToSuspend, pxTaskToSuspend
1048:Source/tasks.c **** 	tskTCB *pxTCB;
1049:Source/tasks.c **** 
1050:Source/tasks.c **** 		taskENTER_CRITICAL();
 971              		.loc 1 1050 0
 972 0008 FFF7FEFF 		bl	vPortEnterCritical	@
1051:Source/tasks.c **** 		{
1052:Source/tasks.c **** 			/* Ensure a yield is performed if the current task is being
1053:Source/tasks.c **** 			suspended. */
1054:Source/tasks.c **** 			if( pxTaskToSuspend == pxCurrentTCB )
 973              		.loc 1 1054 0
 974 000c 214B     		ldr	r3, .L61	@ tmp144,
ARM GAS  C:\Users\Grzybek\AppData\Local\Temp\cccVQrHj.s 			page 37


 975 000e 1B68     		ldr	r3, [r3, #0]	@ pxCurrentTCB.90, pxCurrentTCB
 976 0010 7A68     		ldr	r2, [r7, #4]	@ tmp145, pxTaskToSuspend
 977 0012 9A42     		cmp	r2, r3	@ tmp145, pxCurrentTCB.90
 978 0014 02D1     		bne	.L54	@,
1055:Source/tasks.c **** 			{
1056:Source/tasks.c **** 				pxTaskToSuspend = NULL;
 979              		.loc 1 1056 0
 980 0016 4FF00003 		mov	r3, #0	@ tmp146,
 981 001a 7B60     		str	r3, [r7, #4]	@ tmp146, pxTaskToSuspend
 982              	.L54:
1057:Source/tasks.c **** 			}
1058:Source/tasks.c **** 
1059:Source/tasks.c **** 			/* If null is passed in here then we are suspending ourselves. */
1060:Source/tasks.c **** 			pxTCB = prvGetTCBFromHandle( pxTaskToSuspend );
 983              		.loc 1 1060 0
 984 001c 7B68     		ldr	r3, [r7, #4]	@ tmp147, pxTaskToSuspend
 985 001e 002B     		cmp	r3, #0	@ tmp147,
 986 0020 02D1     		bne	.L55	@,
 987              		.loc 1 1060 0 is_stmt 0 discriminator 1
 988 0022 1C4B     		ldr	r3, .L61	@ tmp148,
 989 0024 1B68     		ldr	r3, [r3, #0]	@ iftmp.91, pxCurrentTCB
 990 0026 00E0     		b	.L56	@
 991              	.L55:
 992              		.loc 1 1060 0 discriminator 2
 993 0028 7B68     		ldr	r3, [r7, #4]	@ iftmp.91, pxTaskToSuspend
 994              	.L56:
 995              		.loc 1 1060 0 discriminator 3
 996 002a FB60     		str	r3, [r7, #12]	@ iftmp.91, pxTCB
1061:Source/tasks.c **** 
1062:Source/tasks.c **** 			traceTASK_SUSPEND( pxTCB );
1063:Source/tasks.c **** 
1064:Source/tasks.c **** 			/* Remove task from the ready/delayed list and place in the	suspended list. */
1065:Source/tasks.c **** 			if( uxListRemove( ( xListItem * ) &( pxTCB->xGenericListItem ) ) == 0 )
 997              		.loc 1 1065 0 is_stmt 1 discriminator 3
 998 002c FB68     		ldr	r3, [r7, #12]	@ tmp149, pxTCB
 999 002e 03F10403 		add	r3, r3, #4	@ D.6363, tmp149,
 1000 0032 1846     		mov	r0, r3	@, D.6363
 1001 0034 FFF7FEFF 		bl	uxListRemove	@
1066:Source/tasks.c **** 			{
1067:Source/tasks.c **** 				taskRESET_READY_PRIORITY( pxTCB->uxPriority );
1068:Source/tasks.c **** 			}
1069:Source/tasks.c **** 
1070:Source/tasks.c **** 			/* Is the task waiting on an event also? */
1071:Source/tasks.c **** 			if( pxTCB->xEventListItem.pvContainer != NULL )
 1002              		.loc 1 1071 0 discriminator 3
 1003 0038 FB68     		ldr	r3, [r7, #12]	@ tmp150, pxTCB
 1004 003a 9B6A     		ldr	r3, [r3, #40]	@ D.6367, pxTCB_8->xEventListItem.pvContainer
 1005 003c 002B     		cmp	r3, #0	@ D.6367,
 1006 003e 05D0     		beq	.L57	@,
1072:Source/tasks.c **** 			{
1073:Source/tasks.c **** 				uxListRemove( &( pxTCB->xEventListItem ) );
 1007              		.loc 1 1073 0
 1008 0040 FB68     		ldr	r3, [r7, #12]	@ tmp151, pxTCB
 1009 0042 03F11803 		add	r3, r3, #24	@ D.6370, tmp151,
 1010 0046 1846     		mov	r0, r3	@, D.6370
 1011 0048 FFF7FEFF 		bl	uxListRemove	@
 1012              	.L57:
ARM GAS  C:\Users\Grzybek\AppData\Local\Temp\cccVQrHj.s 			page 38


1074:Source/tasks.c **** 			}
1075:Source/tasks.c **** 
1076:Source/tasks.c **** 			vListInsertEnd( ( xList * ) &xSuspendedTaskList, &( pxTCB->xGenericListItem ) );
 1013              		.loc 1 1076 0
 1014 004c FB68     		ldr	r3, [r7, #12]	@ tmp152, pxTCB
 1015 004e 03F10403 		add	r3, r3, #4	@ D.6371, tmp152,
 1016 0052 1148     		ldr	r0, .L61+4	@,
 1017 0054 1946     		mov	r1, r3	@, D.6371
 1018 0056 FFF7FEFF 		bl	vListInsertEnd	@
1077:Source/tasks.c **** 		}
1078:Source/tasks.c **** 		taskEXIT_CRITICAL();
 1019              		.loc 1 1078 0
 1020 005a FFF7FEFF 		bl	vPortExitCritical	@
1079:Source/tasks.c **** 
1080:Source/tasks.c **** 		if( ( void * ) pxTaskToSuspend == NULL )
 1021              		.loc 1 1080 0
 1022 005e 7B68     		ldr	r3, [r7, #4]	@ tmp153, pxTaskToSuspend
 1023 0060 002B     		cmp	r3, #0	@ tmp153,
 1024 0062 13D1     		bne	.L53	@,
1081:Source/tasks.c **** 		{
1082:Source/tasks.c **** 			if( xSchedulerRunning != pdFALSE )
 1025              		.loc 1 1082 0
 1026 0064 0D4B     		ldr	r3, .L61+8	@ tmp154,
 1027 0066 1B68     		ldr	r3, [r3, #0]	@ xSchedulerRunning.92, xSchedulerRunning
 1028 0068 002B     		cmp	r3, #0	@ xSchedulerRunning.92,
 1029 006a 02D0     		beq	.L59	@,
1083:Source/tasks.c **** 			{
1084:Source/tasks.c **** 				/* We have just suspended the current task. */
1085:Source/tasks.c **** 				portYIELD_WITHIN_API();
 1030              		.loc 1 1085 0
 1031 006c FFF7FEFF 		bl	vPortYieldFromISR	@
 1032 0070 0CE0     		b	.L53	@
 1033              	.L59:
1086:Source/tasks.c **** 			}
1087:Source/tasks.c **** 			else
1088:Source/tasks.c **** 			{
1089:Source/tasks.c **** 				/* The scheduler is not running, but the task that was pointed
1090:Source/tasks.c **** 				to by pxCurrentTCB has just been suspended and pxCurrentTCB
1091:Source/tasks.c **** 				must be adjusted to point to a different task. */
1092:Source/tasks.c **** 				if( listCURRENT_LIST_LENGTH( &xSuspendedTaskList ) == uxCurrentNumberOfTasks )
 1034              		.loc 1 1092 0
 1035 0072 094B     		ldr	r3, .L61+4	@ tmp155,
 1036 0074 1A68     		ldr	r2, [r3, #0]	@ D.6378, xSuspendedTaskList.uxNumberOfItems
 1037 0076 0A4B     		ldr	r3, .L61+12	@ tmp156,
 1038 0078 1B68     		ldr	r3, [r3, #0]	@ uxCurrentNumberOfTasks.93, uxCurrentNumberOfTasks
 1039 007a 9A42     		cmp	r2, r3	@ D.6378, uxCurrentNumberOfTasks.93
 1040 007c 04D1     		bne	.L60	@,
1093:Source/tasks.c **** 				{
1094:Source/tasks.c **** 					/* No other tasks are ready, so set pxCurrentTCB back to
1095:Source/tasks.c **** 					NULL so when the next task is created pxCurrentTCB will
1096:Source/tasks.c **** 					be set to point to it no matter what its relative priority
1097:Source/tasks.c **** 					is. */
1098:Source/tasks.c **** 					pxCurrentTCB = NULL;
 1041              		.loc 1 1098 0
 1042 007e 054B     		ldr	r3, .L61	@ tmp157,
 1043 0080 4FF00002 		mov	r2, #0	@ tmp158,
 1044 0084 1A60     		str	r2, [r3, #0]	@ tmp158, pxCurrentTCB
ARM GAS  C:\Users\Grzybek\AppData\Local\Temp\cccVQrHj.s 			page 39


 1045 0086 01E0     		b	.L53	@
 1046              	.L60:
1099:Source/tasks.c **** 				}
1100:Source/tasks.c **** 				else
1101:Source/tasks.c **** 				{
1102:Source/tasks.c **** 					vTaskSwitchContext();
 1047              		.loc 1 1102 0
 1048 0088 FFF7FEFF 		bl	vTaskSwitchContext	@
 1049              	.L53:
1103:Source/tasks.c **** 				}
1104:Source/tasks.c **** 			}
1105:Source/tasks.c **** 		}
1106:Source/tasks.c **** 	}
 1050              		.loc 1 1106 0
 1051 008c 07F11007 		add	r7, r7, #16	@,,
 1052 0090 BD46     		mov	sp, r7
 1053 0092 80BD     		pop	{r7, pc}
 1054              	.L62:
 1055              		.align	2
 1056              	.L61:
 1057 0094 00000000 		.word	pxCurrentTCB
 1058 0098 00000000 		.word	xSuspendedTaskList
 1059 009c 00000000 		.word	xSchedulerRunning
 1060 00a0 00000000 		.word	uxCurrentNumberOfTasks
 1061              		.cfi_endproc
 1062              	.LFE6:
 1063              		.size	vTaskSuspend, .-vTaskSuspend
 1064              		.section	.text.xTaskIsTaskSuspended,"ax",%progbits
 1065              		.align	2
 1066              		.global	xTaskIsTaskSuspended
 1067              		.thumb
 1068              		.thumb_func
 1069              		.type	xTaskIsTaskSuspended, %function
 1070              	xTaskIsTaskSuspended:
 1071              	.LFB7:
1107:Source/tasks.c **** 
1108:Source/tasks.c **** #endif
1109:Source/tasks.c **** /*-----------------------------------------------------------*/
1110:Source/tasks.c **** 
1111:Source/tasks.c **** #if ( INCLUDE_vTaskSuspend == 1 )
1112:Source/tasks.c **** 
1113:Source/tasks.c **** 	signed portBASE_TYPE xTaskIsTaskSuspended( xTaskHandle xTask )
1114:Source/tasks.c **** 	{
 1072              		.loc 1 1114 0
 1073              		.cfi_startproc
 1074              		@ args = 0, pretend = 0, frame = 16
 1075              		@ frame_needed = 1, uses_anonymous_args = 0
 1076              		@ link register save eliminated.
 1077 0000 80B4     		push	{r7}	@
 1078              	.LCFI21:
 1079              		.cfi_def_cfa_offset 4
 1080              		.cfi_offset 7, -4
 1081 0002 85B0     		sub	sp, sp, #20	@,,
 1082              	.LCFI22:
 1083              		.cfi_def_cfa_offset 24
 1084 0004 00AF     		add	r7, sp, #0	@,,
 1085              	.LCFI23:
ARM GAS  C:\Users\Grzybek\AppData\Local\Temp\cccVQrHj.s 			page 40


 1086              		.cfi_def_cfa_register 7
 1087 0006 7860     		str	r0, [r7, #4]	@ xTask, xTask
1115:Source/tasks.c **** 	portBASE_TYPE xReturn = pdFALSE;
 1088              		.loc 1 1115 0
 1089 0008 4FF00003 		mov	r3, #0	@ tmp139,
 1090 000c FB60     		str	r3, [r7, #12]	@ tmp139, xReturn
1116:Source/tasks.c **** 	const tskTCB * const pxTCB = ( tskTCB * ) xTask;
 1091              		.loc 1 1116 0
 1092 000e 7B68     		ldr	r3, [r7, #4]	@ tmp140, xTask
 1093 0010 BB60     		str	r3, [r7, #8]	@ tmp140, pxTCB
1117:Source/tasks.c **** 
1118:Source/tasks.c **** 		/* It does not make sense to check if the calling task is suspended. */
1119:Source/tasks.c **** 		configASSERT( xTask );
1120:Source/tasks.c **** 
1121:Source/tasks.c **** 		/* Is the task we are attempting to resume actually in the
1122:Source/tasks.c **** 		suspended list? */
1123:Source/tasks.c **** 		if( listIS_CONTAINED_WITHIN( &xSuspendedTaskList, &( pxTCB->xGenericListItem ) ) != pdFALSE )
 1094              		.loc 1 1123 0
 1095 0012 BB68     		ldr	r3, [r7, #8]	@ tmp141, pxTCB
 1096 0014 5A69     		ldr	r2, [r3, #20]	@ D.6345, pxTCB_4->xGenericListItem.pvContainer
 1097 0016 0B4B     		ldr	r3, .L66	@ tmp142,
 1098 0018 9A42     		cmp	r2, r3	@ D.6345, tmp142
 1099 001a 0BD1     		bne	.L64	@,
1124:Source/tasks.c **** 		{
1125:Source/tasks.c **** 			/* Has the task already been resumed from within an ISR? */
1126:Source/tasks.c **** 			if( listIS_CONTAINED_WITHIN( &xPendingReadyList, &( pxTCB->xEventListItem ) ) != pdTRUE )
 1100              		.loc 1 1126 0
 1101 001c BB68     		ldr	r3, [r7, #8]	@ tmp143, pxTCB
 1102 001e 9A6A     		ldr	r2, [r3, #40]	@ D.6348, pxTCB_4->xEventListItem.pvContainer
 1103 0020 094B     		ldr	r3, .L66+4	@ tmp144,
 1104 0022 9A42     		cmp	r2, r3	@ D.6348, tmp144
 1105 0024 06D0     		beq	.L64	@,
1127:Source/tasks.c **** 			{
1128:Source/tasks.c **** 				/* Is it in the suspended list because it is in the
1129:Source/tasks.c **** 				Suspended state?  It is possible to be in the suspended
1130:Source/tasks.c **** 				list because it is blocked on a task with no timeout
1131:Source/tasks.c **** 				specified. */
1132:Source/tasks.c **** 				if( listIS_CONTAINED_WITHIN( NULL, &( pxTCB->xEventListItem ) ) == pdTRUE )
 1106              		.loc 1 1132 0
 1107 0026 BB68     		ldr	r3, [r7, #8]	@ tmp145, pxTCB
 1108 0028 9B6A     		ldr	r3, [r3, #40]	@ D.6351, pxTCB_4->xEventListItem.pvContainer
 1109 002a 002B     		cmp	r3, #0	@ D.6351,
 1110 002c 02D1     		bne	.L64	@,
1133:Source/tasks.c **** 				{
1134:Source/tasks.c **** 					xReturn = pdTRUE;
 1111              		.loc 1 1134 0
 1112 002e 4FF00103 		mov	r3, #1	@ tmp146,
 1113 0032 FB60     		str	r3, [r7, #12]	@ tmp146, xReturn
 1114              	.L64:
1135:Source/tasks.c **** 				}
1136:Source/tasks.c **** 			}
1137:Source/tasks.c **** 		}
1138:Source/tasks.c **** 
1139:Source/tasks.c **** 		return xReturn;
 1115              		.loc 1 1139 0
 1116 0034 FB68     		ldr	r3, [r7, #12]	@ D.6354, xReturn
1140:Source/tasks.c **** 	}
ARM GAS  C:\Users\Grzybek\AppData\Local\Temp\cccVQrHj.s 			page 41


 1117              		.loc 1 1140 0
 1118 0036 1846     		mov	r0, r3	@, <retval>
 1119 0038 07F11407 		add	r7, r7, #20	@,,
 1120 003c BD46     		mov	sp, r7
 1121 003e 80BC     		pop	{r7}
 1122 0040 7047     		bx	lr
 1123              	.L67:
 1124 0042 00BF     		.align	2
 1125              	.L66:
 1126 0044 00000000 		.word	xSuspendedTaskList
 1127 0048 00000000 		.word	xPendingReadyList
 1128              		.cfi_endproc
 1129              	.LFE7:
 1130              		.size	xTaskIsTaskSuspended, .-xTaskIsTaskSuspended
 1131              		.section	.text.vTaskResume,"ax",%progbits
 1132              		.align	2
 1133              		.global	vTaskResume
 1134              		.thumb
 1135              		.thumb_func
 1136              		.type	vTaskResume, %function
 1137              	vTaskResume:
 1138              	.LFB8:
1141:Source/tasks.c **** 
1142:Source/tasks.c **** #endif
1143:Source/tasks.c **** /*-----------------------------------------------------------*/
1144:Source/tasks.c **** 
1145:Source/tasks.c **** #if ( INCLUDE_vTaskSuspend == 1 )
1146:Source/tasks.c **** 
1147:Source/tasks.c **** 	void vTaskResume( xTaskHandle pxTaskToResume )
1148:Source/tasks.c **** 	{
 1139              		.loc 1 1148 0
 1140              		.cfi_startproc
 1141              		@ args = 0, pretend = 0, frame = 16
 1142              		@ frame_needed = 1, uses_anonymous_args = 0
 1143 0000 80B5     		push	{r7, lr}	@
 1144              	.LCFI24:
 1145              		.cfi_def_cfa_offset 8
 1146              		.cfi_offset 7, -8
 1147              		.cfi_offset 14, -4
 1148 0002 84B0     		sub	sp, sp, #16	@,,
 1149              	.LCFI25:
 1150              		.cfi_def_cfa_offset 24
 1151 0004 00AF     		add	r7, sp, #0	@,,
 1152              	.LCFI26:
 1153              		.cfi_def_cfa_register 7
 1154 0006 7860     		str	r0, [r7, #4]	@ pxTaskToResume, pxTaskToResume
1149:Source/tasks.c **** 	tskTCB *pxTCB;
1150:Source/tasks.c **** 
1151:Source/tasks.c **** 		/* It does not make sense to resume the calling task. */
1152:Source/tasks.c **** 		configASSERT( pxTaskToResume );
1153:Source/tasks.c **** 
1154:Source/tasks.c **** 		/* Remove the task from whichever list it is currently in, and place
1155:Source/tasks.c **** 		it in the ready list. */
1156:Source/tasks.c **** 		pxTCB = ( tskTCB * ) pxTaskToResume;
 1155              		.loc 1 1156 0
 1156 0008 7B68     		ldr	r3, [r7, #4]	@ tmp146, pxTaskToResume
 1157 000a FB60     		str	r3, [r7, #12]	@ tmp146, pxTCB
ARM GAS  C:\Users\Grzybek\AppData\Local\Temp\cccVQrHj.s 			page 42


1157:Source/tasks.c **** 
1158:Source/tasks.c **** 		/* The parameter cannot be NULL as it is impossible to resume the
1159:Source/tasks.c **** 		currently executing task. */
1160:Source/tasks.c **** 		if( ( pxTCB != NULL ) && ( pxTCB != pxCurrentTCB ) )
 1158              		.loc 1 1160 0
 1159 000c FB68     		ldr	r3, [r7, #12]	@ tmp147, pxTCB
 1160 000e 002B     		cmp	r3, #0	@ tmp147,
 1161 0010 38D0     		beq	.L68	@,
 1162              		.loc 1 1160 0 is_stmt 0 discriminator 1
 1163 0012 1E4B     		ldr	r3, .L72	@ tmp148,
 1164 0014 1B68     		ldr	r3, [r3, #0]	@ pxCurrentTCB.86, pxCurrentTCB
 1165 0016 FA68     		ldr	r2, [r7, #12]	@ tmp149, pxTCB
 1166 0018 9A42     		cmp	r2, r3	@ tmp149, pxCurrentTCB.86
 1167 001a 33D0     		beq	.L68	@,
1161:Source/tasks.c **** 		{
1162:Source/tasks.c **** 			taskENTER_CRITICAL();
 1168              		.loc 1 1162 0 is_stmt 1
 1169 001c FFF7FEFF 		bl	vPortEnterCritical	@
1163:Source/tasks.c **** 			{
1164:Source/tasks.c **** 				if( xTaskIsTaskSuspended( pxTCB ) == pdTRUE )
 1170              		.loc 1 1164 0
 1171 0020 F868     		ldr	r0, [r7, #12]	@, pxTCB
 1172 0022 FFF7FEFF 		bl	xTaskIsTaskSuspended	@
 1173 0026 0346     		mov	r3, r0	@ D.6328,
 1174 0028 012B     		cmp	r3, #1	@ D.6328,
 1175 002a 29D1     		bne	.L70	@,
1165:Source/tasks.c **** 				{
1166:Source/tasks.c **** 					traceTASK_RESUME( pxTCB );
1167:Source/tasks.c **** 
1168:Source/tasks.c **** 					/* As we are in a critical section we can access the ready
1169:Source/tasks.c **** 					lists even if the scheduler is suspended. */
1170:Source/tasks.c **** 					uxListRemove(  &( pxTCB->xGenericListItem ) );
 1176              		.loc 1 1170 0
 1177 002c FB68     		ldr	r3, [r7, #12]	@ tmp150, pxTCB
 1178 002e 03F10403 		add	r3, r3, #4	@ D.6331, tmp150,
 1179 0032 1846     		mov	r0, r3	@, D.6331
 1180 0034 FFF7FEFF 		bl	uxListRemove	@
1171:Source/tasks.c **** 					prvAddTaskToReadyQueue( pxTCB );
 1181              		.loc 1 1171 0
 1182 0038 FB68     		ldr	r3, [r7, #12]	@ tmp151, pxTCB
 1183 003a DA6A     		ldr	r2, [r3, #44]	@ D.6332, pxTCB_2->uxPriority
 1184 003c 144B     		ldr	r3, .L72+4	@ tmp152,
 1185 003e 1B68     		ldr	r3, [r3, #0]	@ uxTopReadyPriority.87, uxTopReadyPriority
 1186 0040 9A42     		cmp	r2, r3	@ D.6332, uxTopReadyPriority.87
 1187 0042 03D9     		bls	.L71	@,
 1188              		.loc 1 1171 0 is_stmt 0 discriminator 1
 1189 0044 FB68     		ldr	r3, [r7, #12]	@ tmp153, pxTCB
 1190 0046 DA6A     		ldr	r2, [r3, #44]	@ uxTopReadyPriority.88, pxTCB_2->uxPriority
 1191 0048 114B     		ldr	r3, .L72+4	@ tmp154,
 1192 004a 1A60     		str	r2, [r3, #0]	@ uxTopReadyPriority.88, uxTopReadyPriority
 1193              	.L71:
 1194              		.loc 1 1171 0 discriminator 2
 1195 004c FB68     		ldr	r3, [r7, #12]	@ tmp155, pxTCB
 1196 004e DA6A     		ldr	r2, [r3, #44]	@ D.6337, pxTCB_2->uxPriority
 1197 0050 1346     		mov	r3, r2	@ tmp156, D.6337
 1198 0052 4FEA8303 		lsl	r3, r3, #2	@ tmp156, tmp156,
 1199 0056 9B18     		adds	r3, r3, r2	@ tmp156, tmp156, D.6337
ARM GAS  C:\Users\Grzybek\AppData\Local\Temp\cccVQrHj.s 			page 43


 1200 0058 4FEA8303 		lsl	r3, r3, #2	@ tmp157, tmp156,
 1201 005c 0D4A     		ldr	r2, .L72+8	@ tmp158,
 1202 005e 9A18     		adds	r2, r3, r2	@ D.6338, tmp156, tmp158
 1203 0060 FB68     		ldr	r3, [r7, #12]	@ tmp159, pxTCB
 1204 0062 03F10403 		add	r3, r3, #4	@ D.6339, tmp159,
 1205 0066 1046     		mov	r0, r2	@, D.6338
 1206 0068 1946     		mov	r1, r3	@, D.6339
 1207 006a FFF7FEFF 		bl	vListInsertEnd	@
1172:Source/tasks.c **** 
1173:Source/tasks.c **** 					/* We may have just resumed a higher priority task. */
1174:Source/tasks.c **** 					if( pxTCB->uxPriority >= pxCurrentTCB->uxPriority )
 1208              		.loc 1 1174 0 is_stmt 1 discriminator 2
 1209 006e FB68     		ldr	r3, [r7, #12]	@ tmp160, pxTCB
 1210 0070 DA6A     		ldr	r2, [r3, #44]	@ D.6340, pxTCB_2->uxPriority
 1211 0072 064B     		ldr	r3, .L72	@ tmp161,
 1212 0074 1B68     		ldr	r3, [r3, #0]	@ pxCurrentTCB.89, pxCurrentTCB
 1213 0076 DB6A     		ldr	r3, [r3, #44]	@ D.6342, pxCurrentTCB.89_13->uxPriority
 1214 0078 9A42     		cmp	r2, r3	@ D.6340, D.6342
 1215 007a 01D3     		bcc	.L70	@,
1175:Source/tasks.c **** 					{
1176:Source/tasks.c **** 						/* This yield may not cause the task just resumed to run, but
1177:Source/tasks.c **** 						will leave the lists in the correct state for the next yield. */
1178:Source/tasks.c **** 						portYIELD_WITHIN_API();
 1216              		.loc 1 1178 0
 1217 007c FFF7FEFF 		bl	vPortYieldFromISR	@
 1218              	.L70:
1179:Source/tasks.c **** 					}
1180:Source/tasks.c **** 				}
1181:Source/tasks.c **** 			}
1182:Source/tasks.c **** 			taskEXIT_CRITICAL();
 1219              		.loc 1 1182 0
 1220 0080 FFF7FEFF 		bl	vPortExitCritical	@
 1221              	.L68:
1183:Source/tasks.c **** 		}
1184:Source/tasks.c **** 	}
 1222              		.loc 1 1184 0
 1223 0084 07F11007 		add	r7, r7, #16	@,,
 1224 0088 BD46     		mov	sp, r7
 1225 008a 80BD     		pop	{r7, pc}
 1226              	.L73:
 1227              		.align	2
 1228              	.L72:
 1229 008c 00000000 		.word	pxCurrentTCB
 1230 0090 00000000 		.word	uxTopReadyPriority
 1231 0094 00000000 		.word	pxReadyTasksLists
 1232              		.cfi_endproc
 1233              	.LFE8:
 1234              		.size	vTaskResume, .-vTaskResume
 1235              		.section	.text.xTaskResumeFromISR,"ax",%progbits
 1236              		.align	2
 1237              		.global	xTaskResumeFromISR
 1238              		.thumb
 1239              		.thumb_func
 1240              		.type	xTaskResumeFromISR, %function
 1241              	xTaskResumeFromISR:
 1242              	.LFB9:
1185:Source/tasks.c **** 
ARM GAS  C:\Users\Grzybek\AppData\Local\Temp\cccVQrHj.s 			page 44


1186:Source/tasks.c **** #endif
1187:Source/tasks.c **** 
1188:Source/tasks.c **** /*-----------------------------------------------------------*/
1189:Source/tasks.c **** 
1190:Source/tasks.c **** #if ( ( INCLUDE_xTaskResumeFromISR == 1 ) && ( INCLUDE_vTaskSuspend == 1 ) )
1191:Source/tasks.c **** 
1192:Source/tasks.c **** 	portBASE_TYPE xTaskResumeFromISR( xTaskHandle pxTaskToResume )
1193:Source/tasks.c **** 	{
 1243              		.loc 1 1193 0
 1244              		.cfi_startproc
 1245              		@ args = 0, pretend = 0, frame = 24
 1246              		@ frame_needed = 1, uses_anonymous_args = 0
 1247 0000 80B5     		push	{r7, lr}	@
 1248              	.LCFI27:
 1249              		.cfi_def_cfa_offset 8
 1250              		.cfi_offset 7, -8
 1251              		.cfi_offset 14, -4
 1252 0002 86B0     		sub	sp, sp, #24	@,,
 1253              	.LCFI28:
 1254              		.cfi_def_cfa_offset 32
 1255 0004 00AF     		add	r7, sp, #0	@,,
 1256              	.LCFI29:
 1257              		.cfi_def_cfa_register 7
 1258 0006 7860     		str	r0, [r7, #4]	@ pxTaskToResume, pxTaskToResume
1194:Source/tasks.c **** 	portBASE_TYPE xYieldRequired = pdFALSE;
 1259              		.loc 1 1194 0
 1260 0008 4FF00003 		mov	r3, #0	@ tmp150,
 1261 000c 7B61     		str	r3, [r7, #20]	@ tmp150, xYieldRequired
1195:Source/tasks.c **** 	tskTCB *pxTCB;
1196:Source/tasks.c **** 	unsigned portBASE_TYPE uxSavedInterruptStatus;
1197:Source/tasks.c **** 
1198:Source/tasks.c **** 		configASSERT( pxTaskToResume );
1199:Source/tasks.c **** 
1200:Source/tasks.c **** 		pxTCB = ( tskTCB * ) pxTaskToResume;
 1262              		.loc 1 1200 0
 1263 000e 7B68     		ldr	r3, [r7, #4]	@ tmp151, pxTaskToResume
 1264 0010 3B61     		str	r3, [r7, #16]	@ tmp151, pxTCB
1201:Source/tasks.c **** 
1202:Source/tasks.c **** 		uxSavedInterruptStatus = portSET_INTERRUPT_MASK_FROM_ISR();
 1265              		.loc 1 1202 0
 1266 0012 FFF7FEFF 		bl	ulPortSetInterruptMask	@
 1267 0016 F860     		str	r0, [r7, #12]	@, uxSavedInterruptStatus
1203:Source/tasks.c **** 		{
1204:Source/tasks.c **** 			if( xTaskIsTaskSuspended( pxTCB ) == pdTRUE )
 1268              		.loc 1 1204 0
 1269 0018 3869     		ldr	r0, [r7, #16]	@, pxTCB
 1270 001a FFF7FEFF 		bl	xTaskIsTaskSuspended	@
 1271 001e 0346     		mov	r3, r0	@ D.6300,
 1272 0020 012B     		cmp	r3, #1	@ D.6300,
 1273 0022 37D1     		bne	.L75	@,
1205:Source/tasks.c **** 			{
1206:Source/tasks.c **** 				traceTASK_RESUME_FROM_ISR( pxTCB );
1207:Source/tasks.c **** 
1208:Source/tasks.c **** 				if( uxSchedulerSuspended == ( unsigned portBASE_TYPE ) pdFALSE )
 1274              		.loc 1 1208 0
 1275 0024 204B     		ldr	r3, .L79	@ tmp152,
 1276 0026 1B68     		ldr	r3, [r3, #0]	@ uxSchedulerSuspended.82, uxSchedulerSuspended
ARM GAS  C:\Users\Grzybek\AppData\Local\Temp\cccVQrHj.s 			page 45


 1277 0028 002B     		cmp	r3, #0	@ uxSchedulerSuspended.82,
 1278 002a 2CD1     		bne	.L76	@,
1209:Source/tasks.c **** 				{
1210:Source/tasks.c **** 					xYieldRequired = ( pxTCB->uxPriority >= pxCurrentTCB->uxPriority );
 1279              		.loc 1 1210 0
 1280 002c 3B69     		ldr	r3, [r7, #16]	@ tmp153, pxTCB
 1281 002e DA6A     		ldr	r2, [r3, #44]	@ D.6306, pxTCB_4->uxPriority
 1282 0030 1E4B     		ldr	r3, .L79+4	@ tmp154,
 1283 0032 1B68     		ldr	r3, [r3, #0]	@ pxCurrentTCB.83, pxCurrentTCB
 1284 0034 DB6A     		ldr	r3, [r3, #44]	@ D.6308, pxCurrentTCB.83_9->uxPriority
 1285 0036 9A42     		cmp	r2, r3	@ D.6306, D.6308
 1286 0038 34BF     		ite	cc	@
 1287 003a 0023     		movcc	r3, #0	@, tmp156
 1288 003c 0123     		movcs	r3, #1	@, tmp156
 1289 003e DBB2     		uxtb	r3, r3	@ D.6309, tmp155
 1290 0040 7B61     		str	r3, [r7, #20]	@ D.6309, xYieldRequired
1211:Source/tasks.c **** 					uxListRemove(  &( pxTCB->xGenericListItem ) );
 1291              		.loc 1 1211 0
 1292 0042 3B69     		ldr	r3, [r7, #16]	@ tmp157, pxTCB
 1293 0044 03F10403 		add	r3, r3, #4	@ D.6310, tmp157,
 1294 0048 1846     		mov	r0, r3	@, D.6310
 1295 004a FFF7FEFF 		bl	uxListRemove	@
1212:Source/tasks.c **** 					prvAddTaskToReadyQueue( pxTCB );
 1296              		.loc 1 1212 0
 1297 004e 3B69     		ldr	r3, [r7, #16]	@ tmp158, pxTCB
 1298 0050 DA6A     		ldr	r2, [r3, #44]	@ D.6311, pxTCB_4->uxPriority
 1299 0052 174B     		ldr	r3, .L79+8	@ tmp159,
 1300 0054 1B68     		ldr	r3, [r3, #0]	@ uxTopReadyPriority.84, uxTopReadyPriority
 1301 0056 9A42     		cmp	r2, r3	@ D.6311, uxTopReadyPriority.84
 1302 0058 03D9     		bls	.L77	@,
 1303              		.loc 1 1212 0 is_stmt 0 discriminator 1
 1304 005a 3B69     		ldr	r3, [r7, #16]	@ tmp160, pxTCB
 1305 005c DA6A     		ldr	r2, [r3, #44]	@ uxTopReadyPriority.85, pxTCB_4->uxPriority
 1306 005e 144B     		ldr	r3, .L79+8	@ tmp161,
 1307 0060 1A60     		str	r2, [r3, #0]	@ uxTopReadyPriority.85, uxTopReadyPriority
 1308              	.L77:
 1309              		.loc 1 1212 0 discriminator 2
 1310 0062 3B69     		ldr	r3, [r7, #16]	@ tmp162, pxTCB
 1311 0064 DA6A     		ldr	r2, [r3, #44]	@ D.6316, pxTCB_4->uxPriority
 1312 0066 1346     		mov	r3, r2	@ tmp163, D.6316
 1313 0068 4FEA8303 		lsl	r3, r3, #2	@ tmp163, tmp163,
 1314 006c 9B18     		adds	r3, r3, r2	@ tmp163, tmp163, D.6316
 1315 006e 4FEA8303 		lsl	r3, r3, #2	@ tmp164, tmp163,
 1316 0072 104A     		ldr	r2, .L79+12	@ tmp165,
 1317 0074 9A18     		adds	r2, r3, r2	@ D.6317, tmp163, tmp165
 1318 0076 3B69     		ldr	r3, [r7, #16]	@ tmp166, pxTCB
 1319 0078 03F10403 		add	r3, r3, #4	@ D.6318, tmp166,
 1320 007c 1046     		mov	r0, r2	@, D.6317
 1321 007e 1946     		mov	r1, r3	@, D.6318
 1322 0080 FFF7FEFF 		bl	vListInsertEnd	@
 1323 0084 06E0     		b	.L75	@
 1324              	.L76:
1213:Source/tasks.c **** 				}
1214:Source/tasks.c **** 				else
1215:Source/tasks.c **** 				{
1216:Source/tasks.c **** 					/* We cannot access the delayed or ready lists, so will hold this
1217:Source/tasks.c **** 					task pending until the scheduler is resumed, at which point a
ARM GAS  C:\Users\Grzybek\AppData\Local\Temp\cccVQrHj.s 			page 46


1218:Source/tasks.c **** 					yield will be performed if necessary. */
1219:Source/tasks.c **** 					vListInsertEnd( ( xList * ) &( xPendingReadyList ), &( pxTCB->xEventListItem ) );
 1325              		.loc 1 1219 0 is_stmt 1
 1326 0086 3B69     		ldr	r3, [r7, #16]	@ tmp167, pxTCB
 1327 0088 03F11803 		add	r3, r3, #24	@ D.6320, tmp167,
 1328 008c 0A48     		ldr	r0, .L79+16	@,
 1329 008e 1946     		mov	r1, r3	@, D.6320
 1330 0090 FFF7FEFF 		bl	vListInsertEnd	@
 1331              	.L75:
1220:Source/tasks.c **** 				}
1221:Source/tasks.c **** 			}
1222:Source/tasks.c **** 		}
1223:Source/tasks.c **** 		portCLEAR_INTERRUPT_MASK_FROM_ISR( uxSavedInterruptStatus );
 1332              		.loc 1 1223 0
 1333 0094 F868     		ldr	r0, [r7, #12]	@, uxSavedInterruptStatus
 1334 0096 FFF7FEFF 		bl	vPortClearInterruptMask	@
1224:Source/tasks.c **** 
1225:Source/tasks.c **** 		return xYieldRequired;
 1335              		.loc 1 1225 0
 1336 009a 7B69     		ldr	r3, [r7, #20]	@ D.6321, xYieldRequired
1226:Source/tasks.c **** 	}
 1337              		.loc 1 1226 0
 1338 009c 1846     		mov	r0, r3	@, <retval>
 1339 009e 07F11807 		add	r7, r7, #24	@,,
 1340 00a2 BD46     		mov	sp, r7
 1341 00a4 80BD     		pop	{r7, pc}
 1342              	.L80:
 1343 00a6 00BF     		.align	2
 1344              	.L79:
 1345 00a8 00000000 		.word	uxSchedulerSuspended
 1346 00ac 00000000 		.word	pxCurrentTCB
 1347 00b0 00000000 		.word	uxTopReadyPriority
 1348 00b4 00000000 		.word	pxReadyTasksLists
 1349 00b8 00000000 		.word	xPendingReadyList
 1350              		.cfi_endproc
 1351              	.LFE9:
 1352              		.size	xTaskResumeFromISR, .-xTaskResumeFromISR
 1353              		.section	.rodata
 1354              		.align	2
 1355              	.LC0:
 1356 0000 49444C45 		.ascii	"IDLE\000"
 1356      00
 1357 0005 000000   		.section	.text.vTaskStartScheduler,"ax",%progbits
 1358              		.align	2
 1359              		.global	vTaskStartScheduler
 1360              		.thumb
 1361              		.thumb_func
 1362              		.type	vTaskStartScheduler, %function
 1363              	vTaskStartScheduler:
 1364              	.LFB10:
1227:Source/tasks.c **** 
1228:Source/tasks.c **** #endif
1229:Source/tasks.c **** 
1230:Source/tasks.c **** 
1231:Source/tasks.c **** 
1232:Source/tasks.c **** 
1233:Source/tasks.c **** /*-----------------------------------------------------------
ARM GAS  C:\Users\Grzybek\AppData\Local\Temp\cccVQrHj.s 			page 47


1234:Source/tasks.c ****  * PUBLIC SCHEDULER CONTROL documented in task.h
1235:Source/tasks.c ****  *----------------------------------------------------------*/
1236:Source/tasks.c **** 
1237:Source/tasks.c **** 
1238:Source/tasks.c **** void vTaskStartScheduler( void )
1239:Source/tasks.c **** {
 1365              		.loc 1 1239 0
 1366              		.cfi_startproc
 1367              		@ args = 0, pretend = 0, frame = 8
 1368              		@ frame_needed = 1, uses_anonymous_args = 0
 1369 0000 80B5     		push	{r7, lr}	@
 1370              	.LCFI30:
 1371              		.cfi_def_cfa_offset 8
 1372              		.cfi_offset 7, -8
 1373              		.cfi_offset 14, -4
 1374 0002 86B0     		sub	sp, sp, #24	@,,
 1375              	.LCFI31:
 1376              		.cfi_def_cfa_offset 32
 1377 0004 04AF     		add	r7, sp, #16	@,,
 1378              	.LCFI32:
 1379              		.cfi_def_cfa 7, 16
1240:Source/tasks.c **** portBASE_TYPE xReturn;
1241:Source/tasks.c **** 
1242:Source/tasks.c **** 	/* Add the idle task at the lowest priority. */
1243:Source/tasks.c **** 	#if ( INCLUDE_xTaskGetIdleTaskHandle == 1 )
1244:Source/tasks.c **** 	{
1245:Source/tasks.c **** 		/* Create the idle task, storing its handle in xIdleTaskHandle so it can
1246:Source/tasks.c **** 		be returned by the xTaskGetIdleTaskHandle() function. */
1247:Source/tasks.c **** 		xReturn = xTaskCreate( prvIdleTask, ( signed char * ) "IDLE", tskIDLE_STACK_SIZE, ( void * ) NULL
1248:Source/tasks.c **** 	}
1249:Source/tasks.c **** 	#else
1250:Source/tasks.c **** 	{
1251:Source/tasks.c **** 		/* Create the idle task without storing its handle. */
1252:Source/tasks.c **** 		xReturn = xTaskCreate( prvIdleTask, ( signed char * ) "IDLE", tskIDLE_STACK_SIZE, ( void * ) NULL
 1380              		.loc 1 1252 0
 1381 0006 4FF00003 		mov	r3, #0	@ tmp135,
 1382 000a 0093     		str	r3, [sp, #0]	@ tmp135,
 1383 000c 4FF00003 		mov	r3, #0	@ tmp136,
 1384 0010 0193     		str	r3, [sp, #4]	@ tmp136,
 1385 0012 4FF00003 		mov	r3, #0	@ tmp137,
 1386 0016 0293     		str	r3, [sp, #8]	@ tmp137,
 1387 0018 4FF00003 		mov	r3, #0	@ tmp138,
 1388 001c 0393     		str	r3, [sp, #12]	@ tmp138,
 1389 001e 0E48     		ldr	r0, .L83	@,
 1390 0020 0E49     		ldr	r1, .L83+4	@,
 1391 0022 4FF08002 		mov	r2, #128	@,
 1392 0026 4FF00003 		mov	r3, #0	@,
 1393 002a FFF7FEFF 		bl	xTaskGenericCreate	@
 1394 002e 7860     		str	r0, [r7, #4]	@, xReturn
1253:Source/tasks.c **** 	}
1254:Source/tasks.c **** 	#endif
1255:Source/tasks.c **** 
1256:Source/tasks.c **** 	#if ( configUSE_TIMERS == 1 )
1257:Source/tasks.c **** 	{
1258:Source/tasks.c **** 		if( xReturn == pdPASS )
1259:Source/tasks.c **** 		{
1260:Source/tasks.c **** 			xReturn = xTimerCreateTimerTask();
ARM GAS  C:\Users\Grzybek\AppData\Local\Temp\cccVQrHj.s 			page 48


1261:Source/tasks.c **** 		}
1262:Source/tasks.c **** 	}
1263:Source/tasks.c **** 	#endif
1264:Source/tasks.c **** 
1265:Source/tasks.c **** 	if( xReturn == pdPASS )
 1395              		.loc 1 1265 0
 1396 0030 7B68     		ldr	r3, [r7, #4]	@ tmp139, xReturn
 1397 0032 012B     		cmp	r3, #1	@ tmp139,
 1398 0034 0BD1     		bne	.L81	@,
1266:Source/tasks.c **** 	{
1267:Source/tasks.c **** 		/* Interrupts are turned off here, to ensure a tick does not occur
1268:Source/tasks.c **** 		before or during the call to xPortStartScheduler().  The stacks of
1269:Source/tasks.c **** 		the created tasks contain a status word with interrupts switched on
1270:Source/tasks.c **** 		so interrupts will automatically get re-enabled when the first task
1271:Source/tasks.c **** 		starts to run.
1272:Source/tasks.c **** 
1273:Source/tasks.c **** 		STEPPING THROUGH HERE USING A DEBUGGER CAN CAUSE BIG PROBLEMS IF THE
1274:Source/tasks.c **** 		DEBUGGER ALLOWS INTERRUPTS TO BE PROCESSED. */
1275:Source/tasks.c **** 		portDISABLE_INTERRUPTS();
 1399              		.loc 1 1275 0
 1400 0036 FFF7FEFF 		bl	ulPortSetInterruptMask	@
1276:Source/tasks.c **** 
1277:Source/tasks.c **** 		xSchedulerRunning = pdTRUE;
 1401              		.loc 1 1277 0
 1402 003a 094B     		ldr	r3, .L83+8	@ tmp140,
 1403 003c 4FF00102 		mov	r2, #1	@ tmp141,
 1404 0040 1A60     		str	r2, [r3, #0]	@ tmp141, xSchedulerRunning
1278:Source/tasks.c **** 		xTickCount = ( portTickType ) 0U;
 1405              		.loc 1 1278 0
 1406 0042 084B     		ldr	r3, .L83+12	@ tmp142,
 1407 0044 4FF00002 		mov	r2, #0	@ tmp143,
 1408 0048 1A60     		str	r2, [r3, #0]	@ tmp143, xTickCount
1279:Source/tasks.c **** 
1280:Source/tasks.c **** 		/* If configGENERATE_RUN_TIME_STATS is defined then the following
1281:Source/tasks.c **** 		macro must be defined to configure the timer/counter used to generate
1282:Source/tasks.c **** 		the run time counter time base. */
1283:Source/tasks.c **** 		portCONFIGURE_TIMER_FOR_RUN_TIME_STATS();
1284:Source/tasks.c **** 
1285:Source/tasks.c **** 		/* Setting up the timer tick is hardware specific and thus in the
1286:Source/tasks.c **** 		portable interface. */
1287:Source/tasks.c **** 		if( xPortStartScheduler() != pdFALSE )
 1409              		.loc 1 1287 0
 1410 004a FFF7FEFF 		bl	xPortStartScheduler	@
 1411              	.L81:
1288:Source/tasks.c **** 		{
1289:Source/tasks.c **** 			/* Should not reach here as if the scheduler is running the
1290:Source/tasks.c **** 			function will not return. */
1291:Source/tasks.c **** 		}
1292:Source/tasks.c **** 		else
1293:Source/tasks.c **** 		{
1294:Source/tasks.c **** 			/* Should only reach here if a task calls xTaskEndScheduler(). */
1295:Source/tasks.c **** 		}
1296:Source/tasks.c **** 	}
1297:Source/tasks.c **** 
1298:Source/tasks.c **** 	/* This line will only be reached if the kernel could not be started. */
1299:Source/tasks.c **** 	configASSERT( xReturn );
1300:Source/tasks.c **** }
ARM GAS  C:\Users\Grzybek\AppData\Local\Temp\cccVQrHj.s 			page 49


 1412              		.loc 1 1300 0
 1413 004e 07F10807 		add	r7, r7, #8	@,,
 1414 0052 BD46     		mov	sp, r7
 1415 0054 80BD     		pop	{r7, pc}
 1416              	.L84:
 1417 0056 00BF     		.align	2
 1418              	.L83:
 1419 0058 00000000 		.word	prvIdleTask
 1420 005c 00000000 		.word	.LC0
 1421 0060 00000000 		.word	xSchedulerRunning
 1422 0064 00000000 		.word	xTickCount
 1423              		.cfi_endproc
 1424              	.LFE10:
 1425              		.size	vTaskStartScheduler, .-vTaskStartScheduler
 1426              		.section	.text.vTaskEndScheduler,"ax",%progbits
 1427              		.align	2
 1428              		.global	vTaskEndScheduler
 1429              		.thumb
 1430              		.thumb_func
 1431              		.type	vTaskEndScheduler, %function
 1432              	vTaskEndScheduler:
 1433              	.LFB11:
1301:Source/tasks.c **** /*-----------------------------------------------------------*/
1302:Source/tasks.c **** 
1303:Source/tasks.c **** void vTaskEndScheduler( void )
1304:Source/tasks.c **** {
 1434              		.loc 1 1304 0
 1435              		.cfi_startproc
 1436              		@ args = 0, pretend = 0, frame = 0
 1437              		@ frame_needed = 1, uses_anonymous_args = 0
 1438 0000 80B5     		push	{r7, lr}	@
 1439              	.LCFI33:
 1440              		.cfi_def_cfa_offset 8
 1441              		.cfi_offset 7, -8
 1442              		.cfi_offset 14, -4
 1443 0002 00AF     		add	r7, sp, #0	@,,
 1444              	.LCFI34:
 1445              		.cfi_def_cfa_register 7
1305:Source/tasks.c **** 	/* Stop the scheduler interrupts and call the portable scheduler end
1306:Source/tasks.c **** 	routine so the original ISRs can be restored if necessary.  The port
1307:Source/tasks.c **** 	layer must ensure interrupts enable	bit is left in the correct state. */
1308:Source/tasks.c **** 	portDISABLE_INTERRUPTS();
 1446              		.loc 1 1308 0
 1447 0004 FFF7FEFF 		bl	ulPortSetInterruptMask	@
1309:Source/tasks.c **** 	xSchedulerRunning = pdFALSE;
 1448              		.loc 1 1309 0
 1449 0008 034B     		ldr	r3, .L86	@ tmp134,
 1450 000a 4FF00002 		mov	r2, #0	@ tmp135,
 1451 000e 1A60     		str	r2, [r3, #0]	@ tmp135, xSchedulerRunning
1310:Source/tasks.c **** 	vPortEndScheduler();
 1452              		.loc 1 1310 0
 1453 0010 FFF7FEFF 		bl	vPortEndScheduler	@
1311:Source/tasks.c **** }
 1454              		.loc 1 1311 0
 1455 0014 80BD     		pop	{r7, pc}	@
 1456              	.L87:
 1457 0016 00BF     		.align	2
ARM GAS  C:\Users\Grzybek\AppData\Local\Temp\cccVQrHj.s 			page 50


 1458              	.L86:
 1459 0018 00000000 		.word	xSchedulerRunning
 1460              		.cfi_endproc
 1461              	.LFE11:
 1462              		.size	vTaskEndScheduler, .-vTaskEndScheduler
 1463              		.section	.text.vTaskSuspendAll,"ax",%progbits
 1464              		.align	2
 1465              		.global	vTaskSuspendAll
 1466              		.thumb
 1467              		.thumb_func
 1468              		.type	vTaskSuspendAll, %function
 1469              	vTaskSuspendAll:
 1470              	.LFB12:
1312:Source/tasks.c **** /*----------------------------------------------------------*/
1313:Source/tasks.c **** 
1314:Source/tasks.c **** void vTaskSuspendAll( void )
1315:Source/tasks.c **** {
 1471              		.loc 1 1315 0
 1472              		.cfi_startproc
 1473              		@ args = 0, pretend = 0, frame = 0
 1474              		@ frame_needed = 1, uses_anonymous_args = 0
 1475              		@ link register save eliminated.
 1476 0000 80B4     		push	{r7}	@
 1477              	.LCFI35:
 1478              		.cfi_def_cfa_offset 4
 1479              		.cfi_offset 7, -4
 1480 0002 00AF     		add	r7, sp, #0	@,,
 1481              	.LCFI36:
 1482              		.cfi_def_cfa_register 7
1316:Source/tasks.c **** 	/* A critical section is not required as the variable is of type
1317:Source/tasks.c **** 	portBASE_TYPE. */
1318:Source/tasks.c **** 	++uxSchedulerSuspended;
 1483              		.loc 1 1318 0
 1484 0004 044B     		ldr	r3, .L89	@ tmp136,
 1485 0006 1B68     		ldr	r3, [r3, #0]	@ uxSchedulerSuspended.80, uxSchedulerSuspended
 1486 0008 03F10102 		add	r2, r3, #1	@ uxSchedulerSuspended.81, uxSchedulerSuspended.80,
 1487 000c 024B     		ldr	r3, .L89	@ tmp137,
 1488 000e 1A60     		str	r2, [r3, #0]	@ uxSchedulerSuspended.81, uxSchedulerSuspended
1319:Source/tasks.c **** }
 1489              		.loc 1 1319 0
 1490 0010 BD46     		mov	sp, r7
 1491 0012 80BC     		pop	{r7}
 1492 0014 7047     		bx	lr
 1493              	.L90:
 1494 0016 00BF     		.align	2
 1495              	.L89:
 1496 0018 00000000 		.word	uxSchedulerSuspended
 1497              		.cfi_endproc
 1498              	.LFE12:
 1499              		.size	vTaskSuspendAll, .-vTaskSuspendAll
 1500              		.section	.text.xTaskResumeAll,"ax",%progbits
 1501              		.align	2
 1502              		.global	xTaskResumeAll
 1503              		.thumb
 1504              		.thumb_func
 1505              		.type	xTaskResumeAll, %function
 1506              	xTaskResumeAll:
ARM GAS  C:\Users\Grzybek\AppData\Local\Temp\cccVQrHj.s 			page 51


 1507              	.LFB13:
1320:Source/tasks.c **** /*----------------------------------------------------------*/
1321:Source/tasks.c **** 
1322:Source/tasks.c **** #if ( configUSE_TICKLESS_IDLE != 0 )
1323:Source/tasks.c **** 
1324:Source/tasks.c **** 	portTickType prvGetExpectedIdleTime( void )
1325:Source/tasks.c **** 	{
1326:Source/tasks.c **** 	portTickType xReturn;
1327:Source/tasks.c **** 	
1328:Source/tasks.c **** 		if( pxCurrentTCB->uxPriority > tskIDLE_PRIORITY )
1329:Source/tasks.c **** 		{
1330:Source/tasks.c **** 			xReturn = 0;
1331:Source/tasks.c **** 		}
1332:Source/tasks.c **** 		else if( listCURRENT_LIST_LENGTH( &( pxReadyTasksLists[ tskIDLE_PRIORITY ] ) ) > 1 )
1333:Source/tasks.c **** 		{
1334:Source/tasks.c **** 			/* There are other idle priority tasks in the ready state.  If
1335:Source/tasks.c **** 			time slicing is used then the very next tick interrupt must be
1336:Source/tasks.c **** 			processed. */
1337:Source/tasks.c **** 			xReturn = 0;
1338:Source/tasks.c **** 		}
1339:Source/tasks.c **** 		else
1340:Source/tasks.c **** 		{
1341:Source/tasks.c **** 			xReturn = xNextTaskUnblockTime - xTickCount;
1342:Source/tasks.c **** 		}
1343:Source/tasks.c **** 	
1344:Source/tasks.c **** 		return xReturn;
1345:Source/tasks.c **** 	}
1346:Source/tasks.c **** 
1347:Source/tasks.c **** #endif /* configUSE_TICKLESS_IDLE != 0  */
1348:Source/tasks.c **** /*----------------------------------------------------------*/
1349:Source/tasks.c **** 
1350:Source/tasks.c **** signed portBASE_TYPE xTaskResumeAll( void )
1351:Source/tasks.c **** {
 1508              		.loc 1 1351 0
 1509              		.cfi_startproc
 1510              		@ args = 0, pretend = 0, frame = 8
 1511              		@ frame_needed = 1, uses_anonymous_args = 0
 1512 0000 90B5     		push	{r4, r7, lr}	@
 1513              	.LCFI37:
 1514              		.cfi_def_cfa_offset 12
 1515              		.cfi_offset 4, -12
 1516              		.cfi_offset 7, -8
 1517              		.cfi_offset 14, -4
 1518 0002 83B0     		sub	sp, sp, #12	@,,
 1519              	.LCFI38:
 1520              		.cfi_def_cfa_offset 24
 1521 0004 00AF     		add	r7, sp, #0	@,,
 1522              	.LCFI39:
 1523              		.cfi_def_cfa_register 7
1352:Source/tasks.c **** register tskTCB *pxTCB;
1353:Source/tasks.c **** signed portBASE_TYPE xAlreadyYielded = pdFALSE;
 1524              		.loc 1 1353 0
 1525 0006 4FF00003 		mov	r3, #0	@ tmp159,
 1526 000a 7B60     		str	r3, [r7, #4]	@ tmp159, xAlreadyYielded
1354:Source/tasks.c **** 
1355:Source/tasks.c **** 	/* If uxSchedulerSuspended is zero then this function does not match a
1356:Source/tasks.c **** 	previous call to vTaskSuspendAll(). */
ARM GAS  C:\Users\Grzybek\AppData\Local\Temp\cccVQrHj.s 			page 52


1357:Source/tasks.c **** 	configASSERT( uxSchedulerSuspended );
1358:Source/tasks.c **** 
1359:Source/tasks.c **** 	/* It is possible that an ISR caused a task to be removed from an event
1360:Source/tasks.c **** 	list while the scheduler was suspended.  If this was the case then the
1361:Source/tasks.c **** 	removed task will have been added to the xPendingReadyList.  Once the
1362:Source/tasks.c **** 	scheduler has been resumed it is safe to move all the pending ready
1363:Source/tasks.c **** 	tasks from this list into their appropriate ready list. */
1364:Source/tasks.c **** 	taskENTER_CRITICAL();
 1527              		.loc 1 1364 0
 1528 000c FFF7FEFF 		bl	vPortEnterCritical	@
1365:Source/tasks.c **** 	{
1366:Source/tasks.c **** 		--uxSchedulerSuspended;
 1529              		.loc 1 1366 0
 1530 0010 374B     		ldr	r3, .L101	@ tmp160,
 1531 0012 1B68     		ldr	r3, [r3, #0]	@ uxSchedulerSuspended.68, uxSchedulerSuspended
 1532 0014 03F1FF32 		add	r2, r3, #-1	@ uxSchedulerSuspended.69, uxSchedulerSuspended.68,
 1533 0018 354B     		ldr	r3, .L101	@ tmp161,
 1534 001a 1A60     		str	r2, [r3, #0]	@ uxSchedulerSuspended.69, uxSchedulerSuspended
1367:Source/tasks.c **** 
1368:Source/tasks.c **** 		if( uxSchedulerSuspended == ( unsigned portBASE_TYPE ) pdFALSE )
 1535              		.loc 1 1368 0
 1536 001c 344B     		ldr	r3, .L101	@ tmp162,
 1537 001e 1B68     		ldr	r3, [r3, #0]	@ uxSchedulerSuspended.70, uxSchedulerSuspended
 1538 0020 002B     		cmp	r3, #0	@ uxSchedulerSuspended.70,
 1539 0022 5CD1     		bne	.L92	@,
1369:Source/tasks.c **** 		{
1370:Source/tasks.c **** 			if( uxCurrentNumberOfTasks > ( unsigned portBASE_TYPE ) 0U )
 1540              		.loc 1 1370 0
 1541 0024 334B     		ldr	r3, .L101+4	@ tmp163,
 1542 0026 1B68     		ldr	r3, [r3, #0]	@ uxCurrentNumberOfTasks.71, uxCurrentNumberOfTasks
 1543 0028 002B     		cmp	r3, #0	@ uxCurrentNumberOfTasks.71,
 1544 002a 58D0     		beq	.L92	@,
 1545              	.LBB3:
1371:Source/tasks.c **** 			{
1372:Source/tasks.c **** 				portBASE_TYPE xYieldRequired = pdFALSE;
 1546              		.loc 1 1372 0
 1547 002c 4FF00003 		mov	r3, #0	@ tmp164,
 1548 0030 3B60     		str	r3, [r7, #0]	@ tmp164, xYieldRequired
1373:Source/tasks.c **** 
1374:Source/tasks.c **** 				/* Move any readied tasks from the pending list into the
1375:Source/tasks.c **** 				appropriate ready list. */
1376:Source/tasks.c **** 				while( listLIST_IS_EMPTY( ( xList * ) &xPendingReadyList ) == pdFALSE )
 1549              		.loc 1 1376 0
 1550 0032 2CE0     		b	.L93	@
 1551              	.L95:
1377:Source/tasks.c **** 				{
1378:Source/tasks.c **** 					pxTCB = ( tskTCB * ) listGET_OWNER_OF_HEAD_ENTRY(  ( ( xList * ) &xPendingReadyList ) );
 1552              		.loc 1 1378 0
 1553 0034 304B     		ldr	r3, .L101+8	@ tmp165,
 1554 0036 DB68     		ldr	r3, [r3, #12]	@ D.6263, xPendingReadyList.xListEnd.pxNext
 1555 0038 DC68     		ldr	r4, [r3, #12]	@ pxTCB, D.6263_11->pvOwner
1379:Source/tasks.c **** 					uxListRemove( &( pxTCB->xEventListItem ) );
 1556              		.loc 1 1379 0
 1557 003a 04F11803 		add	r3, r4, #24	@ D.6264, pxTCB,
 1558 003e 1846     		mov	r0, r3	@, D.6264
 1559 0040 FFF7FEFF 		bl	uxListRemove	@
1380:Source/tasks.c **** 					uxListRemove( &( pxTCB->xGenericListItem ) );
ARM GAS  C:\Users\Grzybek\AppData\Local\Temp\cccVQrHj.s 			page 53


 1560              		.loc 1 1380 0
 1561 0044 04F10403 		add	r3, r4, #4	@ D.6265, pxTCB,
 1562 0048 1846     		mov	r0, r3	@, D.6265
 1563 004a FFF7FEFF 		bl	uxListRemove	@
1381:Source/tasks.c **** 					prvAddTaskToReadyQueue( pxTCB );
 1564              		.loc 1 1381 0
 1565 004e E26A     		ldr	r2, [r4, #44]	@ D.6266, pxTCB_12->uxPriority
 1566 0050 2A4B     		ldr	r3, .L101+12	@ tmp166,
 1567 0052 1B68     		ldr	r3, [r3, #0]	@ uxTopReadyPriority.72, uxTopReadyPriority
 1568 0054 9A42     		cmp	r2, r3	@ D.6266, uxTopReadyPriority.72
 1569 0056 02D9     		bls	.L94	@,
 1570              		.loc 1 1381 0 is_stmt 0 discriminator 1
 1571 0058 E26A     		ldr	r2, [r4, #44]	@ uxTopReadyPriority.73, pxTCB_12->uxPriority
 1572 005a 284B     		ldr	r3, .L101+12	@ tmp167,
 1573 005c 1A60     		str	r2, [r3, #0]	@ uxTopReadyPriority.73, uxTopReadyPriority
 1574              	.L94:
 1575              		.loc 1 1381 0 discriminator 2
 1576 005e E26A     		ldr	r2, [r4, #44]	@ D.6271, pxTCB_12->uxPriority
 1577 0060 1346     		mov	r3, r2	@ tmp168, D.6271
 1578 0062 4FEA8303 		lsl	r3, r3, #2	@ tmp168, tmp168,
 1579 0066 9B18     		adds	r3, r3, r2	@ tmp168, tmp168, D.6271
 1580 0068 4FEA8303 		lsl	r3, r3, #2	@ tmp169, tmp168,
 1581 006c 244A     		ldr	r2, .L101+16	@ tmp170,
 1582 006e 9A18     		adds	r2, r3, r2	@ D.6272, tmp168, tmp170
 1583 0070 04F10403 		add	r3, r4, #4	@ D.6273, pxTCB,
 1584 0074 1046     		mov	r0, r2	@, D.6272
 1585 0076 1946     		mov	r1, r3	@, D.6273
 1586 0078 FFF7FEFF 		bl	vListInsertEnd	@
1382:Source/tasks.c **** 
1383:Source/tasks.c **** 					/* If we have moved a task that has a priority higher than
1384:Source/tasks.c **** 					the current task then we should yield. */
1385:Source/tasks.c **** 					if( pxTCB->uxPriority >= pxCurrentTCB->uxPriority )
 1587              		.loc 1 1385 0 is_stmt 1 discriminator 2
 1588 007c E26A     		ldr	r2, [r4, #44]	@ D.6274, pxTCB_12->uxPriority
 1589 007e 214B     		ldr	r3, .L101+20	@ tmp171,
 1590 0080 1B68     		ldr	r3, [r3, #0]	@ pxCurrentTCB.74, pxCurrentTCB
 1591 0082 DB6A     		ldr	r3, [r3, #44]	@ D.6276, pxCurrentTCB.74_22->uxPriority
 1592 0084 9A42     		cmp	r2, r3	@ D.6274, D.6276
 1593 0086 02D3     		bcc	.L93	@,
1386:Source/tasks.c **** 					{
1387:Source/tasks.c **** 						xYieldRequired = pdTRUE;
 1594              		.loc 1 1387 0
 1595 0088 4FF00103 		mov	r3, #1	@ tmp172,
 1596 008c 3B60     		str	r3, [r7, #0]	@ tmp172, xYieldRequired
 1597              	.L93:
1376:Source/tasks.c **** 				while( listLIST_IS_EMPTY( ( xList * ) &xPendingReadyList ) == pdFALSE )
 1598              		.loc 1 1376 0 discriminator 1
 1599 008e 1A4B     		ldr	r3, .L101+8	@ tmp173,
 1600 0090 1B68     		ldr	r3, [r3, #0]	@ D.6279, xPendingReadyList.uxNumberOfItems
 1601 0092 002B     		cmp	r3, #0	@ D.6279,
 1602 0094 CED1     		bne	.L95	@,
1388:Source/tasks.c **** 					}
1389:Source/tasks.c **** 				}
1390:Source/tasks.c **** 
1391:Source/tasks.c **** 				/* If any ticks occurred while the scheduler was suspended then
1392:Source/tasks.c **** 				they should be processed now.  This ensures the tick count does not
1393:Source/tasks.c **** 				slip, and that any delayed tasks are resumed at the correct time. */
ARM GAS  C:\Users\Grzybek\AppData\Local\Temp\cccVQrHj.s 			page 54


1394:Source/tasks.c **** 				if( uxMissedTicks > ( unsigned portBASE_TYPE ) 0U )
 1603              		.loc 1 1394 0
 1604 0096 1C4B     		ldr	r3, .L101+24	@ tmp174,
 1605 0098 1B68     		ldr	r3, [r3, #0]	@ uxMissedTicks.75, uxMissedTicks
 1606 009a 002B     		cmp	r3, #0	@ uxMissedTicks.75,
 1607 009c 0FD0     		beq	.L96	@,
1395:Source/tasks.c **** 				{
1396:Source/tasks.c **** 					while( uxMissedTicks > ( unsigned portBASE_TYPE ) 0U )
 1608              		.loc 1 1396 0
 1609 009e 07E0     		b	.L97	@
 1610              	.L98:
1397:Source/tasks.c **** 					{
1398:Source/tasks.c **** 						vTaskIncrementTick();
 1611              		.loc 1 1398 0
 1612 00a0 FFF7FEFF 		bl	vTaskIncrementTick	@
1399:Source/tasks.c **** 						--uxMissedTicks;
 1613              		.loc 1 1399 0
 1614 00a4 184B     		ldr	r3, .L101+24	@ tmp175,
 1615 00a6 1B68     		ldr	r3, [r3, #0]	@ uxMissedTicks.76, uxMissedTicks
 1616 00a8 03F1FF32 		add	r2, r3, #-1	@ uxMissedTicks.77, uxMissedTicks.76,
 1617 00ac 164B     		ldr	r3, .L101+24	@ tmp176,
 1618 00ae 1A60     		str	r2, [r3, #0]	@ uxMissedTicks.77, uxMissedTicks
 1619              	.L97:
1396:Source/tasks.c **** 					while( uxMissedTicks > ( unsigned portBASE_TYPE ) 0U )
 1620              		.loc 1 1396 0 discriminator 1
 1621 00b0 154B     		ldr	r3, .L101+24	@ tmp177,
 1622 00b2 1B68     		ldr	r3, [r3, #0]	@ uxMissedTicks.78, uxMissedTicks
 1623 00b4 002B     		cmp	r3, #0	@ uxMissedTicks.78,
 1624 00b6 F3D1     		bne	.L98	@,
1400:Source/tasks.c **** 					}
1401:Source/tasks.c **** 
1402:Source/tasks.c **** 					/* As we have processed some ticks it is appropriate to yield
1403:Source/tasks.c **** 					to ensure the highest priority task that is ready to run is
1404:Source/tasks.c **** 					the task actually running. */
1405:Source/tasks.c **** 					#if configUSE_PREEMPTION == 1
1406:Source/tasks.c **** 					{
1407:Source/tasks.c **** 						xYieldRequired = pdTRUE;
 1625              		.loc 1 1407 0
 1626 00b8 4FF00103 		mov	r3, #1	@ tmp178,
 1627 00bc 3B60     		str	r3, [r7, #0]	@ tmp178, xYieldRequired
 1628              	.L96:
1408:Source/tasks.c **** 					}
1409:Source/tasks.c **** 					#endif
1410:Source/tasks.c **** 				}
1411:Source/tasks.c **** 
1412:Source/tasks.c **** 				if( ( xYieldRequired == pdTRUE ) || ( xMissedYield == pdTRUE ) )
 1629              		.loc 1 1412 0
 1630 00be 3B68     		ldr	r3, [r7, #0]	@ tmp179, xYieldRequired
 1631 00c0 012B     		cmp	r3, #1	@ tmp179,
 1632 00c2 03D0     		beq	.L99	@,
 1633              		.loc 1 1412 0 is_stmt 0 discriminator 1
 1634 00c4 114B     		ldr	r3, .L101+28	@ tmp180,
 1635 00c6 1B68     		ldr	r3, [r3, #0]	@ xMissedYield.79, xMissedYield
 1636 00c8 012B     		cmp	r3, #1	@ xMissedYield.79,
 1637 00ca 08D1     		bne	.L92	@,
 1638              	.L99:
1413:Source/tasks.c **** 				{
ARM GAS  C:\Users\Grzybek\AppData\Local\Temp\cccVQrHj.s 			page 55


1414:Source/tasks.c **** 					xAlreadyYielded = pdTRUE;
 1639              		.loc 1 1414 0 is_stmt 1
 1640 00cc 4FF00103 		mov	r3, #1	@ tmp181,
 1641 00d0 7B60     		str	r3, [r7, #4]	@ tmp181, xAlreadyYielded
1415:Source/tasks.c **** 					xMissedYield = pdFALSE;
 1642              		.loc 1 1415 0
 1643 00d2 0E4B     		ldr	r3, .L101+28	@ tmp182,
 1644 00d4 4FF00002 		mov	r2, #0	@ tmp183,
 1645 00d8 1A60     		str	r2, [r3, #0]	@ tmp183, xMissedYield
1416:Source/tasks.c **** 					portYIELD_WITHIN_API();
 1646              		.loc 1 1416 0
 1647 00da FFF7FEFF 		bl	vPortYieldFromISR	@
 1648              	.L92:
 1649              	.LBE3:
1417:Source/tasks.c **** 				}
1418:Source/tasks.c **** 			}
1419:Source/tasks.c **** 		}
1420:Source/tasks.c **** 	}
1421:Source/tasks.c **** 	taskEXIT_CRITICAL();
 1650              		.loc 1 1421 0
 1651 00de FFF7FEFF 		bl	vPortExitCritical	@
1422:Source/tasks.c **** 
1423:Source/tasks.c **** 	return xAlreadyYielded;
 1652              		.loc 1 1423 0
 1653 00e2 7B68     		ldr	r3, [r7, #4]	@ D.6290, xAlreadyYielded
1424:Source/tasks.c **** }
 1654              		.loc 1 1424 0
 1655 00e4 1846     		mov	r0, r3	@, <retval>
 1656 00e6 07F10C07 		add	r7, r7, #12	@,,
 1657 00ea BD46     		mov	sp, r7
 1658 00ec 90BD     		pop	{r4, r7, pc}
 1659              	.L102:
 1660 00ee 00BF     		.align	2
 1661              	.L101:
 1662 00f0 00000000 		.word	uxSchedulerSuspended
 1663 00f4 00000000 		.word	uxCurrentNumberOfTasks
 1664 00f8 00000000 		.word	xPendingReadyList
 1665 00fc 00000000 		.word	uxTopReadyPriority
 1666 0100 00000000 		.word	pxReadyTasksLists
 1667 0104 00000000 		.word	pxCurrentTCB
 1668 0108 00000000 		.word	uxMissedTicks
 1669 010c 00000000 		.word	xMissedYield
 1670              		.cfi_endproc
 1671              	.LFE13:
 1672              		.size	xTaskResumeAll, .-xTaskResumeAll
 1673              		.section	.text.xTaskGetTickCount,"ax",%progbits
 1674              		.align	2
 1675              		.global	xTaskGetTickCount
 1676              		.thumb
 1677              		.thumb_func
 1678              		.type	xTaskGetTickCount, %function
 1679              	xTaskGetTickCount:
 1680              	.LFB14:
1425:Source/tasks.c **** 
1426:Source/tasks.c **** 
1427:Source/tasks.c **** 
1428:Source/tasks.c **** 
ARM GAS  C:\Users\Grzybek\AppData\Local\Temp\cccVQrHj.s 			page 56


1429:Source/tasks.c **** 
1430:Source/tasks.c **** 
1431:Source/tasks.c **** /*-----------------------------------------------------------
1432:Source/tasks.c ****  * PUBLIC TASK UTILITIES documented in task.h
1433:Source/tasks.c ****  *----------------------------------------------------------*/
1434:Source/tasks.c **** 
1435:Source/tasks.c **** 
1436:Source/tasks.c **** 
1437:Source/tasks.c **** portTickType xTaskGetTickCount( void )
1438:Source/tasks.c **** {
 1681              		.loc 1 1438 0
 1682              		.cfi_startproc
 1683              		@ args = 0, pretend = 0, frame = 8
 1684              		@ frame_needed = 1, uses_anonymous_args = 0
 1685 0000 80B5     		push	{r7, lr}	@
 1686              	.LCFI40:
 1687              		.cfi_def_cfa_offset 8
 1688              		.cfi_offset 7, -8
 1689              		.cfi_offset 14, -4
 1690 0002 82B0     		sub	sp, sp, #8	@,,
 1691              	.LCFI41:
 1692              		.cfi_def_cfa_offset 16
 1693 0004 00AF     		add	r7, sp, #0	@,,
 1694              	.LCFI42:
 1695              		.cfi_def_cfa_register 7
1439:Source/tasks.c **** portTickType xTicks;
1440:Source/tasks.c **** 
1441:Source/tasks.c **** 	/* Critical section required if running on a 16 bit processor. */
1442:Source/tasks.c **** 	taskENTER_CRITICAL();
 1696              		.loc 1 1442 0
 1697 0006 FFF7FEFF 		bl	vPortEnterCritical	@
1443:Source/tasks.c **** 	{
1444:Source/tasks.c **** 		xTicks = xTickCount;
 1698              		.loc 1 1444 0
 1699 000a 054B     		ldr	r3, .L105	@ tmp136,
 1700 000c 1B68     		ldr	r3, [r3, #0]	@ tmp137, xTickCount
 1701 000e 7B60     		str	r3, [r7, #4]	@ tmp137, xTicks
1445:Source/tasks.c **** 	}
1446:Source/tasks.c **** 	taskEXIT_CRITICAL();
 1702              		.loc 1 1446 0
 1703 0010 FFF7FEFF 		bl	vPortExitCritical	@
1447:Source/tasks.c **** 
1448:Source/tasks.c **** 	return xTicks;
 1704              		.loc 1 1448 0
 1705 0014 7B68     		ldr	r3, [r7, #4]	@ D.6253, xTicks
1449:Source/tasks.c **** }
 1706              		.loc 1 1449 0
 1707 0016 1846     		mov	r0, r3	@, <retval>
 1708 0018 07F10807 		add	r7, r7, #8	@,,
 1709 001c BD46     		mov	sp, r7
 1710 001e 80BD     		pop	{r7, pc}
 1711              	.L106:
 1712              		.align	2
 1713              	.L105:
 1714 0020 00000000 		.word	xTickCount
 1715              		.cfi_endproc
 1716              	.LFE14:
ARM GAS  C:\Users\Grzybek\AppData\Local\Temp\cccVQrHj.s 			page 57


 1717              		.size	xTaskGetTickCount, .-xTaskGetTickCount
 1718              		.section	.text.xTaskGetTickCountFromISR,"ax",%progbits
 1719              		.align	2
 1720              		.global	xTaskGetTickCountFromISR
 1721              		.thumb
 1722              		.thumb_func
 1723              		.type	xTaskGetTickCountFromISR, %function
 1724              	xTaskGetTickCountFromISR:
 1725              	.LFB15:
1450:Source/tasks.c **** /*-----------------------------------------------------------*/
1451:Source/tasks.c **** 
1452:Source/tasks.c **** portTickType xTaskGetTickCountFromISR( void )
1453:Source/tasks.c **** {
 1726              		.loc 1 1453 0
 1727              		.cfi_startproc
 1728              		@ args = 0, pretend = 0, frame = 8
 1729              		@ frame_needed = 1, uses_anonymous_args = 0
 1730 0000 80B5     		push	{r7, lr}	@
 1731              	.LCFI43:
 1732              		.cfi_def_cfa_offset 8
 1733              		.cfi_offset 7, -8
 1734              		.cfi_offset 14, -4
 1735 0002 82B0     		sub	sp, sp, #8	@,,
 1736              	.LCFI44:
 1737              		.cfi_def_cfa_offset 16
 1738 0004 00AF     		add	r7, sp, #0	@,,
 1739              	.LCFI45:
 1740              		.cfi_def_cfa_register 7
1454:Source/tasks.c **** portTickType xReturn;
1455:Source/tasks.c **** unsigned portBASE_TYPE uxSavedInterruptStatus;
1456:Source/tasks.c **** 
1457:Source/tasks.c **** 	uxSavedInterruptStatus = portSET_INTERRUPT_MASK_FROM_ISR();
 1741              		.loc 1 1457 0
 1742 0006 FFF7FEFF 		bl	ulPortSetInterruptMask	@
 1743 000a 7860     		str	r0, [r7, #4]	@, uxSavedInterruptStatus
1458:Source/tasks.c **** 	xReturn = xTickCount;
 1744              		.loc 1 1458 0
 1745 000c 054B     		ldr	r3, .L109	@ tmp136,
 1746 000e 1B68     		ldr	r3, [r3, #0]	@ tmp137, xTickCount
 1747 0010 3B60     		str	r3, [r7, #0]	@ tmp137, xReturn
1459:Source/tasks.c **** 	portCLEAR_INTERRUPT_MASK_FROM_ISR( uxSavedInterruptStatus );
 1748              		.loc 1 1459 0
 1749 0012 7868     		ldr	r0, [r7, #4]	@, uxSavedInterruptStatus
 1750 0014 FFF7FEFF 		bl	vPortClearInterruptMask	@
1460:Source/tasks.c **** 
1461:Source/tasks.c **** 	return xReturn;
 1751              		.loc 1 1461 0
 1752 0018 3B68     		ldr	r3, [r7, #0]	@ D.6251, xReturn
1462:Source/tasks.c **** }
 1753              		.loc 1 1462 0
 1754 001a 1846     		mov	r0, r3	@, <retval>
 1755 001c 07F10807 		add	r7, r7, #8	@,,
 1756 0020 BD46     		mov	sp, r7
 1757 0022 80BD     		pop	{r7, pc}
 1758              	.L110:
 1759              		.align	2
 1760              	.L109:
ARM GAS  C:\Users\Grzybek\AppData\Local\Temp\cccVQrHj.s 			page 58


 1761 0024 00000000 		.word	xTickCount
 1762              		.cfi_endproc
 1763              	.LFE15:
 1764              		.size	xTaskGetTickCountFromISR, .-xTaskGetTickCountFromISR
 1765              		.section	.text.uxTaskGetNumberOfTasks,"ax",%progbits
 1766              		.align	2
 1767              		.global	uxTaskGetNumberOfTasks
 1768              		.thumb
 1769              		.thumb_func
 1770              		.type	uxTaskGetNumberOfTasks, %function
 1771              	uxTaskGetNumberOfTasks:
 1772              	.LFB16:
1463:Source/tasks.c **** /*-----------------------------------------------------------*/
1464:Source/tasks.c **** 
1465:Source/tasks.c **** unsigned portBASE_TYPE uxTaskGetNumberOfTasks( void )
1466:Source/tasks.c **** {
 1773              		.loc 1 1466 0
 1774              		.cfi_startproc
 1775              		@ args = 0, pretend = 0, frame = 0
 1776              		@ frame_needed = 1, uses_anonymous_args = 0
 1777              		@ link register save eliminated.
 1778 0000 80B4     		push	{r7}	@
 1779              	.LCFI46:
 1780              		.cfi_def_cfa_offset 4
 1781              		.cfi_offset 7, -4
 1782 0002 00AF     		add	r7, sp, #0	@,,
 1783              	.LCFI47:
 1784              		.cfi_def_cfa_register 7
1467:Source/tasks.c **** 	/* A critical section is not required because the variables are of type
1468:Source/tasks.c **** 	portBASE_TYPE. */
1469:Source/tasks.c **** 	return uxCurrentNumberOfTasks;
 1785              		.loc 1 1469 0
 1786 0004 024B     		ldr	r3, .L113	@ tmp136,
 1787 0006 1B68     		ldr	r3, [r3, #0]	@ D.6249, uxCurrentNumberOfTasks
1470:Source/tasks.c **** }
 1788              		.loc 1 1470 0
 1789 0008 1846     		mov	r0, r3	@, <retval>
 1790 000a BD46     		mov	sp, r7
 1791 000c 80BC     		pop	{r7}
 1792 000e 7047     		bx	lr
 1793              	.L114:
 1794              		.align	2
 1795              	.L113:
 1796 0010 00000000 		.word	uxCurrentNumberOfTasks
 1797              		.cfi_endproc
 1798              	.LFE16:
 1799              		.size	uxTaskGetNumberOfTasks, .-uxTaskGetNumberOfTasks
 1800              		.section	.text.vTaskIncrementTick,"ax",%progbits
 1801              		.align	2
 1802              		.global	vTaskIncrementTick
 1803              		.thumb
 1804              		.thumb_func
 1805              		.type	vTaskIncrementTick, %function
 1806              	vTaskIncrementTick:
 1807              	.LFB17:
1471:Source/tasks.c **** /*-----------------------------------------------------------*/
1472:Source/tasks.c **** 
ARM GAS  C:\Users\Grzybek\AppData\Local\Temp\cccVQrHj.s 			page 59


1473:Source/tasks.c **** #if ( INCLUDE_pcTaskGetTaskName == 1 )
1474:Source/tasks.c **** 
1475:Source/tasks.c **** 	signed char *pcTaskGetTaskName( xTaskHandle xTaskToQuery )
1476:Source/tasks.c **** 	{
1477:Source/tasks.c **** 	tskTCB *pxTCB;
1478:Source/tasks.c **** 
1479:Source/tasks.c **** 		/* If null is passed in here then the name of the calling task is being queried. */
1480:Source/tasks.c **** 		pxTCB = prvGetTCBFromHandle( xTaskToQuery );
1481:Source/tasks.c **** 		configASSERT( pxTCB );
1482:Source/tasks.c **** 		return &( pxTCB->pcTaskName[ 0 ] );
1483:Source/tasks.c **** 	}
1484:Source/tasks.c **** 
1485:Source/tasks.c **** #endif
1486:Source/tasks.c **** /*-----------------------------------------------------------*/
1487:Source/tasks.c **** 
1488:Source/tasks.c **** #if ( configUSE_TRACE_FACILITY == 1 )
1489:Source/tasks.c **** 
1490:Source/tasks.c **** 	void vTaskList( signed char *pcWriteBuffer )
1491:Source/tasks.c **** 	{
1492:Source/tasks.c **** 	unsigned portBASE_TYPE uxQueue;
1493:Source/tasks.c **** 
1494:Source/tasks.c **** 		/* This is a VERY costly function that should be used for debug only.
1495:Source/tasks.c **** 		It leaves interrupts disabled for a LONG time. */
1496:Source/tasks.c **** 
1497:Source/tasks.c **** 		vTaskSuspendAll();
1498:Source/tasks.c **** 		{
1499:Source/tasks.c **** 			/* Run through all the lists that could potentially contain a TCB and
1500:Source/tasks.c **** 			report the task name, state and stack high water mark. */
1501:Source/tasks.c **** 
1502:Source/tasks.c **** 			*pcWriteBuffer = ( signed char ) 0x00;
1503:Source/tasks.c **** 			strcat( ( char * ) pcWriteBuffer, ( const char * ) "\r\n" );
1504:Source/tasks.c **** 
1505:Source/tasks.c **** 			uxQueue = uxTopUsedPriority + ( unsigned portBASE_TYPE ) 1U;
1506:Source/tasks.c **** 
1507:Source/tasks.c **** 			do
1508:Source/tasks.c **** 			{
1509:Source/tasks.c **** 				uxQueue--;
1510:Source/tasks.c **** 
1511:Source/tasks.c **** 				if( listLIST_IS_EMPTY( &( pxReadyTasksLists[ uxQueue ] ) ) == pdFALSE )
1512:Source/tasks.c **** 				{
1513:Source/tasks.c **** 					prvListTaskWithinSingleList( pcWriteBuffer, ( xList * ) &( pxReadyTasksLists[ uxQueue ] ), tsk
1514:Source/tasks.c **** 				}
1515:Source/tasks.c **** 			}while( uxQueue > ( unsigned short ) tskIDLE_PRIORITY );
1516:Source/tasks.c **** 
1517:Source/tasks.c **** 			if( listLIST_IS_EMPTY( pxDelayedTaskList ) == pdFALSE )
1518:Source/tasks.c **** 			{
1519:Source/tasks.c **** 				prvListTaskWithinSingleList( pcWriteBuffer, ( xList * ) pxDelayedTaskList, tskBLOCKED_CHAR );
1520:Source/tasks.c **** 			}
1521:Source/tasks.c **** 
1522:Source/tasks.c **** 			if( listLIST_IS_EMPTY( pxOverflowDelayedTaskList ) == pdFALSE )
1523:Source/tasks.c **** 			{
1524:Source/tasks.c **** 				prvListTaskWithinSingleList( pcWriteBuffer, ( xList * ) pxOverflowDelayedTaskList, tskBLOCKED_C
1525:Source/tasks.c **** 			}
1526:Source/tasks.c **** 
1527:Source/tasks.c **** 			#if( INCLUDE_vTaskDelete == 1 )
1528:Source/tasks.c **** 			{
1529:Source/tasks.c **** 				if( listLIST_IS_EMPTY( &xTasksWaitingTermination ) == pdFALSE )
ARM GAS  C:\Users\Grzybek\AppData\Local\Temp\cccVQrHj.s 			page 60


1530:Source/tasks.c **** 				{
1531:Source/tasks.c **** 					prvListTaskWithinSingleList( pcWriteBuffer, &xTasksWaitingTermination, tskDELETED_CHAR );
1532:Source/tasks.c **** 				}
1533:Source/tasks.c **** 			}
1534:Source/tasks.c **** 			#endif
1535:Source/tasks.c **** 
1536:Source/tasks.c **** 			#if ( INCLUDE_vTaskSuspend == 1 )
1537:Source/tasks.c **** 			{
1538:Source/tasks.c **** 				if( listLIST_IS_EMPTY( &xSuspendedTaskList ) == pdFALSE )
1539:Source/tasks.c **** 				{
1540:Source/tasks.c **** 					prvListTaskWithinSingleList( pcWriteBuffer, &xSuspendedTaskList, tskSUSPENDED_CHAR );
1541:Source/tasks.c **** 				}
1542:Source/tasks.c **** 			}
1543:Source/tasks.c **** 			#endif
1544:Source/tasks.c **** 		}
1545:Source/tasks.c **** 		xTaskResumeAll();
1546:Source/tasks.c **** 	}
1547:Source/tasks.c **** 
1548:Source/tasks.c **** #endif
1549:Source/tasks.c **** /*----------------------------------------------------------*/
1550:Source/tasks.c **** 
1551:Source/tasks.c **** #if ( configGENERATE_RUN_TIME_STATS == 1 )
1552:Source/tasks.c **** 
1553:Source/tasks.c **** 	void vTaskGetRunTimeStats( signed char *pcWriteBuffer )
1554:Source/tasks.c **** 	{
1555:Source/tasks.c **** 	unsigned portBASE_TYPE uxQueue;
1556:Source/tasks.c **** 	unsigned long ulTotalRunTime;
1557:Source/tasks.c **** 
1558:Source/tasks.c **** 		/* This is a VERY costly function that should be used for debug only.
1559:Source/tasks.c **** 		It leaves interrupts disabled for a LONG time. */
1560:Source/tasks.c **** 
1561:Source/tasks.c **** 		vTaskSuspendAll();
1562:Source/tasks.c **** 		{
1563:Source/tasks.c **** 			#ifdef portALT_GET_RUN_TIME_COUNTER_VALUE
1564:Source/tasks.c **** 				portALT_GET_RUN_TIME_COUNTER_VALUE( ulTotalRunTime );
1565:Source/tasks.c **** 			#else
1566:Source/tasks.c **** 				ulTotalRunTime = portGET_RUN_TIME_COUNTER_VALUE();
1567:Source/tasks.c **** 			#endif
1568:Source/tasks.c **** 
1569:Source/tasks.c **** 			/* Divide ulTotalRunTime by 100 to make the percentage caluclations
1570:Source/tasks.c **** 			simpler in the prvGenerateRunTimeStatsForTasksInList() function. */
1571:Source/tasks.c **** 			ulTotalRunTime /= 100UL;
1572:Source/tasks.c **** 
1573:Source/tasks.c **** 			/* Run through all the lists that could potentially contain a TCB,
1574:Source/tasks.c **** 			generating a table of run timer percentages in the provided
1575:Source/tasks.c **** 			buffer. */
1576:Source/tasks.c **** 
1577:Source/tasks.c **** 			*pcWriteBuffer = ( signed char ) 0x00;
1578:Source/tasks.c **** 			strcat( ( char * ) pcWriteBuffer, ( const char * ) "\r\n" );
1579:Source/tasks.c **** 
1580:Source/tasks.c **** 			uxQueue = uxTopUsedPriority + ( unsigned portBASE_TYPE ) 1U;
1581:Source/tasks.c **** 
1582:Source/tasks.c **** 			do
1583:Source/tasks.c **** 			{
1584:Source/tasks.c **** 				uxQueue--;
1585:Source/tasks.c **** 
1586:Source/tasks.c **** 				if( listLIST_IS_EMPTY( &( pxReadyTasksLists[ uxQueue ] ) ) == pdFALSE )
ARM GAS  C:\Users\Grzybek\AppData\Local\Temp\cccVQrHj.s 			page 61


1587:Source/tasks.c **** 				{
1588:Source/tasks.c **** 					prvGenerateRunTimeStatsForTasksInList( pcWriteBuffer, ( xList * ) &( pxReadyTasksLists[ uxQueu
1589:Source/tasks.c **** 				}
1590:Source/tasks.c **** 			}while( uxQueue > ( unsigned short ) tskIDLE_PRIORITY );
1591:Source/tasks.c **** 
1592:Source/tasks.c **** 			if( listLIST_IS_EMPTY( pxDelayedTaskList ) == pdFALSE )
1593:Source/tasks.c **** 			{
1594:Source/tasks.c **** 				prvGenerateRunTimeStatsForTasksInList( pcWriteBuffer, ( xList * ) pxDelayedTaskList, ulTotalRun
1595:Source/tasks.c **** 			}
1596:Source/tasks.c **** 
1597:Source/tasks.c **** 			if( listLIST_IS_EMPTY( pxOverflowDelayedTaskList ) == pdFALSE )
1598:Source/tasks.c **** 			{
1599:Source/tasks.c **** 				prvGenerateRunTimeStatsForTasksInList( pcWriteBuffer, ( xList * ) pxOverflowDelayedTaskList, ul
1600:Source/tasks.c **** 			}
1601:Source/tasks.c **** 
1602:Source/tasks.c **** 			#if ( INCLUDE_vTaskDelete == 1 )
1603:Source/tasks.c **** 			{
1604:Source/tasks.c **** 				if( listLIST_IS_EMPTY( &xTasksWaitingTermination ) == pdFALSE )
1605:Source/tasks.c **** 				{
1606:Source/tasks.c **** 					prvGenerateRunTimeStatsForTasksInList( pcWriteBuffer, &xTasksWaitingTermination, ulTotalRunTim
1607:Source/tasks.c **** 				}
1608:Source/tasks.c **** 			}
1609:Source/tasks.c **** 			#endif
1610:Source/tasks.c **** 
1611:Source/tasks.c **** 			#if ( INCLUDE_vTaskSuspend == 1 )
1612:Source/tasks.c **** 			{
1613:Source/tasks.c **** 				if( listLIST_IS_EMPTY( &xSuspendedTaskList ) == pdFALSE )
1614:Source/tasks.c **** 				{
1615:Source/tasks.c **** 					prvGenerateRunTimeStatsForTasksInList( pcWriteBuffer, &xSuspendedTaskList, ulTotalRunTime );
1616:Source/tasks.c **** 				}
1617:Source/tasks.c **** 			}
1618:Source/tasks.c **** 			#endif
1619:Source/tasks.c **** 		}
1620:Source/tasks.c **** 		xTaskResumeAll();
1621:Source/tasks.c **** 	}
1622:Source/tasks.c **** 
1623:Source/tasks.c **** #endif
1624:Source/tasks.c **** /*----------------------------------------------------------*/
1625:Source/tasks.c **** 
1626:Source/tasks.c **** #if ( INCLUDE_xTaskGetIdleTaskHandle == 1 )
1627:Source/tasks.c **** 
1628:Source/tasks.c **** 	xTaskHandle xTaskGetIdleTaskHandle( void )
1629:Source/tasks.c **** 	{
1630:Source/tasks.c **** 		/* If xTaskGetIdleTaskHandle() is called before the scheduler has been
1631:Source/tasks.c **** 		started, then xIdleTaskHandle will be NULL. */
1632:Source/tasks.c **** 		configASSERT( ( xIdleTaskHandle != NULL ) );
1633:Source/tasks.c **** 		return xIdleTaskHandle;
1634:Source/tasks.c **** 	}
1635:Source/tasks.c **** 
1636:Source/tasks.c **** #endif
1637:Source/tasks.c **** /*----------------------------------------------------------*/
1638:Source/tasks.c **** 
1639:Source/tasks.c **** /* This conditional compilation should use inequality to 0, not equality to 1.
1640:Source/tasks.c **** This is to ensure vTaskStepTick() is available when user defined low power mode	
1641:Source/tasks.c **** implementations require configUSE_TICKLESS_IDLE to be set to a value other than
1642:Source/tasks.c **** 1. */
1643:Source/tasks.c **** #if ( configUSE_TICKLESS_IDLE != 0 )
ARM GAS  C:\Users\Grzybek\AppData\Local\Temp\cccVQrHj.s 			page 62


1644:Source/tasks.c **** 
1645:Source/tasks.c **** 	void vTaskStepTick( portTickType xTicksToJump )
1646:Source/tasks.c **** 	{
1647:Source/tasks.c **** 		configASSERT( xTicksToJump <= xNextTaskUnblockTime );
1648:Source/tasks.c **** 		xTickCount += xTicksToJump;
1649:Source/tasks.c **** 	}
1650:Source/tasks.c **** 
1651:Source/tasks.c **** #endif
1652:Source/tasks.c **** 
1653:Source/tasks.c **** /*-----------------------------------------------------------
1654:Source/tasks.c ****  * SCHEDULER INTERNALS AVAILABLE FOR PORTING PURPOSES
1655:Source/tasks.c ****  * documented in task.h
1656:Source/tasks.c ****  *----------------------------------------------------------*/
1657:Source/tasks.c **** 
1658:Source/tasks.c **** void vTaskIncrementTick( void )
1659:Source/tasks.c **** {
 1808              		.loc 1 1659 0
 1809              		.cfi_startproc
 1810              		@ args = 0, pretend = 0, frame = 16
 1811              		@ frame_needed = 1, uses_anonymous_args = 0
 1812 0000 80B5     		push	{r7, lr}	@
 1813              	.LCFI48:
 1814              		.cfi_def_cfa_offset 8
 1815              		.cfi_offset 7, -8
 1816              		.cfi_offset 14, -4
 1817 0002 84B0     		sub	sp, sp, #16	@,,
 1818              	.LCFI49:
 1819              		.cfi_def_cfa_offset 24
 1820 0004 00AF     		add	r7, sp, #0	@,,
 1821              	.LCFI50:
 1822              		.cfi_def_cfa_register 7
1660:Source/tasks.c **** tskTCB * pxTCB;
1661:Source/tasks.c **** 
1662:Source/tasks.c **** 	/* Called by the portable layer each time a tick interrupt occurs.
1663:Source/tasks.c **** 	Increments the tick then checks to see if the new tick value will cause any
1664:Source/tasks.c **** 	tasks to be unblocked. */
1665:Source/tasks.c **** 	traceTASK_INCREMENT_TICK( xTickCount );
1666:Source/tasks.c **** 	if( uxSchedulerSuspended == ( unsigned portBASE_TYPE ) pdFALSE )
 1823              		.loc 1 1666 0
 1824 0006 444B     		ldr	r3, .L126	@ tmp164,
 1825 0008 1B68     		ldr	r3, [r3, #0]	@ uxSchedulerSuspended.49, uxSchedulerSuspended
 1826 000a 002B     		cmp	r3, #0	@ uxSchedulerSuspended.49,
 1827 000c 79D1     		bne	.L116	@,
1667:Source/tasks.c **** 	{
1668:Source/tasks.c **** 		++xTickCount;
 1828              		.loc 1 1668 0
 1829 000e 434B     		ldr	r3, .L126+4	@ tmp165,
 1830 0010 1B68     		ldr	r3, [r3, #0]	@ xTickCount.50, xTickCount
 1831 0012 03F10102 		add	r2, r3, #1	@ xTickCount.51, xTickCount.50,
 1832 0016 414B     		ldr	r3, .L126+4	@ tmp166,
 1833 0018 1A60     		str	r2, [r3, #0]	@ xTickCount.51, xTickCount
1669:Source/tasks.c **** 		if( xTickCount == ( portTickType ) 0U )
 1834              		.loc 1 1669 0
 1835 001a 404B     		ldr	r3, .L126+4	@ tmp167,
 1836 001c 1B68     		ldr	r3, [r3, #0]	@ xTickCount.52, xTickCount
 1837 001e 002B     		cmp	r3, #0	@ xTickCount.52,
 1838 0020 22D1     		bne	.L117	@,
ARM GAS  C:\Users\Grzybek\AppData\Local\Temp\cccVQrHj.s 			page 63


 1839              	.LBB4:
1670:Source/tasks.c **** 		{
1671:Source/tasks.c **** 			xList *pxTemp;
1672:Source/tasks.c **** 
1673:Source/tasks.c **** 			/* Tick count has overflowed so we need to swap the delay lists.
1674:Source/tasks.c **** 			If there are any items in pxDelayedTaskList here then there is
1675:Source/tasks.c **** 			an error! */
1676:Source/tasks.c **** 			configASSERT( ( listLIST_IS_EMPTY( pxDelayedTaskList ) ) );
1677:Source/tasks.c **** 
1678:Source/tasks.c **** 			pxTemp = pxDelayedTaskList;
 1840              		.loc 1 1678 0
 1841 0022 3F4B     		ldr	r3, .L126+8	@ tmp168,
 1842 0024 1B68     		ldr	r3, [r3, #0]	@ tmp169, pxDelayedTaskList
 1843 0026 FB60     		str	r3, [r7, #12]	@ tmp169, pxTemp
1679:Source/tasks.c **** 			pxDelayedTaskList = pxOverflowDelayedTaskList;
 1844              		.loc 1 1679 0
 1845 0028 3E4B     		ldr	r3, .L126+12	@ tmp170,
 1846 002a 1A68     		ldr	r2, [r3, #0]	@ pxOverflowDelayedTaskList.53, pxOverflowDelayedTaskList
 1847 002c 3C4B     		ldr	r3, .L126+8	@ tmp171,
 1848 002e 1A60     		str	r2, [r3, #0]	@ pxOverflowDelayedTaskList.53, pxDelayedTaskList
1680:Source/tasks.c **** 			pxOverflowDelayedTaskList = pxTemp;
 1849              		.loc 1 1680 0
 1850 0030 3C4B     		ldr	r3, .L126+12	@ tmp172,
 1851 0032 FA68     		ldr	r2, [r7, #12]	@ tmp173, pxTemp
 1852 0034 1A60     		str	r2, [r3, #0]	@ tmp173, pxOverflowDelayedTaskList
1681:Source/tasks.c **** 			xNumOfOverflows++;
 1853              		.loc 1 1681 0
 1854 0036 3C4B     		ldr	r3, .L126+16	@ tmp174,
 1855 0038 1B68     		ldr	r3, [r3, #0]	@ xNumOfOverflows.54, xNumOfOverflows
 1856 003a 03F10102 		add	r2, r3, #1	@ xNumOfOverflows.55, xNumOfOverflows.54,
 1857 003e 3A4B     		ldr	r3, .L126+16	@ tmp175,
 1858 0040 1A60     		str	r2, [r3, #0]	@ xNumOfOverflows.55, xNumOfOverflows
1682:Source/tasks.c **** 
1683:Source/tasks.c **** 			if( listLIST_IS_EMPTY( pxDelayedTaskList ) != pdFALSE )
 1859              		.loc 1 1683 0
 1860 0042 374B     		ldr	r3, .L126+8	@ tmp176,
 1861 0044 1B68     		ldr	r3, [r3, #0]	@ pxDelayedTaskList.56, pxDelayedTaskList
 1862 0046 1B68     		ldr	r3, [r3, #0]	@ D.6213, pxDelayedTaskList.56_9->uxNumberOfItems
 1863 0048 002B     		cmp	r3, #0	@ D.6213,
 1864 004a 04D1     		bne	.L118	@,
1684:Source/tasks.c **** 			{
1685:Source/tasks.c **** 				/* The new current delayed list is empty.  Set
1686:Source/tasks.c **** 				xNextTaskUnblockTime to the maximum possible value so it is
1687:Source/tasks.c **** 				extremely unlikely that the
1688:Source/tasks.c **** 				if( xTickCount >= xNextTaskUnblockTime ) test will pass until
1689:Source/tasks.c **** 				there is an item in the delayed list. */
1690:Source/tasks.c **** 				xNextTaskUnblockTime = portMAX_DELAY;
 1865              		.loc 1 1690 0
 1866 004c 374B     		ldr	r3, .L126+20	@ tmp177,
 1867 004e 4FF0FF32 		mov	r2, #-1	@ tmp178,
 1868 0052 1A60     		str	r2, [r3, #0]	@ tmp178, xNextTaskUnblockTime
 1869 0054 08E0     		b	.L117	@
 1870              	.L118:
1691:Source/tasks.c **** 			}
1692:Source/tasks.c **** 			else
1693:Source/tasks.c **** 			{
1694:Source/tasks.c **** 				/* The new current delayed list is not empty, get the value of
ARM GAS  C:\Users\Grzybek\AppData\Local\Temp\cccVQrHj.s 			page 64


1695:Source/tasks.c **** 				the item at the head of the delayed list.  This is the time at
1696:Source/tasks.c **** 				which the task at the head of the delayed list should be removed
1697:Source/tasks.c **** 				from the Blocked state. */
1698:Source/tasks.c **** 				pxTCB = ( tskTCB * ) listGET_OWNER_OF_HEAD_ENTRY( pxDelayedTaskList );
 1871              		.loc 1 1698 0
 1872 0056 324B     		ldr	r3, .L126+8	@ tmp179,
 1873 0058 1B68     		ldr	r3, [r3, #0]	@ pxDelayedTaskList.57, pxDelayedTaskList
 1874 005a DB68     		ldr	r3, [r3, #12]	@ D.6218, pxDelayedTaskList.57_11->xListEnd.pxNext
 1875 005c DB68     		ldr	r3, [r3, #12]	@ tmp180, D.6218_12->pvOwner
 1876 005e BB60     		str	r3, [r7, #8]	@ tmp180, pxTCB
1699:Source/tasks.c **** 				xNextTaskUnblockTime = listGET_LIST_ITEM_VALUE( &( pxTCB->xGenericListItem ) );
 1877              		.loc 1 1699 0
 1878 0060 BB68     		ldr	r3, [r7, #8]	@ tmp181, pxTCB
 1879 0062 5A68     		ldr	r2, [r3, #4]	@ xNextTaskUnblockTime.58, pxTCB_13->xGenericListItem.xItemValue
 1880 0064 314B     		ldr	r3, .L126+20	@ tmp182,
 1881 0066 1A60     		str	r2, [r3, #0]	@ xNextTaskUnblockTime.58, xNextTaskUnblockTime
 1882              	.L117:
 1883              	.LBE4:
 1884              	.LBB5:
1700:Source/tasks.c **** 			}
1701:Source/tasks.c **** 		}
1702:Source/tasks.c **** 
1703:Source/tasks.c **** 		/* See if this tick has made a timeout expire. */
1704:Source/tasks.c **** 		prvCheckDelayedTasks();
 1885              		.loc 1 1704 0
 1886 0068 2C4B     		ldr	r3, .L126+4	@ tmp183,
 1887 006a 1A68     		ldr	r2, [r3, #0]	@ xTickCount.59, xTickCount
 1888 006c 2F4B     		ldr	r3, .L126+20	@ tmp184,
 1889 006e 1B68     		ldr	r3, [r3, #0]	@ xNextTaskUnblockTime.60, xNextTaskUnblockTime
 1890 0070 9A42     		cmp	r2, r3	@ xTickCount.59, xNextTaskUnblockTime.60
 1891 0072 4CD3     		bcc	.L115	@,
 1892              	.L124:
 1893              		.loc 1 1704 0 is_stmt 0 discriminator 1
 1894 0074 2A4B     		ldr	r3, .L126+8	@ tmp185,
 1895 0076 1B68     		ldr	r3, [r3, #0]	@ pxDelayedTaskList.61, pxDelayedTaskList
 1896 0078 1B68     		ldr	r3, [r3, #0]	@ D.6225, pxDelayedTaskList.61_17->uxNumberOfItems
 1897 007a 002B     		cmp	r3, #0	@ D.6225,
 1898 007c 04D1     		bne	.L120	@,
 1899              		.loc 1 1704 0 discriminator 2
 1900 007e 2B4B     		ldr	r3, .L126+20	@ tmp186,
 1901 0080 4FF0FF32 		mov	r2, #-1	@ tmp187,
 1902 0084 1A60     		str	r2, [r3, #0]	@ tmp187, xNextTaskUnblockTime
 1903 0086 42E0     		b	.L115	@
 1904              	.L120:
 1905              		.loc 1 1704 0 discriminator 3
 1906 0088 254B     		ldr	r3, .L126+8	@ tmp188,
 1907 008a 1B68     		ldr	r3, [r3, #0]	@ pxDelayedTaskList.62, pxDelayedTaskList
 1908 008c DB68     		ldr	r3, [r3, #12]	@ D.6229, pxDelayedTaskList.62_19->xListEnd.pxNext
 1909 008e DB68     		ldr	r3, [r3, #12]	@ tmp189, D.6229_20->pvOwner
 1910 0090 BB60     		str	r3, [r7, #8]	@ tmp189, pxTCB
 1911 0092 BB68     		ldr	r3, [r7, #8]	@ tmp190, pxTCB
 1912 0094 5B68     		ldr	r3, [r3, #4]	@ tmp191, pxTCB_21->xGenericListItem.xItemValue
 1913 0096 7B60     		str	r3, [r7, #4]	@ tmp191, xItemValue
 1914 0098 204B     		ldr	r3, .L126+4	@ tmp192,
 1915 009a 1A68     		ldr	r2, [r3, #0]	@ xTickCount.63, xTickCount
 1916 009c 7B68     		ldr	r3, [r7, #4]	@ tmp193, xItemValue
 1917 009e 9A42     		cmp	r2, r3	@ xTickCount.63, tmp193
ARM GAS  C:\Users\Grzybek\AppData\Local\Temp\cccVQrHj.s 			page 65


 1918 00a0 03D2     		bcs	.L121	@,
 1919              		.loc 1 1704 0 discriminator 4
 1920 00a2 224B     		ldr	r3, .L126+20	@ tmp194,
 1921 00a4 7A68     		ldr	r2, [r7, #4]	@ tmp195, xItemValue
 1922 00a6 1A60     		str	r2, [r3, #0]	@ tmp195, xNextTaskUnblockTime
 1923 00a8 31E0     		b	.L115	@
 1924              	.L121:
 1925              		.loc 1 1704 0 discriminator 5
 1926 00aa BB68     		ldr	r3, [r7, #8]	@ tmp196, pxTCB
 1927 00ac 03F10403 		add	r3, r3, #4	@ D.6233, tmp196,
 1928 00b0 1846     		mov	r0, r3	@, D.6233
 1929 00b2 FFF7FEFF 		bl	uxListRemove	@
 1930 00b6 BB68     		ldr	r3, [r7, #8]	@ tmp197, pxTCB
 1931 00b8 9B6A     		ldr	r3, [r3, #40]	@ D.6234, pxTCB_21->xEventListItem.pvContainer
 1932 00ba 002B     		cmp	r3, #0	@ D.6234,
 1933 00bc 05D0     		beq	.L122	@,
 1934              		.loc 1 1704 0 discriminator 6
 1935 00be BB68     		ldr	r3, [r7, #8]	@ tmp198, pxTCB
 1936 00c0 03F11803 		add	r3, r3, #24	@ D.6237, tmp198,
 1937 00c4 1846     		mov	r0, r3	@, D.6237
 1938 00c6 FFF7FEFF 		bl	uxListRemove	@
 1939              	.L122:
 1940              		.loc 1 1704 0 discriminator 7
 1941 00ca BB68     		ldr	r3, [r7, #8]	@ tmp199, pxTCB
 1942 00cc DA6A     		ldr	r2, [r3, #44]	@ D.6238, pxTCB_21->uxPriority
 1943 00ce 184B     		ldr	r3, .L126+24	@ tmp200,
 1944 00d0 1B68     		ldr	r3, [r3, #0]	@ uxTopReadyPriority.64, uxTopReadyPriority
 1945 00d2 9A42     		cmp	r2, r3	@ D.6238, uxTopReadyPriority.64
 1946 00d4 03D9     		bls	.L123	@,
 1947              		.loc 1 1704 0 discriminator 8
 1948 00d6 BB68     		ldr	r3, [r7, #8]	@ tmp201, pxTCB
 1949 00d8 DA6A     		ldr	r2, [r3, #44]	@ uxTopReadyPriority.65, pxTCB_21->uxPriority
 1950 00da 154B     		ldr	r3, .L126+24	@ tmp202,
 1951 00dc 1A60     		str	r2, [r3, #0]	@ uxTopReadyPriority.65, uxTopReadyPriority
 1952              	.L123:
 1953              		.loc 1 1704 0 discriminator 9
 1954 00de BB68     		ldr	r3, [r7, #8]	@ tmp203, pxTCB
 1955 00e0 DA6A     		ldr	r2, [r3, #44]	@ D.6243, pxTCB_21->uxPriority
 1956 00e2 1346     		mov	r3, r2	@ tmp204, D.6243
 1957 00e4 4FEA8303 		lsl	r3, r3, #2	@ tmp204, tmp204,
 1958 00e8 9B18     		adds	r3, r3, r2	@ tmp204, tmp204, D.6243
 1959 00ea 4FEA8303 		lsl	r3, r3, #2	@ tmp205, tmp204,
 1960 00ee 114A     		ldr	r2, .L126+28	@ tmp206,
 1961 00f0 9A18     		adds	r2, r3, r2	@ D.6244, tmp204, tmp206
 1962 00f2 BB68     		ldr	r3, [r7, #8]	@ tmp207, pxTCB
 1963 00f4 03F10403 		add	r3, r3, #4	@ D.6245, tmp207,
 1964 00f8 1046     		mov	r0, r2	@, D.6244
 1965 00fa 1946     		mov	r1, r3	@, D.6245
 1966 00fc FFF7FEFF 		bl	vListInsertEnd	@
 1967 0100 B8E7     		b	.L124	@
 1968              	.L116:
 1969              	.LBE5:
1705:Source/tasks.c **** 	}
1706:Source/tasks.c **** 	else
1707:Source/tasks.c **** 	{
1708:Source/tasks.c **** 		++uxMissedTicks;
 1970              		.loc 1 1708 0 is_stmt 1
ARM GAS  C:\Users\Grzybek\AppData\Local\Temp\cccVQrHj.s 			page 66


 1971 0102 0D4B     		ldr	r3, .L126+32	@ tmp208,
 1972 0104 1B68     		ldr	r3, [r3, #0]	@ uxMissedTicks.66, uxMissedTicks
 1973 0106 03F10102 		add	r2, r3, #1	@ uxMissedTicks.67, uxMissedTicks.66,
 1974 010a 0B4B     		ldr	r3, .L126+32	@ tmp209,
 1975 010c 1A60     		str	r2, [r3, #0]	@ uxMissedTicks.67, uxMissedTicks
 1976              	.L115:
1709:Source/tasks.c **** 
1710:Source/tasks.c **** 		/* The tick hook gets called at regular intervals, even if the
1711:Source/tasks.c **** 		scheduler is locked. */
1712:Source/tasks.c **** 		#if ( configUSE_TICK_HOOK == 1 )
1713:Source/tasks.c **** 		{
1714:Source/tasks.c **** 			vApplicationTickHook();
1715:Source/tasks.c **** 		}
1716:Source/tasks.c **** 		#endif
1717:Source/tasks.c **** 	}
1718:Source/tasks.c **** 
1719:Source/tasks.c **** 	#if ( configUSE_TICK_HOOK == 1 )
1720:Source/tasks.c **** 	{
1721:Source/tasks.c **** 		/* Guard against the tick hook being called when the missed tick
1722:Source/tasks.c **** 		count is being unwound (when the scheduler is being unlocked. */
1723:Source/tasks.c **** 		if( uxMissedTicks == ( unsigned portBASE_TYPE ) 0U )
1724:Source/tasks.c **** 		{
1725:Source/tasks.c **** 			vApplicationTickHook();
1726:Source/tasks.c **** 		}
1727:Source/tasks.c **** 	}
1728:Source/tasks.c **** 	#endif
1729:Source/tasks.c **** }
 1977              		.loc 1 1729 0
 1978 010e 07F11007 		add	r7, r7, #16	@,,
 1979 0112 BD46     		mov	sp, r7
 1980 0114 80BD     		pop	{r7, pc}
 1981              	.L127:
 1982 0116 00BF     		.align	2
 1983              	.L126:
 1984 0118 00000000 		.word	uxSchedulerSuspended
 1985 011c 00000000 		.word	xTickCount
 1986 0120 00000000 		.word	pxDelayedTaskList
 1987 0124 00000000 		.word	pxOverflowDelayedTaskList
 1988 0128 00000000 		.word	xNumOfOverflows
 1989 012c 00000000 		.word	xNextTaskUnblockTime
 1990 0130 00000000 		.word	uxTopReadyPriority
 1991 0134 00000000 		.word	pxReadyTasksLists
 1992 0138 00000000 		.word	uxMissedTicks
 1993              		.cfi_endproc
 1994              	.LFE17:
 1995              		.size	vTaskIncrementTick, .-vTaskIncrementTick
 1996              		.section	.text.vTaskSwitchContext,"ax",%progbits
 1997              		.align	2
 1998              		.global	vTaskSwitchContext
 1999              		.thumb
 2000              		.thumb_func
 2001              		.type	vTaskSwitchContext, %function
 2002              	vTaskSwitchContext:
 2003              	.LFB18:
1730:Source/tasks.c **** /*-----------------------------------------------------------*/
1731:Source/tasks.c **** 
1732:Source/tasks.c **** #if ( configUSE_APPLICATION_TASK_TAG == 1 )
ARM GAS  C:\Users\Grzybek\AppData\Local\Temp\cccVQrHj.s 			page 67


1733:Source/tasks.c **** 
1734:Source/tasks.c **** 	void vTaskSetApplicationTaskTag( xTaskHandle xTask, pdTASK_HOOK_CODE pxHookFunction )
1735:Source/tasks.c **** 	{
1736:Source/tasks.c **** 	tskTCB *xTCB;
1737:Source/tasks.c **** 
1738:Source/tasks.c **** 		/* If xTask is NULL then we are setting our own task hook. */
1739:Source/tasks.c **** 		if( xTask == NULL )
1740:Source/tasks.c **** 		{
1741:Source/tasks.c **** 			xTCB = ( tskTCB * ) pxCurrentTCB;
1742:Source/tasks.c **** 		}
1743:Source/tasks.c **** 		else
1744:Source/tasks.c **** 		{
1745:Source/tasks.c **** 			xTCB = ( tskTCB * ) xTask;
1746:Source/tasks.c **** 		}
1747:Source/tasks.c **** 
1748:Source/tasks.c **** 		/* Save the hook function in the TCB.  A critical section is required as
1749:Source/tasks.c **** 		the value can be accessed from an interrupt. */
1750:Source/tasks.c **** 		taskENTER_CRITICAL();
1751:Source/tasks.c **** 			xTCB->pxTaskTag = pxHookFunction;
1752:Source/tasks.c **** 		taskEXIT_CRITICAL();
1753:Source/tasks.c **** 	}
1754:Source/tasks.c **** 
1755:Source/tasks.c **** #endif
1756:Source/tasks.c **** /*-----------------------------------------------------------*/
1757:Source/tasks.c **** 
1758:Source/tasks.c **** #if ( configUSE_APPLICATION_TASK_TAG == 1 )
1759:Source/tasks.c **** 
1760:Source/tasks.c **** 	pdTASK_HOOK_CODE xTaskGetApplicationTaskTag( xTaskHandle xTask )
1761:Source/tasks.c **** 	{
1762:Source/tasks.c **** 	tskTCB *xTCB;
1763:Source/tasks.c **** 	pdTASK_HOOK_CODE xReturn;
1764:Source/tasks.c **** 
1765:Source/tasks.c **** 		/* If xTask is NULL then we are setting our own task hook. */
1766:Source/tasks.c **** 		if( xTask == NULL )
1767:Source/tasks.c **** 		{
1768:Source/tasks.c **** 			xTCB = ( tskTCB * ) pxCurrentTCB;
1769:Source/tasks.c **** 		}
1770:Source/tasks.c **** 		else
1771:Source/tasks.c **** 		{
1772:Source/tasks.c **** 			xTCB = ( tskTCB * ) xTask;
1773:Source/tasks.c **** 		}
1774:Source/tasks.c **** 
1775:Source/tasks.c **** 		/* Save the hook function in the TCB.  A critical section is required as
1776:Source/tasks.c **** 		the value can be accessed from an interrupt. */
1777:Source/tasks.c **** 		taskENTER_CRITICAL();
1778:Source/tasks.c **** 			xReturn = xTCB->pxTaskTag;
1779:Source/tasks.c **** 		taskEXIT_CRITICAL();
1780:Source/tasks.c **** 
1781:Source/tasks.c **** 		return xReturn;
1782:Source/tasks.c **** 	}
1783:Source/tasks.c **** 
1784:Source/tasks.c **** #endif
1785:Source/tasks.c **** /*-----------------------------------------------------------*/
1786:Source/tasks.c **** 
1787:Source/tasks.c **** #if ( configUSE_APPLICATION_TASK_TAG == 1 )
1788:Source/tasks.c **** 
1789:Source/tasks.c **** 	portBASE_TYPE xTaskCallApplicationTaskHook( xTaskHandle xTask, void *pvParameter )
ARM GAS  C:\Users\Grzybek\AppData\Local\Temp\cccVQrHj.s 			page 68


1790:Source/tasks.c **** 	{
1791:Source/tasks.c **** 	tskTCB *xTCB;
1792:Source/tasks.c **** 	portBASE_TYPE xReturn;
1793:Source/tasks.c **** 
1794:Source/tasks.c **** 		/* If xTask is NULL then we are calling our own task hook. */
1795:Source/tasks.c **** 		if( xTask == NULL )
1796:Source/tasks.c **** 		{
1797:Source/tasks.c **** 			xTCB = ( tskTCB * ) pxCurrentTCB;
1798:Source/tasks.c **** 		}
1799:Source/tasks.c **** 		else
1800:Source/tasks.c **** 		{
1801:Source/tasks.c **** 			xTCB = ( tskTCB * ) xTask;
1802:Source/tasks.c **** 		}
1803:Source/tasks.c **** 
1804:Source/tasks.c **** 		if( xTCB->pxTaskTag != NULL )
1805:Source/tasks.c **** 		{
1806:Source/tasks.c **** 			xReturn = xTCB->pxTaskTag( pvParameter );
1807:Source/tasks.c **** 		}
1808:Source/tasks.c **** 		else
1809:Source/tasks.c **** 		{
1810:Source/tasks.c **** 			xReturn = pdFAIL;
1811:Source/tasks.c **** 		}
1812:Source/tasks.c **** 
1813:Source/tasks.c **** 		return xReturn;
1814:Source/tasks.c **** 	}
1815:Source/tasks.c **** 
1816:Source/tasks.c **** #endif
1817:Source/tasks.c **** /*-----------------------------------------------------------*/
1818:Source/tasks.c **** 
1819:Source/tasks.c **** void vTaskSwitchContext( void )
1820:Source/tasks.c **** {
 2004              		.loc 1 1820 0
 2005              		.cfi_startproc
 2006              		@ args = 0, pretend = 0, frame = 8
 2007              		@ frame_needed = 1, uses_anonymous_args = 0
 2008 0000 80B5     		push	{r7, lr}	@
 2009              	.LCFI51:
 2010              		.cfi_def_cfa_offset 8
 2011              		.cfi_offset 7, -8
 2012              		.cfi_offset 14, -4
 2013 0002 82B0     		sub	sp, sp, #8	@,,
 2014              	.LCFI52:
 2015              		.cfi_def_cfa_offset 16
 2016 0004 00AF     		add	r7, sp, #0	@,,
 2017              	.LCFI53:
 2018              		.cfi_def_cfa_register 7
1821:Source/tasks.c **** 	if( uxSchedulerSuspended != ( unsigned portBASE_TYPE ) pdFALSE )
 2019              		.loc 1 1821 0
 2020 0006 354B     		ldr	r3, .L136	@ tmp161,
 2021 0008 1B68     		ldr	r3, [r3, #0]	@ uxSchedulerSuspended.36, uxSchedulerSuspended
 2022 000a 002B     		cmp	r3, #0	@ uxSchedulerSuspended.36,
 2023 000c 04D0     		beq	.L129	@,
1822:Source/tasks.c **** 	{
1823:Source/tasks.c **** 		/* The scheduler is currently suspended - do not allow a context
1824:Source/tasks.c **** 		switch. */
1825:Source/tasks.c **** 		xMissedYield = pdTRUE;
 2024              		.loc 1 1825 0
ARM GAS  C:\Users\Grzybek\AppData\Local\Temp\cccVQrHj.s 			page 69


 2025 000e 344B     		ldr	r3, .L136+4	@ tmp162,
 2026 0010 4FF00102 		mov	r2, #1	@ tmp163,
 2027 0014 1A60     		str	r2, [r3, #0]	@ tmp163, xMissedYield
 2028 0016 5CE0     		b	.L128	@
 2029              	.L129:
1826:Source/tasks.c **** 	}
1827:Source/tasks.c **** 	else
1828:Source/tasks.c **** 	{
1829:Source/tasks.c **** 		traceTASK_SWITCHED_OUT();
1830:Source/tasks.c **** 
1831:Source/tasks.c **** 		#if ( configGENERATE_RUN_TIME_STATS == 1 )
1832:Source/tasks.c **** 		{
1833:Source/tasks.c **** 			unsigned long ulTempCounter;
1834:Source/tasks.c **** 
1835:Source/tasks.c **** 				#ifdef portALT_GET_RUN_TIME_COUNTER_VALUE
1836:Source/tasks.c **** 					portALT_GET_RUN_TIME_COUNTER_VALUE( ulTempCounter );
1837:Source/tasks.c **** 				#else
1838:Source/tasks.c **** 					ulTempCounter = portGET_RUN_TIME_COUNTER_VALUE();
1839:Source/tasks.c **** 				#endif
1840:Source/tasks.c **** 
1841:Source/tasks.c **** 				/* Add the amount of time the task has been running to the accumulated
1842:Source/tasks.c **** 				time so far.  The time the task started running was stored in
1843:Source/tasks.c **** 				ulTaskSwitchedInTime.  Note that there is no overflow protection here
1844:Source/tasks.c **** 				so count values are only valid until the timer overflows.  Generally
1845:Source/tasks.c **** 				this will be about 1 hour assuming a 1uS timer increment. */
1846:Source/tasks.c **** 				pxCurrentTCB->ulRunTimeCounter += ( ulTempCounter - ulTaskSwitchedInTime );
1847:Source/tasks.c **** 				ulTaskSwitchedInTime = ulTempCounter;
1848:Source/tasks.c **** 		}
1849:Source/tasks.c **** 		#endif
1850:Source/tasks.c **** 
1851:Source/tasks.c **** 		taskFIRST_CHECK_FOR_STACK_OVERFLOW();
 2030              		.loc 1 1851 0
 2031 0018 324B     		ldr	r3, .L136+8	@ tmp164,
 2032 001a 1B68     		ldr	r3, [r3, #0]	@ pxCurrentTCB.37, pxCurrentTCB
 2033 001c 1A68     		ldr	r2, [r3, #0]	@ D.6170, pxCurrentTCB.37_2->pxTopOfStack
 2034 001e 314B     		ldr	r3, .L136+8	@ tmp165,
 2035 0020 1B68     		ldr	r3, [r3, #0]	@ pxCurrentTCB.38, pxCurrentTCB
 2036 0022 1B6B     		ldr	r3, [r3, #48]	@ D.6172, pxCurrentTCB.38_4->pxStack
 2037 0024 9A42     		cmp	r2, r3	@ D.6170, D.6172
 2038 0026 09D8     		bhi	.L131	@,
 2039              		.loc 1 1851 0 is_stmt 0 discriminator 1
 2040 0028 2E4B     		ldr	r3, .L136+8	@ tmp166,
 2041 002a 1A68     		ldr	r2, [r3, #0]	@ pxCurrentTCB.39, pxCurrentTCB
 2042 002c 2D4B     		ldr	r3, .L136+8	@ tmp167,
 2043 002e 1B68     		ldr	r3, [r3, #0]	@ pxCurrentTCB.40, pxCurrentTCB
 2044 0030 03F13403 		add	r3, r3, #52	@ D.6177, pxCurrentTCB.40,
 2045 0034 1046     		mov	r0, r2	@, pxCurrentTCB.39
 2046 0036 1946     		mov	r1, r3	@, D.6177
 2047 0038 FFF7FEFF 		bl	vApplicationStackOverflowHook	@
 2048              	.L131:
 2049              	.LBB6:
1852:Source/tasks.c **** 		taskSECOND_CHECK_FOR_STACK_OVERFLOW();
 2050              		.loc 1 1852 0 is_stmt 1
 2051 003c 294B     		ldr	r3, .L136+8	@ tmp168,
 2052 003e 1B68     		ldr	r3, [r3, #0]	@ pxCurrentTCB.41, pxCurrentTCB
 2053 0040 1B6B     		ldr	r3, [r3, #48]	@ D.6179, pxCurrentTCB.41_9->pxStack
 2054 0042 1846     		mov	r0, r3	@, D.6179
ARM GAS  C:\Users\Grzybek\AppData\Local\Temp\cccVQrHj.s 			page 70


 2055 0044 2849     		ldr	r1, .L136+12	@,
 2056 0046 4FF01402 		mov	r2, #20	@,
 2057 004a FFF7FEFF 		bl	memcmp	@
 2058 004e 0346     		mov	r3, r0	@ D.6180,
 2059 0050 002B     		cmp	r3, #0	@ D.6180,
 2060 0052 10D0     		beq	.L133	@,
 2061              		.loc 1 1852 0 is_stmt 0 discriminator 1
 2062 0054 234B     		ldr	r3, .L136+8	@ tmp169,
 2063 0056 1A68     		ldr	r2, [r3, #0]	@ pxCurrentTCB.42, pxCurrentTCB
 2064 0058 224B     		ldr	r3, .L136+8	@ tmp170,
 2065 005a 1B68     		ldr	r3, [r3, #0]	@ pxCurrentTCB.43, pxCurrentTCB
 2066 005c 03F13403 		add	r3, r3, #52	@ D.6185, pxCurrentTCB.43,
 2067 0060 1046     		mov	r0, r2	@, pxCurrentTCB.42
 2068 0062 1946     		mov	r1, r3	@, D.6185
 2069 0064 FFF7FEFF 		bl	vApplicationStackOverflowHook	@
 2070              	.LBE6:
1853:Source/tasks.c **** 
1854:Source/tasks.c **** 		taskSELECT_HIGHEST_PRIORITY_TASK();
 2071              		.loc 1 1854 0 is_stmt 1 discriminator 1
 2072 0068 05E0     		b	.L133	@
 2073              	.L134:
 2074              		.loc 1 1854 0 is_stmt 0 discriminator 2
 2075 006a 204B     		ldr	r3, .L136+16	@ tmp171,
 2076 006c 1B68     		ldr	r3, [r3, #0]	@ uxTopReadyPriority.44, uxTopReadyPriority
 2077 006e 03F1FF32 		add	r2, r3, #-1	@ uxTopReadyPriority.45, uxTopReadyPriority.44,
 2078 0072 1E4B     		ldr	r3, .L136+16	@ tmp172,
 2079 0074 1A60     		str	r2, [r3, #0]	@ uxTopReadyPriority.45, uxTopReadyPriority
 2080              	.L133:
 2081              		.loc 1 1854 0 discriminator 1
 2082 0076 1D4B     		ldr	r3, .L136+16	@ tmp173,
 2083 0078 1A68     		ldr	r2, [r3, #0]	@ uxTopReadyPriority.46, uxTopReadyPriority
 2084 007a 1D49     		ldr	r1, .L136+20	@ tmp174,
 2085 007c 1346     		mov	r3, r2	@ tmp175, uxTopReadyPriority.46
 2086 007e 4FEA8303 		lsl	r3, r3, #2	@ tmp175, tmp175,
 2087 0082 9B18     		adds	r3, r3, r2	@ tmp175, tmp175, uxTopReadyPriority.46
 2088 0084 4FEA8303 		lsl	r3, r3, #2	@ tmp176, tmp175,
 2089 0088 CB18     		adds	r3, r1, r3	@ tmp177, tmp174, tmp175
 2090 008a 1B68     		ldr	r3, [r3, #0]	@ D.6189, pxReadyTasksLists[uxTopReadyPriority.46_15].uxNumberOfItems
 2091 008c 002B     		cmp	r3, #0	@ D.6189,
 2092 008e ECD0     		beq	.L134	@,
 2093              	.LBB7:
 2094              		.loc 1 1854 0 discriminator 3
 2095 0090 164B     		ldr	r3, .L136+16	@ tmp178,
 2096 0092 1A68     		ldr	r2, [r3, #0]	@ uxTopReadyPriority.47, uxTopReadyPriority
 2097 0094 1346     		mov	r3, r2	@ tmp179, uxTopReadyPriority.47
 2098 0096 4FEA8303 		lsl	r3, r3, #2	@ tmp179, tmp179,
 2099 009a 9B18     		adds	r3, r3, r2	@ tmp179, tmp179, uxTopReadyPriority.47
 2100 009c 4FEA8303 		lsl	r3, r3, #2	@ tmp180, tmp179,
 2101 00a0 134A     		ldr	r2, .L136+20	@ tmp182,
 2102 00a2 9B18     		adds	r3, r3, r2	@ tmp181, tmp179, tmp182
 2103 00a4 7B60     		str	r3, [r7, #4]	@ tmp181, pxConstList
 2104 00a6 7B68     		ldr	r3, [r7, #4]	@ tmp183, pxConstList
 2105 00a8 5B68     		ldr	r3, [r3, #4]	@ D.6191, pxConstList_20->pxIndex
 2106 00aa 5A68     		ldr	r2, [r3, #4]	@ D.6192, D.6191_21->pxNext
 2107 00ac 7B68     		ldr	r3, [r7, #4]	@ tmp184, pxConstList
 2108 00ae 5A60     		str	r2, [r3, #4]	@ D.6192, pxConstList_20->pxIndex
 2109 00b0 7B68     		ldr	r3, [r7, #4]	@ tmp185, pxConstList
ARM GAS  C:\Users\Grzybek\AppData\Local\Temp\cccVQrHj.s 			page 71


 2110 00b2 5A68     		ldr	r2, [r3, #4]	@ D.6193, pxConstList_20->pxIndex
 2111 00b4 7B68     		ldr	r3, [r7, #4]	@ tmp186, pxConstList
 2112 00b6 03F10803 		add	r3, r3, #8	@ D.6194, tmp186,
 2113 00ba 9A42     		cmp	r2, r3	@ D.6193, D.6194
 2114 00bc 04D1     		bne	.L135	@,
 2115              		.loc 1 1854 0 discriminator 4
 2116 00be 7B68     		ldr	r3, [r7, #4]	@ tmp187, pxConstList
 2117 00c0 5B68     		ldr	r3, [r3, #4]	@ D.6197, pxConstList_20->pxIndex
 2118 00c2 5A68     		ldr	r2, [r3, #4]	@ D.6198, D.6197_25->pxNext
 2119 00c4 7B68     		ldr	r3, [r7, #4]	@ tmp188, pxConstList
 2120 00c6 5A60     		str	r2, [r3, #4]	@ D.6198, pxConstList_20->pxIndex
 2121              	.L135:
 2122              		.loc 1 1854 0 discriminator 5
 2123 00c8 7B68     		ldr	r3, [r7, #4]	@ tmp189, pxConstList
 2124 00ca 5B68     		ldr	r3, [r3, #4]	@ D.6199, pxConstList_20->pxIndex
 2125 00cc DA68     		ldr	r2, [r3, #12]	@ pxCurrentTCB.48, D.6199_27->pvOwner
 2126 00ce 054B     		ldr	r3, .L136+8	@ tmp190,
 2127 00d0 1A60     		str	r2, [r3, #0]	@ pxCurrentTCB.48, pxCurrentTCB
 2128              	.L128:
 2129              	.LBE7:
1855:Source/tasks.c **** 
1856:Source/tasks.c **** 		traceTASK_SWITCHED_IN();
1857:Source/tasks.c **** 	}
1858:Source/tasks.c **** }
 2130              		.loc 1 1858 0 is_stmt 1
 2131 00d2 07F10807 		add	r7, r7, #8	@,,
 2132 00d6 BD46     		mov	sp, r7
 2133 00d8 80BD     		pop	{r7, pc}
 2134              	.L137:
 2135 00da 00BF     		.align	2
 2136              	.L136:
 2137 00dc 00000000 		.word	uxSchedulerSuspended
 2138 00e0 00000000 		.word	xMissedYield
 2139 00e4 00000000 		.word	pxCurrentTCB
 2140 00e8 00000000 		.word	ucExpectedStackBytes.5891
 2141 00ec 00000000 		.word	uxTopReadyPriority
 2142 00f0 00000000 		.word	pxReadyTasksLists
 2143              		.cfi_endproc
 2144              	.LFE18:
 2145              		.size	vTaskSwitchContext, .-vTaskSwitchContext
 2146              		.section	.text.vTaskPlaceOnEventList,"ax",%progbits
 2147              		.align	2
 2148              		.global	vTaskPlaceOnEventList
 2149              		.thumb
 2150              		.thumb_func
 2151              		.type	vTaskPlaceOnEventList, %function
 2152              	vTaskPlaceOnEventList:
 2153              	.LFB19:
1859:Source/tasks.c **** /*-----------------------------------------------------------*/
1860:Source/tasks.c **** 
1861:Source/tasks.c **** void vTaskPlaceOnEventList( const xList * const pxEventList, portTickType xTicksToWait )
1862:Source/tasks.c **** {
 2154              		.loc 1 1862 0
 2155              		.cfi_startproc
 2156              		@ args = 0, pretend = 0, frame = 16
 2157              		@ frame_needed = 1, uses_anonymous_args = 0
 2158 0000 80B5     		push	{r7, lr}	@
ARM GAS  C:\Users\Grzybek\AppData\Local\Temp\cccVQrHj.s 			page 72


 2159              	.LCFI54:
 2160              		.cfi_def_cfa_offset 8
 2161              		.cfi_offset 7, -8
 2162              		.cfi_offset 14, -4
 2163 0002 84B0     		sub	sp, sp, #16	@,,
 2164              	.LCFI55:
 2165              		.cfi_def_cfa_offset 24
 2166 0004 00AF     		add	r7, sp, #0	@,,
 2167              	.LCFI56:
 2168              		.cfi_def_cfa_register 7
 2169 0006 7860     		str	r0, [r7, #4]	@ pxEventList, pxEventList
 2170 0008 3960     		str	r1, [r7, #0]	@ xTicksToWait, xTicksToWait
1863:Source/tasks.c **** portTickType xTimeToWake;
1864:Source/tasks.c **** 
1865:Source/tasks.c **** 	configASSERT( pxEventList );
1866:Source/tasks.c **** 
1867:Source/tasks.c **** 	/* THIS FUNCTION MUST BE CALLED WITH INTERRUPTS DISABLED OR THE
1868:Source/tasks.c **** 	SCHEDULER SUSPENDED. */
1869:Source/tasks.c **** 
1870:Source/tasks.c **** 	/* Place the event list item of the TCB in the appropriate event list.
1871:Source/tasks.c **** 	This is placed in the list in priority order so the highest priority task
1872:Source/tasks.c **** 	is the first to be woken by the event. */
1873:Source/tasks.c **** 	vListInsert( ( xList * ) pxEventList, ( xListItem * ) &( pxCurrentTCB->xEventListItem ) );
 2171              		.loc 1 1873 0
 2172 000a 144B     		ldr	r3, .L141	@ tmp142,
 2173 000c 1B68     		ldr	r3, [r3, #0]	@ pxCurrentTCB.32, pxCurrentTCB
 2174 000e 03F11803 		add	r3, r3, #24	@ D.6153, pxCurrentTCB.32,
 2175 0012 7868     		ldr	r0, [r7, #4]	@, pxEventList
 2176 0014 1946     		mov	r1, r3	@, D.6153
 2177 0016 FFF7FEFF 		bl	vListInsert	@
1874:Source/tasks.c **** 
1875:Source/tasks.c **** 	/* We must remove ourselves from the ready list before adding ourselves
1876:Source/tasks.c **** 	to the blocked list as the same list item is used for both lists.  We have
1877:Source/tasks.c **** 	exclusive access to the ready lists as the scheduler is locked. */
1878:Source/tasks.c **** 	if( uxListRemove( ( xListItem * ) &( pxCurrentTCB->xGenericListItem ) ) == 0 )
 2178              		.loc 1 1878 0
 2179 001a 104B     		ldr	r3, .L141	@ tmp143,
 2180 001c 1B68     		ldr	r3, [r3, #0]	@ pxCurrentTCB.33, pxCurrentTCB
 2181 001e 03F10403 		add	r3, r3, #4	@ D.6155, pxCurrentTCB.33,
 2182 0022 1846     		mov	r0, r3	@, D.6155
 2183 0024 FFF7FEFF 		bl	uxListRemove	@
1879:Source/tasks.c **** 	{
1880:Source/tasks.c **** 		/* The current task must be in a ready list, so there is no need to
1881:Source/tasks.c **** 		check, and the port reset macro can be called directly. */
1882:Source/tasks.c **** 		portRESET_READY_PRIORITY( pxCurrentTCB->uxPriority, uxTopReadyPriority );
1883:Source/tasks.c **** 	}
1884:Source/tasks.c **** 
1885:Source/tasks.c **** 	#if ( INCLUDE_vTaskSuspend == 1 )
1886:Source/tasks.c **** 	{
1887:Source/tasks.c **** 		if( xTicksToWait == portMAX_DELAY )
 2184              		.loc 1 1887 0
 2185 0028 3B68     		ldr	r3, [r7, #0]	@ tmp144, xTicksToWait
 2186 002a B3F1FF3F 		cmp	r3, #-1	@ tmp144,
 2187 002e 08D1     		bne	.L139	@,
1888:Source/tasks.c **** 		{
1889:Source/tasks.c **** 			/* Add ourselves to the suspended task list instead of a delayed task
1890:Source/tasks.c **** 			list to ensure we are not woken by a timing event.  We will block
ARM GAS  C:\Users\Grzybek\AppData\Local\Temp\cccVQrHj.s 			page 73


1891:Source/tasks.c **** 			indefinitely. */
1892:Source/tasks.c **** 			vListInsertEnd( ( xList * ) &xSuspendedTaskList, ( xListItem * ) &( pxCurrentTCB->xGenericListIt
 2188              		.loc 1 1892 0
 2189 0030 0A4B     		ldr	r3, .L141	@ tmp145,
 2190 0032 1B68     		ldr	r3, [r3, #0]	@ pxCurrentTCB.34, pxCurrentTCB
 2191 0034 03F10403 		add	r3, r3, #4	@ D.6162, pxCurrentTCB.34,
 2192 0038 0948     		ldr	r0, .L141+4	@,
 2193 003a 1946     		mov	r1, r3	@, D.6162
 2194 003c FFF7FEFF 		bl	vListInsertEnd	@
 2195 0040 07E0     		b	.L138	@
 2196              	.L139:
1893:Source/tasks.c **** 		}
1894:Source/tasks.c **** 		else
1895:Source/tasks.c **** 		{
1896:Source/tasks.c **** 			/* Calculate the time at which the task should be woken if the event does
1897:Source/tasks.c **** 			not occur.  This may overflow but this doesn't matter. */
1898:Source/tasks.c **** 			xTimeToWake = xTickCount + xTicksToWait;
 2197              		.loc 1 1898 0
 2198 0042 084B     		ldr	r3, .L141+8	@ tmp146,
 2199 0044 1A68     		ldr	r2, [r3, #0]	@ xTickCount.35, xTickCount
 2200 0046 3B68     		ldr	r3, [r7, #0]	@ tmp148, xTicksToWait
 2201 0048 D318     		adds	r3, r2, r3	@ tmp147, xTickCount.35, tmp148
 2202 004a FB60     		str	r3, [r7, #12]	@ tmp147, xTimeToWake
1899:Source/tasks.c **** 			prvAddCurrentTaskToDelayedList( xTimeToWake );
 2203              		.loc 1 1899 0
 2204 004c F868     		ldr	r0, [r7, #12]	@, xTimeToWake
 2205 004e FFF7FEFF 		bl	prvAddCurrentTaskToDelayedList	@
 2206              	.L138:
1900:Source/tasks.c **** 		}
1901:Source/tasks.c **** 	}
1902:Source/tasks.c **** 	#else
1903:Source/tasks.c **** 	{
1904:Source/tasks.c **** 			/* Calculate the time at which the task should be woken if the event does
1905:Source/tasks.c **** 			not occur.  This may overflow but this doesn't matter. */
1906:Source/tasks.c **** 			xTimeToWake = xTickCount + xTicksToWait;
1907:Source/tasks.c **** 			prvAddCurrentTaskToDelayedList( xTimeToWake );
1908:Source/tasks.c **** 	}
1909:Source/tasks.c **** 	#endif
1910:Source/tasks.c **** }
 2207              		.loc 1 1910 0
 2208 0052 07F11007 		add	r7, r7, #16	@,,
 2209 0056 BD46     		mov	sp, r7
 2210 0058 80BD     		pop	{r7, pc}
 2211              	.L142:
 2212 005a 00BF     		.align	2
 2213              	.L141:
 2214 005c 00000000 		.word	pxCurrentTCB
 2215 0060 00000000 		.word	xSuspendedTaskList
 2216 0064 00000000 		.word	xTickCount
 2217              		.cfi_endproc
 2218              	.LFE19:
 2219              		.size	vTaskPlaceOnEventList, .-vTaskPlaceOnEventList
 2220              		.section	.text.xTaskRemoveFromEventList,"ax",%progbits
 2221              		.align	2
 2222              		.global	xTaskRemoveFromEventList
 2223              		.thumb
 2224              		.thumb_func
ARM GAS  C:\Users\Grzybek\AppData\Local\Temp\cccVQrHj.s 			page 74


 2225              		.type	xTaskRemoveFromEventList, %function
 2226              	xTaskRemoveFromEventList:
 2227              	.LFB20:
1911:Source/tasks.c **** /*-----------------------------------------------------------*/
1912:Source/tasks.c **** 
1913:Source/tasks.c **** #if configUSE_TIMERS == 1
1914:Source/tasks.c **** 
1915:Source/tasks.c **** 	void vTaskPlaceOnEventListRestricted( const xList * const pxEventList, portTickType xTicksToWait )
1916:Source/tasks.c **** 	{
1917:Source/tasks.c **** 	portTickType xTimeToWake;
1918:Source/tasks.c **** 
1919:Source/tasks.c **** 		configASSERT( pxEventList );
1920:Source/tasks.c **** 
1921:Source/tasks.c **** 		/* This function should not be called by application code hence the
1922:Source/tasks.c **** 		'Restricted' in its name.  It is not part of the public API.  It is
1923:Source/tasks.c **** 		designed for use by kernel code, and has special calling requirements -
1924:Source/tasks.c **** 		it should be called from a critical section. */
1925:Source/tasks.c **** 
1926:Source/tasks.c **** 
1927:Source/tasks.c **** 		/* Place the event list item of the TCB in the appropriate event list.
1928:Source/tasks.c **** 		In this case it is assume that this is the only task that is going to
1929:Source/tasks.c **** 		be waiting on this event list, so the faster vListInsertEnd() function
1930:Source/tasks.c **** 		can be used in place of vListInsert. */
1931:Source/tasks.c **** 		vListInsertEnd( ( xList * ) pxEventList, ( xListItem * ) &( pxCurrentTCB->xEventListItem ) );
1932:Source/tasks.c **** 
1933:Source/tasks.c **** 		/* We must remove this task from the ready list before adding it to the
1934:Source/tasks.c **** 		blocked list as the same list item is used for both lists.  This
1935:Source/tasks.c **** 		function is called form a critical section. */
1936:Source/tasks.c **** 		if( uxListRemove( ( xListItem * ) &( pxCurrentTCB->xGenericListItem ) ) == 0 )
1937:Source/tasks.c **** 		{
1938:Source/tasks.c **** 			/* The current task must be in a ready list, so there is no need to
1939:Source/tasks.c **** 			check, and the port reset macro can be called directly. */
1940:Source/tasks.c **** 			portRESET_READY_PRIORITY( pxCurrentTCB->uxPriority, uxTopReadyPriority );
1941:Source/tasks.c **** 		}
1942:Source/tasks.c **** 
1943:Source/tasks.c **** 		/* Calculate the time at which the task should be woken if the event does
1944:Source/tasks.c **** 		not occur.  This may overflow but this doesn't matter. */
1945:Source/tasks.c **** 		xTimeToWake = xTickCount + xTicksToWait;
1946:Source/tasks.c **** 		
1947:Source/tasks.c **** 		traceTASK_DELAY_UNTIL();
1948:Source/tasks.c **** 		prvAddCurrentTaskToDelayedList( xTimeToWake );
1949:Source/tasks.c **** 	}
1950:Source/tasks.c **** 
1951:Source/tasks.c **** #endif /* configUSE_TIMERS */
1952:Source/tasks.c **** /*-----------------------------------------------------------*/
1953:Source/tasks.c **** 
1954:Source/tasks.c **** signed portBASE_TYPE xTaskRemoveFromEventList( const xList * const pxEventList )
1955:Source/tasks.c **** {
 2228              		.loc 1 1955 0
 2229              		.cfi_startproc
 2230              		@ args = 0, pretend = 0, frame = 16
 2231              		@ frame_needed = 1, uses_anonymous_args = 0
 2232 0000 80B5     		push	{r7, lr}	@
 2233              	.LCFI57:
 2234              		.cfi_def_cfa_offset 8
 2235              		.cfi_offset 7, -8
 2236              		.cfi_offset 14, -4
ARM GAS  C:\Users\Grzybek\AppData\Local\Temp\cccVQrHj.s 			page 75


 2237 0002 84B0     		sub	sp, sp, #16	@,,
 2238              	.LCFI58:
 2239              		.cfi_def_cfa_offset 24
 2240 0004 00AF     		add	r7, sp, #0	@,,
 2241              	.LCFI59:
 2242              		.cfi_def_cfa_register 7
 2243 0006 7860     		str	r0, [r7, #4]	@ pxEventList, pxEventList
1956:Source/tasks.c **** tskTCB *pxUnblockedTCB;
1957:Source/tasks.c **** portBASE_TYPE xReturn;
1958:Source/tasks.c **** 
1959:Source/tasks.c **** 	/* THIS FUNCTION MUST BE CALLED WITH INTERRUPTS DISABLED OR THE
1960:Source/tasks.c **** 	SCHEDULER SUSPENDED.  It can also be called from within an ISR. */
1961:Source/tasks.c **** 
1962:Source/tasks.c **** 	/* The event list is sorted in priority order, so we can remove the
1963:Source/tasks.c **** 	first in the list, remove the TCB from the delayed list, and add
1964:Source/tasks.c **** 	it to the ready list.
1965:Source/tasks.c **** 
1966:Source/tasks.c **** 	If an event is for a queue that is locked then this function will never
1967:Source/tasks.c **** 	get called - the lock count on the queue will get modified instead.  This
1968:Source/tasks.c **** 	means we can always expect exclusive access to the event list here.
1969:Source/tasks.c **** 
1970:Source/tasks.c **** 	This function assumes that a check has already been made to ensure that
1971:Source/tasks.c **** 	pxEventList is not empty. */
1972:Source/tasks.c **** 	pxUnblockedTCB = ( tskTCB * ) listGET_OWNER_OF_HEAD_ENTRY( pxEventList );
 2244              		.loc 1 1972 0
 2245 0008 7B68     		ldr	r3, [r7, #4]	@ tmp150, pxEventList
 2246 000a DB68     		ldr	r3, [r3, #12]	@ D.6128, pxEventList_2(D)->xListEnd.pxNext
 2247 000c DB68     		ldr	r3, [r3, #12]	@ tmp151, D.6128_3->pvOwner
 2248 000e BB60     		str	r3, [r7, #8]	@ tmp151, pxUnblockedTCB
1973:Source/tasks.c **** 	configASSERT( pxUnblockedTCB );
1974:Source/tasks.c **** 	uxListRemove( &( pxUnblockedTCB->xEventListItem ) );
 2249              		.loc 1 1974 0
 2250 0010 BB68     		ldr	r3, [r7, #8]	@ tmp152, pxUnblockedTCB
 2251 0012 03F11803 		add	r3, r3, #24	@ D.6129, tmp152,
 2252 0016 1846     		mov	r0, r3	@, D.6129
 2253 0018 FFF7FEFF 		bl	uxListRemove	@
1975:Source/tasks.c **** 
1976:Source/tasks.c **** 	if( uxSchedulerSuspended == ( unsigned portBASE_TYPE ) pdFALSE )
 2254              		.loc 1 1976 0
 2255 001c 204B     		ldr	r3, .L150	@ tmp153,
 2256 001e 1B68     		ldr	r3, [r3, #0]	@ uxSchedulerSuspended.28, uxSchedulerSuspended
 2257 0020 002B     		cmp	r3, #0	@ uxSchedulerSuspended.28,
 2258 0022 21D1     		bne	.L144	@,
1977:Source/tasks.c **** 	{
1978:Source/tasks.c **** 		uxListRemove( &( pxUnblockedTCB->xGenericListItem ) );
 2259              		.loc 1 1978 0
 2260 0024 BB68     		ldr	r3, [r7, #8]	@ tmp154, pxUnblockedTCB
 2261 0026 03F10403 		add	r3, r3, #4	@ D.6133, tmp154,
 2262 002a 1846     		mov	r0, r3	@, D.6133
 2263 002c FFF7FEFF 		bl	uxListRemove	@
1979:Source/tasks.c **** 		prvAddTaskToReadyQueue( pxUnblockedTCB );
 2264              		.loc 1 1979 0
 2265 0030 BB68     		ldr	r3, [r7, #8]	@ tmp155, pxUnblockedTCB
 2266 0032 DA6A     		ldr	r2, [r3, #44]	@ D.6134, pxUnblockedTCB_4->uxPriority
 2267 0034 1B4B     		ldr	r3, .L150+4	@ tmp156,
 2268 0036 1B68     		ldr	r3, [r3, #0]	@ uxTopReadyPriority.29, uxTopReadyPriority
 2269 0038 9A42     		cmp	r2, r3	@ D.6134, uxTopReadyPriority.29
ARM GAS  C:\Users\Grzybek\AppData\Local\Temp\cccVQrHj.s 			page 76


 2270 003a 03D9     		bls	.L145	@,
 2271              		.loc 1 1979 0 is_stmt 0 discriminator 1
 2272 003c BB68     		ldr	r3, [r7, #8]	@ tmp157, pxUnblockedTCB
 2273 003e DA6A     		ldr	r2, [r3, #44]	@ uxTopReadyPriority.30, pxUnblockedTCB_4->uxPriority
 2274 0040 184B     		ldr	r3, .L150+4	@ tmp158,
 2275 0042 1A60     		str	r2, [r3, #0]	@ uxTopReadyPriority.30, uxTopReadyPriority
 2276              	.L145:
 2277              		.loc 1 1979 0 discriminator 2
 2278 0044 BB68     		ldr	r3, [r7, #8]	@ tmp159, pxUnblockedTCB
 2279 0046 DA6A     		ldr	r2, [r3, #44]	@ D.6139, pxUnblockedTCB_4->uxPriority
 2280 0048 1346     		mov	r3, r2	@ tmp160, D.6139
 2281 004a 4FEA8303 		lsl	r3, r3, #2	@ tmp160, tmp160,
 2282 004e 9B18     		adds	r3, r3, r2	@ tmp160, tmp160, D.6139
 2283 0050 4FEA8303 		lsl	r3, r3, #2	@ tmp161, tmp160,
 2284 0054 144A     		ldr	r2, .L150+8	@ tmp162,
 2285 0056 9A18     		adds	r2, r3, r2	@ D.6140, tmp160, tmp162
 2286 0058 BB68     		ldr	r3, [r7, #8]	@ tmp163, pxUnblockedTCB
 2287 005a 03F10403 		add	r3, r3, #4	@ D.6141, tmp163,
 2288 005e 1046     		mov	r0, r2	@, D.6140
 2289 0060 1946     		mov	r1, r3	@, D.6141
 2290 0062 FFF7FEFF 		bl	vListInsertEnd	@
 2291 0066 06E0     		b	.L146	@
 2292              	.L144:
1980:Source/tasks.c **** 	}
1981:Source/tasks.c **** 	else
1982:Source/tasks.c **** 	{
1983:Source/tasks.c **** 		/* We cannot access the delayed or ready lists, so will hold this
1984:Source/tasks.c **** 		task pending until the scheduler is resumed. */
1985:Source/tasks.c **** 		vListInsertEnd( ( xList * ) &( xPendingReadyList ), &( pxUnblockedTCB->xEventListItem ) );
 2293              		.loc 1 1985 0 is_stmt 1
 2294 0068 BB68     		ldr	r3, [r7, #8]	@ tmp164, pxUnblockedTCB
 2295 006a 03F11803 		add	r3, r3, #24	@ D.6143, tmp164,
 2296 006e 0F48     		ldr	r0, .L150+12	@,
 2297 0070 1946     		mov	r1, r3	@, D.6143
 2298 0072 FFF7FEFF 		bl	vListInsertEnd	@
 2299              	.L146:
1986:Source/tasks.c **** 	}
1987:Source/tasks.c **** 
1988:Source/tasks.c **** 	if( pxUnblockedTCB->uxPriority >= pxCurrentTCB->uxPriority )
 2300              		.loc 1 1988 0
 2301 0076 BB68     		ldr	r3, [r7, #8]	@ tmp165, pxUnblockedTCB
 2302 0078 DA6A     		ldr	r2, [r3, #44]	@ D.6144, pxUnblockedTCB_4->uxPriority
 2303 007a 0D4B     		ldr	r3, .L150+16	@ tmp166,
 2304 007c 1B68     		ldr	r3, [r3, #0]	@ pxCurrentTCB.31, pxCurrentTCB
 2305 007e DB6A     		ldr	r3, [r3, #44]	@ D.6146, pxCurrentTCB.31_16->uxPriority
 2306 0080 9A42     		cmp	r2, r3	@ D.6144, D.6146
 2307 0082 03D3     		bcc	.L147	@,
1989:Source/tasks.c **** 	{
1990:Source/tasks.c **** 		/* Return true if the task removed from the event list has
1991:Source/tasks.c **** 		a higher priority than the calling task.  This allows
1992:Source/tasks.c **** 		the calling task to know if it should force a context
1993:Source/tasks.c **** 		switch now. */
1994:Source/tasks.c **** 		xReturn = pdTRUE;
 2308              		.loc 1 1994 0
 2309 0084 4FF00103 		mov	r3, #1	@ tmp167,
 2310 0088 FB60     		str	r3, [r7, #12]	@ tmp167, xReturn
 2311 008a 02E0     		b	.L148	@
ARM GAS  C:\Users\Grzybek\AppData\Local\Temp\cccVQrHj.s 			page 77


 2312              	.L147:
1995:Source/tasks.c **** 	}
1996:Source/tasks.c **** 	else
1997:Source/tasks.c **** 	{
1998:Source/tasks.c **** 		xReturn = pdFALSE;
 2313              		.loc 1 1998 0
 2314 008c 4FF00003 		mov	r3, #0	@ tmp168,
 2315 0090 FB60     		str	r3, [r7, #12]	@ tmp168, xReturn
 2316              	.L148:
1999:Source/tasks.c **** 	}
2000:Source/tasks.c **** 
2001:Source/tasks.c **** 	return xReturn;
 2317              		.loc 1 2001 0
 2318 0092 FB68     		ldr	r3, [r7, #12]	@ D.6150, xReturn
2002:Source/tasks.c **** }
 2319              		.loc 1 2002 0
 2320 0094 1846     		mov	r0, r3	@, <retval>
 2321 0096 07F11007 		add	r7, r7, #16	@,,
 2322 009a BD46     		mov	sp, r7
 2323 009c 80BD     		pop	{r7, pc}
 2324              	.L151:
 2325 009e 00BF     		.align	2
 2326              	.L150:
 2327 00a0 00000000 		.word	uxSchedulerSuspended
 2328 00a4 00000000 		.word	uxTopReadyPriority
 2329 00a8 00000000 		.word	pxReadyTasksLists
 2330 00ac 00000000 		.word	xPendingReadyList
 2331 00b0 00000000 		.word	pxCurrentTCB
 2332              		.cfi_endproc
 2333              	.LFE20:
 2334              		.size	xTaskRemoveFromEventList, .-xTaskRemoveFromEventList
 2335              		.section	.text.vTaskSetTimeOutState,"ax",%progbits
 2336              		.align	2
 2337              		.global	vTaskSetTimeOutState
 2338              		.thumb
 2339              		.thumb_func
 2340              		.type	vTaskSetTimeOutState, %function
 2341              	vTaskSetTimeOutState:
 2342              	.LFB21:
2003:Source/tasks.c **** /*-----------------------------------------------------------*/
2004:Source/tasks.c **** 
2005:Source/tasks.c **** void vTaskSetTimeOutState( xTimeOutType * const pxTimeOut )
2006:Source/tasks.c **** {
 2343              		.loc 1 2006 0
 2344              		.cfi_startproc
 2345              		@ args = 0, pretend = 0, frame = 8
 2346              		@ frame_needed = 1, uses_anonymous_args = 0
 2347              		@ link register save eliminated.
 2348 0000 80B4     		push	{r7}	@
 2349              	.LCFI60:
 2350              		.cfi_def_cfa_offset 4
 2351              		.cfi_offset 7, -4
 2352 0002 83B0     		sub	sp, sp, #12	@,,
 2353              	.LCFI61:
 2354              		.cfi_def_cfa_offset 16
 2355 0004 00AF     		add	r7, sp, #0	@,,
 2356              	.LCFI62:
ARM GAS  C:\Users\Grzybek\AppData\Local\Temp\cccVQrHj.s 			page 78


 2357              		.cfi_def_cfa_register 7
 2358 0006 7860     		str	r0, [r7, #4]	@ pxTimeOut, pxTimeOut
2007:Source/tasks.c **** 	configASSERT( pxTimeOut );
2008:Source/tasks.c **** 	pxTimeOut->xOverflowCount = xNumOfOverflows;
 2359              		.loc 1 2008 0
 2360 0008 064B     		ldr	r3, .L153	@ tmp136,
 2361 000a 1A68     		ldr	r2, [r3, #0]	@ xNumOfOverflows.26, xNumOfOverflows
 2362 000c 7B68     		ldr	r3, [r7, #4]	@ tmp137, pxTimeOut
 2363 000e 1A60     		str	r2, [r3, #0]	@ xNumOfOverflows.26, pxTimeOut_2(D)->xOverflowCount
2009:Source/tasks.c **** 	pxTimeOut->xTimeOnEntering = xTickCount;
 2364              		.loc 1 2009 0
 2365 0010 054B     		ldr	r3, .L153+4	@ tmp138,
 2366 0012 1A68     		ldr	r2, [r3, #0]	@ xTickCount.27, xTickCount
 2367 0014 7B68     		ldr	r3, [r7, #4]	@ tmp139, pxTimeOut
 2368 0016 5A60     		str	r2, [r3, #4]	@ xTickCount.27, pxTimeOut_2(D)->xTimeOnEntering
2010:Source/tasks.c **** }
 2369              		.loc 1 2010 0
 2370 0018 07F10C07 		add	r7, r7, #12	@,,
 2371 001c BD46     		mov	sp, r7
 2372 001e 80BC     		pop	{r7}
 2373 0020 7047     		bx	lr
 2374              	.L154:
 2375 0022 00BF     		.align	2
 2376              	.L153:
 2377 0024 00000000 		.word	xNumOfOverflows
 2378 0028 00000000 		.word	xTickCount
 2379              		.cfi_endproc
 2380              	.LFE21:
 2381              		.size	vTaskSetTimeOutState, .-vTaskSetTimeOutState
 2382              		.section	.text.xTaskCheckForTimeOut,"ax",%progbits
 2383              		.align	2
 2384              		.global	xTaskCheckForTimeOut
 2385              		.thumb
 2386              		.thumb_func
 2387              		.type	xTaskCheckForTimeOut, %function
 2388              	xTaskCheckForTimeOut:
 2389              	.LFB22:
2011:Source/tasks.c **** /*-----------------------------------------------------------*/
2012:Source/tasks.c **** 
2013:Source/tasks.c **** portBASE_TYPE xTaskCheckForTimeOut( xTimeOutType * const pxTimeOut, portTickType * const pxTicksToW
2014:Source/tasks.c **** {
 2390              		.loc 1 2014 0
 2391              		.cfi_startproc
 2392              		@ args = 0, pretend = 0, frame = 16
 2393              		@ frame_needed = 1, uses_anonymous_args = 0
 2394 0000 80B5     		push	{r7, lr}	@
 2395              	.LCFI63:
 2396              		.cfi_def_cfa_offset 8
 2397              		.cfi_offset 7, -8
 2398              		.cfi_offset 14, -4
 2399 0002 84B0     		sub	sp, sp, #16	@,,
 2400              	.LCFI64:
 2401              		.cfi_def_cfa_offset 24
 2402 0004 00AF     		add	r7, sp, #0	@,,
 2403              	.LCFI65:
 2404              		.cfi_def_cfa_register 7
 2405 0006 7860     		str	r0, [r7, #4]	@ pxTimeOut, pxTimeOut
ARM GAS  C:\Users\Grzybek\AppData\Local\Temp\cccVQrHj.s 			page 79


 2406 0008 3960     		str	r1, [r7, #0]	@ pxTicksToWait, pxTicksToWait
2015:Source/tasks.c **** portBASE_TYPE xReturn;
2016:Source/tasks.c **** 
2017:Source/tasks.c **** 	configASSERT( pxTimeOut );
2018:Source/tasks.c **** 	configASSERT( pxTicksToWait );
2019:Source/tasks.c **** 
2020:Source/tasks.c **** 	taskENTER_CRITICAL();
 2407              		.loc 1 2020 0
 2408 000a FFF7FEFF 		bl	vPortEnterCritical	@
2021:Source/tasks.c **** 	{
2022:Source/tasks.c **** 		#if ( INCLUDE_vTaskSuspend == 1 )
2023:Source/tasks.c **** 			/* If INCLUDE_vTaskSuspend is set to 1 and the block time specified is
2024:Source/tasks.c **** 			the maximum block time then the task should block indefinitely, and
2025:Source/tasks.c **** 			therefore never time out. */
2026:Source/tasks.c **** 			if( *pxTicksToWait == portMAX_DELAY )
 2409              		.loc 1 2026 0
 2410 000e 3B68     		ldr	r3, [r7, #0]	@ tmp150, pxTicksToWait
 2411 0010 1B68     		ldr	r3, [r3, #0]	@ D.6100, *pxTicksToWait_2(D)
 2412 0012 B3F1FF3F 		cmp	r3, #-1	@ D.6100,
 2413 0016 03D1     		bne	.L156	@,
2027:Source/tasks.c **** 			{
2028:Source/tasks.c **** 				xReturn = pdFALSE;
 2414              		.loc 1 2028 0
 2415 0018 4FF00003 		mov	r3, #0	@ tmp151,
 2416 001c FB60     		str	r3, [r7, #12]	@ tmp151, xReturn
 2417 001e 2CE0     		b	.L157	@
 2418              	.L156:
2029:Source/tasks.c **** 			}
2030:Source/tasks.c **** 			else /* We are not blocking indefinitely, perform the checks below. */
2031:Source/tasks.c **** 		#endif
2032:Source/tasks.c **** 
2033:Source/tasks.c **** 		if( ( xNumOfOverflows != pxTimeOut->xOverflowCount ) && ( ( portTickType ) xTickCount >= ( portTi
 2419              		.loc 1 2033 0
 2420 0020 7B68     		ldr	r3, [r7, #4]	@ tmp152, pxTimeOut
 2421 0022 1A68     		ldr	r2, [r3, #0]	@ D.6106, pxTimeOut_5(D)->xOverflowCount
 2422 0024 194B     		ldr	r3, .L161	@ tmp153,
 2423 0026 1B68     		ldr	r3, [r3, #0]	@ xNumOfOverflows.22, xNumOfOverflows
 2424 0028 9A42     		cmp	r2, r3	@ D.6106, xNumOfOverflows.22
 2425 002a 09D0     		beq	.L158	@,
 2426              		.loc 1 2033 0 is_stmt 0 discriminator 1
 2427 002c 7B68     		ldr	r3, [r7, #4]	@ tmp154, pxTimeOut
 2428 002e 5A68     		ldr	r2, [r3, #4]	@ D.6109, pxTimeOut_5(D)->xTimeOnEntering
 2429 0030 174B     		ldr	r3, .L161+4	@ tmp155,
 2430 0032 1B68     		ldr	r3, [r3, #0]	@ xTickCount.23, xTickCount
 2431 0034 9A42     		cmp	r2, r3	@ D.6109, xTickCount.23
 2432 0036 03D8     		bhi	.L158	@,
2034:Source/tasks.c **** 		{
2035:Source/tasks.c **** 			/* The tick count is greater than the time at which vTaskSetTimeout()
2036:Source/tasks.c **** 			was called, but has also overflowed since vTaskSetTimeOut() was called.
2037:Source/tasks.c **** 			It must have wrapped all the way around and gone past us again. This
2038:Source/tasks.c **** 			passed since vTaskSetTimeout() was called. */
2039:Source/tasks.c **** 			xReturn = pdTRUE;
 2433              		.loc 1 2039 0 is_stmt 1
 2434 0038 4FF00103 		mov	r3, #1	@ tmp156,
 2435 003c FB60     		str	r3, [r7, #12]	@ tmp156, xReturn
 2436 003e 1CE0     		b	.L157	@
 2437              	.L158:
ARM GAS  C:\Users\Grzybek\AppData\Local\Temp\cccVQrHj.s 			page 80


2040:Source/tasks.c **** 		}
2041:Source/tasks.c **** 		else if( ( ( portTickType ) ( ( portTickType ) xTickCount - ( portTickType ) pxTimeOut->xTimeOnEn
 2438              		.loc 1 2041 0
 2439 0040 134B     		ldr	r3, .L161+4	@ tmp157,
 2440 0042 1A68     		ldr	r2, [r3, #0]	@ xTickCount.24, xTickCount
 2441 0044 7B68     		ldr	r3, [r7, #4]	@ tmp158, pxTimeOut
 2442 0046 5B68     		ldr	r3, [r3, #4]	@ D.6113, pxTimeOut_5(D)->xTimeOnEntering
 2443 0048 D21A     		subs	r2, r2, r3	@ D.6114, xTickCount.24, D.6113
 2444 004a 3B68     		ldr	r3, [r7, #0]	@ tmp159, pxTicksToWait
 2445 004c 1B68     		ldr	r3, [r3, #0]	@ D.6115, *pxTicksToWait_2(D)
 2446 004e 9A42     		cmp	r2, r3	@ D.6114, D.6115
 2447 0050 10D2     		bcs	.L159	@,
2042:Source/tasks.c **** 		{
2043:Source/tasks.c **** 			/* Not a genuine timeout. Adjust parameters for time remaining. */
2044:Source/tasks.c **** 			*pxTicksToWait -= ( ( portTickType ) xTickCount - ( portTickType ) pxTimeOut->xTimeOnEntering );
 2448              		.loc 1 2044 0
 2449 0052 3B68     		ldr	r3, [r7, #0]	@ tmp160, pxTicksToWait
 2450 0054 1A68     		ldr	r2, [r3, #0]	@ D.6118, *pxTicksToWait_2(D)
 2451 0056 7B68     		ldr	r3, [r7, #4]	@ tmp161, pxTimeOut
 2452 0058 5968     		ldr	r1, [r3, #4]	@ D.6119, pxTimeOut_5(D)->xTimeOnEntering
 2453 005a 0D4B     		ldr	r3, .L161+4	@ tmp162,
 2454 005c 1B68     		ldr	r3, [r3, #0]	@ xTickCount.25, xTickCount
 2455 005e CB1A     		subs	r3, r1, r3	@ D.6121, D.6119, xTickCount.25
 2456 0060 D218     		adds	r2, r2, r3	@ D.6122, D.6118, D.6121
 2457 0062 3B68     		ldr	r3, [r7, #0]	@ tmp163, pxTicksToWait
 2458 0064 1A60     		str	r2, [r3, #0]	@ D.6122, *pxTicksToWait_2(D)
2045:Source/tasks.c **** 			vTaskSetTimeOutState( pxTimeOut );
 2459              		.loc 1 2045 0
 2460 0066 7868     		ldr	r0, [r7, #4]	@, pxTimeOut
 2461 0068 FFF7FEFF 		bl	vTaskSetTimeOutState	@
2046:Source/tasks.c **** 			xReturn = pdFALSE;
 2462              		.loc 1 2046 0
 2463 006c 4FF00003 		mov	r3, #0	@ tmp164,
 2464 0070 FB60     		str	r3, [r7, #12]	@ tmp164, xReturn
 2465 0072 02E0     		b	.L157	@
 2466              	.L159:
2047:Source/tasks.c **** 		}
2048:Source/tasks.c **** 		else
2049:Source/tasks.c **** 		{
2050:Source/tasks.c **** 			xReturn = pdTRUE;
 2467              		.loc 1 2050 0
 2468 0074 4FF00103 		mov	r3, #1	@ tmp165,
 2469 0078 FB60     		str	r3, [r7, #12]	@ tmp165, xReturn
 2470              	.L157:
2051:Source/tasks.c **** 		}
2052:Source/tasks.c **** 	}
2053:Source/tasks.c **** 	taskEXIT_CRITICAL();
 2471              		.loc 1 2053 0
 2472 007a FFF7FEFF 		bl	vPortExitCritical	@
2054:Source/tasks.c **** 
2055:Source/tasks.c **** 	return xReturn;
 2473              		.loc 1 2055 0
 2474 007e FB68     		ldr	r3, [r7, #12]	@ D.6124, xReturn
2056:Source/tasks.c **** }
 2475              		.loc 1 2056 0
 2476 0080 1846     		mov	r0, r3	@, <retval>
 2477 0082 07F11007 		add	r7, r7, #16	@,,
ARM GAS  C:\Users\Grzybek\AppData\Local\Temp\cccVQrHj.s 			page 81


 2478 0086 BD46     		mov	sp, r7
 2479 0088 80BD     		pop	{r7, pc}
 2480              	.L162:
 2481 008a 00BF     		.align	2
 2482              	.L161:
 2483 008c 00000000 		.word	xNumOfOverflows
 2484 0090 00000000 		.word	xTickCount
 2485              		.cfi_endproc
 2486              	.LFE22:
 2487              		.size	xTaskCheckForTimeOut, .-xTaskCheckForTimeOut
 2488              		.section	.text.vTaskMissedYield,"ax",%progbits
 2489              		.align	2
 2490              		.global	vTaskMissedYield
 2491              		.thumb
 2492              		.thumb_func
 2493              		.type	vTaskMissedYield, %function
 2494              	vTaskMissedYield:
 2495              	.LFB23:
2057:Source/tasks.c **** /*-----------------------------------------------------------*/
2058:Source/tasks.c **** 
2059:Source/tasks.c **** void vTaskMissedYield( void )
2060:Source/tasks.c **** {
 2496              		.loc 1 2060 0
 2497              		.cfi_startproc
 2498              		@ args = 0, pretend = 0, frame = 0
 2499              		@ frame_needed = 1, uses_anonymous_args = 0
 2500              		@ link register save eliminated.
 2501 0000 80B4     		push	{r7}	@
 2502              	.LCFI66:
 2503              		.cfi_def_cfa_offset 4
 2504              		.cfi_offset 7, -4
 2505 0002 00AF     		add	r7, sp, #0	@,,
 2506              	.LCFI67:
 2507              		.cfi_def_cfa_register 7
2061:Source/tasks.c **** 	xMissedYield = pdTRUE;
 2508              		.loc 1 2061 0
 2509 0004 034B     		ldr	r3, .L164	@ tmp134,
 2510 0006 4FF00102 		mov	r2, #1	@ tmp135,
 2511 000a 1A60     		str	r2, [r3, #0]	@ tmp135, xMissedYield
2062:Source/tasks.c **** }
 2512              		.loc 1 2062 0
 2513 000c BD46     		mov	sp, r7
 2514 000e 80BC     		pop	{r7}
 2515 0010 7047     		bx	lr
 2516              	.L165:
 2517 0012 00BF     		.align	2
 2518              	.L164:
 2519 0014 00000000 		.word	xMissedYield
 2520              		.cfi_endproc
 2521              	.LFE23:
 2522              		.size	vTaskMissedYield, .-vTaskMissedYield
 2523              		.section	.text.prvIdleTask,"ax",%progbits
 2524              		.align	2
 2525              		.thumb
 2526              		.thumb_func
 2527              		.type	prvIdleTask, %function
 2528              	prvIdleTask:
ARM GAS  C:\Users\Grzybek\AppData\Local\Temp\cccVQrHj.s 			page 82


 2529              	.LFB24:
2063:Source/tasks.c **** /*-----------------------------------------------------------*/
2064:Source/tasks.c **** 
2065:Source/tasks.c **** #if ( configUSE_TRACE_FACILITY == 1 )
2066:Source/tasks.c **** 	unsigned portBASE_TYPE uxTaskGetTaskNumber( xTaskHandle xTask )
2067:Source/tasks.c **** 	{
2068:Source/tasks.c **** 	unsigned portBASE_TYPE uxReturn;
2069:Source/tasks.c **** 	tskTCB *pxTCB;
2070:Source/tasks.c **** 
2071:Source/tasks.c **** 		if( xTask != NULL )
2072:Source/tasks.c **** 		{
2073:Source/tasks.c **** 			pxTCB = ( tskTCB * ) xTask;
2074:Source/tasks.c **** 			uxReturn = pxTCB->uxTaskNumber;
2075:Source/tasks.c **** 		}
2076:Source/tasks.c **** 		else
2077:Source/tasks.c **** 		{
2078:Source/tasks.c **** 			uxReturn = 0U;
2079:Source/tasks.c **** 		}
2080:Source/tasks.c **** 
2081:Source/tasks.c **** 		return uxReturn;
2082:Source/tasks.c **** 	}
2083:Source/tasks.c **** #endif
2084:Source/tasks.c **** /*-----------------------------------------------------------*/
2085:Source/tasks.c **** 
2086:Source/tasks.c **** #if ( configUSE_TRACE_FACILITY == 1 )
2087:Source/tasks.c **** 	void vTaskSetTaskNumber( xTaskHandle xTask, unsigned portBASE_TYPE uxHandle )
2088:Source/tasks.c **** 	{
2089:Source/tasks.c **** 	tskTCB *pxTCB;
2090:Source/tasks.c **** 
2091:Source/tasks.c **** 		if( xTask != NULL )
2092:Source/tasks.c **** 		{
2093:Source/tasks.c **** 			pxTCB = ( tskTCB * ) xTask;
2094:Source/tasks.c **** 			pxTCB->uxTaskNumber = uxHandle;
2095:Source/tasks.c **** 		}
2096:Source/tasks.c **** 	}
2097:Source/tasks.c **** #endif
2098:Source/tasks.c **** 
2099:Source/tasks.c **** 
2100:Source/tasks.c **** /*
2101:Source/tasks.c ****  * -----------------------------------------------------------
2102:Source/tasks.c ****  * The Idle task.
2103:Source/tasks.c ****  * ----------------------------------------------------------
2104:Source/tasks.c ****  *
2105:Source/tasks.c ****  * The portTASK_FUNCTION() macro is used to allow port/compiler specific
2106:Source/tasks.c ****  * language extensions.  The equivalent prototype for this function is:
2107:Source/tasks.c ****  *
2108:Source/tasks.c ****  * void prvIdleTask( void *pvParameters );
2109:Source/tasks.c ****  *
2110:Source/tasks.c ****  */
2111:Source/tasks.c **** static portTASK_FUNCTION( prvIdleTask, pvParameters )
2112:Source/tasks.c **** {
 2530              		.loc 1 2112 0
 2531              		.cfi_startproc
 2532              		@ args = 0, pretend = 0, frame = 8
 2533              		@ frame_needed = 1, uses_anonymous_args = 0
 2534 0000 80B5     		push	{r7, lr}	@
 2535              	.LCFI68:
ARM GAS  C:\Users\Grzybek\AppData\Local\Temp\cccVQrHj.s 			page 83


 2536              		.cfi_def_cfa_offset 8
 2537              		.cfi_offset 7, -8
 2538              		.cfi_offset 14, -4
 2539 0002 82B0     		sub	sp, sp, #8	@,,
 2540              	.LCFI69:
 2541              		.cfi_def_cfa_offset 16
 2542 0004 00AF     		add	r7, sp, #0	@,,
 2543              	.LCFI70:
 2544              		.cfi_def_cfa_register 7
 2545 0006 7860     		str	r0, [r7, #4]	@ pvParameters, pvParameters
 2546 0008 00E0     		b	.L168	@
 2547              	.L169:
2113:Source/tasks.c **** 	/* Stop warnings. */
2114:Source/tasks.c **** 	( void ) pvParameters;
2115:Source/tasks.c **** 
2116:Source/tasks.c **** 	for( ;; )
2117:Source/tasks.c **** 	{
2118:Source/tasks.c **** 		/* See if any tasks have been deleted. */
2119:Source/tasks.c **** 		prvCheckTasksWaitingTermination();
2120:Source/tasks.c **** 
2121:Source/tasks.c **** 		#if ( configUSE_PREEMPTION == 0 )
2122:Source/tasks.c **** 		{
2123:Source/tasks.c **** 			/* If we are not using preemption we keep forcing a task switch to
2124:Source/tasks.c **** 			see if any other task has become available.  If we are using
2125:Source/tasks.c **** 			preemption we don't need to do this as any task becoming available
2126:Source/tasks.c **** 			will automatically get the processor anyway. */
2127:Source/tasks.c **** 			taskYIELD();
2128:Source/tasks.c **** 		}
2129:Source/tasks.c **** 		#endif
2130:Source/tasks.c **** 
2131:Source/tasks.c **** 		#if ( ( configUSE_PREEMPTION == 1 ) && ( configIDLE_SHOULD_YIELD == 1 ) )
2132:Source/tasks.c **** 		{
2133:Source/tasks.c **** 			/* When using preemption tasks of equal priority will be
2134:Source/tasks.c **** 			timesliced.  If a task that is sharing the idle priority is ready
2135:Source/tasks.c **** 			to run then the idle task should yield before the end of the
2136:Source/tasks.c **** 			timeslice.
2137:Source/tasks.c **** 
2138:Source/tasks.c **** 			A critical region is not required here as we are just reading from
2139:Source/tasks.c **** 			the list, and an occasional incorrect value will not matter.  If
2140:Source/tasks.c **** 			the ready list at the idle priority contains more than one task
2141:Source/tasks.c **** 			then a task other than the idle task is ready to execute. */
2142:Source/tasks.c **** 			if( listCURRENT_LIST_LENGTH( &( pxReadyTasksLists[ tskIDLE_PRIORITY ] ) ) > ( unsigned portBASE_
2143:Source/tasks.c **** 			{
2144:Source/tasks.c **** 				taskYIELD();
2145:Source/tasks.c **** 			}
2146:Source/tasks.c **** 		}
2147:Source/tasks.c **** 		#endif
2148:Source/tasks.c **** 
2149:Source/tasks.c **** 		#if ( configUSE_IDLE_HOOK == 1 )
2150:Source/tasks.c **** 		{
2151:Source/tasks.c **** 			extern void vApplicationIdleHook( void );
2152:Source/tasks.c **** 
2153:Source/tasks.c **** 			/* Call the user defined function from within the idle task.  This
2154:Source/tasks.c **** 			allows the application designer to add background functionality
2155:Source/tasks.c **** 			without the overhead of a separate task.
2156:Source/tasks.c **** 			NOTE: vApplicationIdleHook() MUST NOT, UNDER ANY CIRCUMSTANCES,
2157:Source/tasks.c **** 			CALL A FUNCTION THAT MIGHT BLOCK. */
ARM GAS  C:\Users\Grzybek\AppData\Local\Temp\cccVQrHj.s 			page 84


2158:Source/tasks.c **** 			vApplicationIdleHook();
2159:Source/tasks.c **** 		}
2160:Source/tasks.c **** 		#endif
2161:Source/tasks.c **** 
2162:Source/tasks.c **** 		/* This conditional compilation should use inequality to 0, not equality
2163:Source/tasks.c **** 		to 1.  This is to ensure portSUPPRESS_TICKS_AND_SLEEP() is called when
2164:Source/tasks.c **** 		user defined low power mode	implementations require
2165:Source/tasks.c **** 		configUSE_TICKLESS_IDLE to be set to a value other than 1. */
2166:Source/tasks.c **** 		#if ( configUSE_TICKLESS_IDLE != 0 )
2167:Source/tasks.c **** 		{
2168:Source/tasks.c **** 		portTickType xExpectedIdleTime;
2169:Source/tasks.c **** 		/* If the expected idle time is 1 then the idle time would end at
2170:Source/tasks.c **** 		the end of the current time slice.  The idle time must be at least
2171:Source/tasks.c **** 		2 to ensure any pended ticks between this point and the tick being
2172:Source/tasks.c **** 		stopped can be legitimately stepped over when the tick suppression
2173:Source/tasks.c **** 		routines returns. */
